Certificate Request:
    Data:
        Version: 1 (0x0)
        Subject: C = FR, ST = IDF, L = Paris, O = Local NODE-OPCUA Certificate Authority, CN = NodeOPCUA-CA
        Subject Public Key Info:
            Public Key Algorithm: rsaEncryption
                RSA Public-Key: (2048 bit)
                Modulus:
                    00:b1:93:34:5c:80:c9:a5:84:47:93:3b:85:00:4c:
                    54:2a:8c:d3:fb:1c:4d:4d:6a:47:0f:5f:ea:97:60:
                    96:b3:85:89:1c:b3:22:44:ee:52:54:c2:f5:a3:9b:
                    7c:34:56:f7:06:5c:da:6d:55:a8:ca:5f:88:79:d8:
                    a5:4c:fe:37:ab:04:cf:54:69:6c:da:1f:75:a9:8c:
                    e2:5e:35:b9:cc:10:e3:26:5b:c1:c4:08:d2:b0:0e:
                    11:b4:0a:6e:ac:a8:36:de:b2:d2:c9:1e:a2:7f:d6:
                    79:83:0d:de:33:d1:dd:54:d7:3d:c9:da:ed:0c:c4:
                    64:57:1d:27:46:74:0a:d9:17:8d:19:03:e6:21:0b:
                    27:21:20:83:fc:12:85:32:92:27:53:0a:47:d9:57:
                    b8:e9:ea:9f:5f:58:1a:8b:de:3e:1e:e2:1e:f0:06:
                    d4:5c:6d:96:ca:96:f8:18:6d:4b:38:4d:d0:99:a8:
                    0a:5d:d0:41:1d:09:62:24:f0:7c:ef:e1:dd:39:f3:
                    20:f7:57:ea:05:aa:2a:92:c6:f4:3d:7e:ba:7c:67:
                    8a:e6:56:c0:e3:9f:5b:3e:75:b9:5e:5e:92:58:f5:
                    af:99:5f:54:e9:9c:ff:07:2b:89:79:92:e1:9e:d6:
                    5e:05:7a:ce:a5:2b:36:07:f3:9c:cc:ca:c6:fa:15:
                    17:59
                Exponent: 65537 (0x10001)
        Attributes:
        Requested Extensions:
            X509v3 Basic Constraints: critical
                CA:FALSE
            X509v3 Key Usage: 
                Digital Signature, Non Repudiation, Key Encipherment, Data Encipherment, Key Agreement
            X509v3 Extended Key Usage: critical
                TLS Web Server Authentication, TLS Web Client Authentication
            X509v3 Subject Alternative Name: 
                URI:undefined
            Netscape Comment: 
                CA Generated by Node-OPCUA Certificate utility using openssl
    Signature Algorithm: sha256WithRSAEncryption
         98:26:ef:c7:90:25:26:a8:bd:b7:4f:03:65:f2:7c:31:e7:42:
         f2:24:49:05:4f:9b:35:54:b5:a3:c6:95:1a:e6:69:f8:0d:3a:
         d4:0a:85:61:b6:df:a3:53:a4:39:46:73:d9:1c:f4:9f:13:cc:
         4d:95:bc:be:fb:17:05:bc:4e:5e:fb:d9:c9:60:b6:3c:fb:73:
         47:fa:8c:ad:d6:f2:d8:25:05:45:3d:51:8a:49:f2:8c:5e:45:
         d5:02:5e:fe:f6:d0:bb:e5:aa:8a:55:e9:98:14:1d:f2:12:a2:
         c7:39:7b:3c:35:9e:97:fd:8d:72:46:1c:e9:bf:2a:2f:89:1f:
         4f:93:4e:3f:68:72:24:99:6a:b3:62:f2:92:6a:df:5e:8b:e7:
         dd:b8:ca:13:6e:5a:bd:72:75:b5:11:aa:55:0d:be:93:2b:6d:
         e7:0b:7f:28:f2:58:1e:b9:d2:dd:af:ab:e0:64:03:6e:26:d4:
         bc:35:1d:26:ad:b1:c6:39:e2:77:a3:8e:0c:0c:cb:40:44:c9:
         df:d4:55:82:96:2c:9a:f8:55:02:0a:33:a8:8e:cb:97:fd:54:
         38:96:19:f4:db:66:e3:14:10:f4:b1:d9:f5:14:df:74:fc:13:
         46:a9:7b:77:e8:a5:03:c3:55:ee:29:a1:8b:1c:3d:f4:cd:37:
         2e:69:6b:35
-----BEGIN CERTIFICATE REQUEST-----
MIIDbTCCAlUCAQAwczELMAkGA1UEBhMCRlIxDDAKBgNVBAgTA0lERjEOMAwGA1UE
BxMFUGFyaXMxLzAtBgNVBAoTJkxvY2FsIE5PREUtT1BDVUEgQ2VydGlmaWNhdGUg
QXV0aG9yaXR5MRUwEwYDVQQDEwxOb2RlT1BDVUEtQ0EwggEiMA0GCSqGSIb3DQEB
AQUAA4IBDwAwggEKAoIBAQCxkzRcgMmlhEeTO4UATFQqjNP7HE1NakcPX+qXYJaz
hYkcsyJE7lJUwvWjm3w0VvcGXNptVajKX4h52KVM/jerBM9UaWzaH3WpjOJeNbnM
EOMmW8HECNKwDhG0Cm6sqDbestLJHqJ/1nmDDd4z0d1U1z3J2u0MxGRXHSdGdArZ
F40ZA+YhCychIIP8EoUykidTCkfZV7jp6p9fWBqL3j4e4h7wBtRcbZbKlvgYbUs4
TdCZqApd0EEdCWIk8Hzv4d058yD3V+oFqiqSxvQ9frp8Z4rmVsDjn1s+dbleXpJY
9a+ZX1TpnP8HK4l5kuGe1l4Fes6lKzYH85zMysb6FRdZAgMBAAGggbQwgbEGCSqG
SIb3DQEJDjGBozCBoDAMBgNVHRMBAf8EAjAAMAsGA1UdDwQEAwID+DAgBgNVHSUB
Af8EFjAUBggrBgEFBQcDAQYIKwYBBQUHAwIwFAYDVR0RBA0wC4YJdW5kZWZpbmVk
MEsGCWCGSAGG+EIBDQQ+FjxDQSBHZW5lcmF0ZWQgYnkgTm9kZS1PUENVQSBDZXJ0
aWZpY2F0ZSB1dGlsaXR5IHVzaW5nIG9wZW5zc2wwDQYJKoZIhvcNAQELBQADggEB
AJgm78eQJSaovbdPA2XyfDHnQvIkSQVPmzVUtaPGlRrmafgNOtQKhWG236NTpDlG
c9kc9J8TzE2VvL77FwW8Tl772clgtjz7c0f6jK3W8tglBUU9UYpJ8oxeRdUCXv72
0LvlqopV6ZgUHfISosc5ezw1npf9jXJGHOm/Ki+JH0+TTj9ociSZarNi8pJq316L
5924yhNuWr1ydbURqlUNvpMrbecLfyjyWB650t2vq+BkA24m1Lw1HSatscY54nej
jgwMy0BEyd/UVYKWLJr4VQIKM6iOy5f9VDiWGfTbZuMUEPSx2fUU33T8E0ape3fo
pQPDVe4poYscPfTNNy5pazU=
-----END CERTIFICATE REQUEST-----
