Certificate Revocation List (CRL):
        Version 2 (0x1)
        Signature Algorithm: sha256WithRSAEncryption
        Issuer: C = FR, ST = IDF, L = Paris, O = Local NODE-OPCUA Certificate Authority, CN = NodeOPCUA-CA
        Last Update: Oct 10 00:24:25 2022 GMT
        Next Update: Nov 10 00:24:25 2022 GMT
        CRL extensions:
            X509v3 Authority Key Identifier: 
                keyid:A7:15:61:9A:B5:81:C7:F7:D0:76:65:0D:DA:7F:EC:DE:F2:4F:C8:EB
                DirName:/C=FR/ST=IDF/L=Paris/O=Local NODE-OPCUA Certificate Authority/CN=NodeOPCUA-CA
                serial:25:A1:CC:A0:A1:DA:94:52:52:1D:E7:E0:B7:E7:30:D9:7D:F8:10:DD

            X509v3 CRL Number: 
                4108
Revoked Certificates:
    Serial Number: 1004
        Revocation Date: Oct 10 00:24:20 2022 GMT
        CRL entry extensions:
            X509v3 CRL Reason Code: 
                Key Compromise
    Serial Number: 1009
        Revocation Date: Oct 10 00:24:21 2022 GMT
        CRL entry extensions:
            X509v3 CRL Reason Code: 
                Key Compromise
    Serial Number: 100E
        Revocation Date: Oct 10 00:24:21 2022 GMT
        CRL entry extensions:
            X509v3 CRL Reason Code: 
                Key Compromise
    Serial Number: 1013
        Revocation Date: Oct 10 00:24:22 2022 GMT
        CRL entry extensions:
            X509v3 CRL Reason Code: 
                Key Compromise
    Serial Number: 1018
        Revocation Date: Oct 10 00:24:22 2022 GMT
        CRL entry extensions:
            X509v3 CRL Reason Code: 
                Key Compromise
    Serial Number: 101D
        Revocation Date: Oct 10 00:24:23 2022 GMT
        CRL entry extensions:
            X509v3 CRL Reason Code: 
                Key Compromise
    Serial Number: 1022
        Revocation Date: Oct 10 00:24:23 2022 GMT
        CRL entry extensions:
            X509v3 CRL Reason Code: 
                Key Compromise
    Serial Number: 1027
        Revocation Date: Oct 10 00:24:23 2022 GMT
        CRL entry extensions:
            X509v3 CRL Reason Code: 
                Key Compromise
    Serial Number: 102C
        Revocation Date: Oct 10 00:24:24 2022 GMT
        CRL entry extensions:
            X509v3 CRL Reason Code: 
                Key Compromise
    Serial Number: 1031
        Revocation Date: Oct 10 00:24:24 2022 GMT
        CRL entry extensions:
            X509v3 CRL Reason Code: 
                Key Compromise
    Serial Number: 1036
        Revocation Date: Oct 10 00:24:24 2022 GMT
        CRL entry extensions:
            X509v3 CRL Reason Code: 
                Key Compromise
    Serial Number: 103B
        Revocation Date: Oct 10 00:24:25 2022 GMT
        CRL entry extensions:
            X509v3 CRL Reason Code: 
                Key Compromise
    Signature Algorithm: sha256WithRSAEncryption
         67:28:2b:cc:4f:1d:10:47:ae:93:40:20:c5:ed:1a:b4:6d:c8:
         14:99:05:12:c2:2d:7f:a1:7c:75:18:94:2c:f5:f4:82:3d:0d:
         cb:d8:d1:78:ac:7e:b5:9e:af:d6:7d:7a:e3:f8:38:2e:2a:5c:
         11:a9:aa:2c:38:fd:9a:b5:db:14:55:6a:7f:a4:7e:35:cc:fd:
         4a:2d:7f:50:a4:0e:4b:9d:bc:1d:5c:74:51:79:22:cb:ec:b8:
         69:24:00:71:53:bc:8d:a6:a9:53:cf:37:8b:72:49:17:e4:b4:
         c2:f1:a4:e3:2f:08:a6:96:51:50:32:5e:c1:84:ba:bf:b1:f9:
         b2:49:5f:5c:0c:01:1c:6e:a1:b1:ca:eb:92:7c:9b:f9:82:26:
         9b:82:e6:7f:e7:5d:92:4f:49:2f:ad:12:2b:f7:3b:8f:ae:12:
         bb:14:72:43:ce:be:8a:ea:1f:81:65:75:92:00:dd:7b:f5:3d:
         6e:c6:67:c2:28:c5:28:c3:1c:12:5b:bf:5d:27:83:69:ff:b1:
         e3:81:56:38:e0:22:77:a8:b7:1a:4c:41:1e:5a:e0:d0:85:c6:
         81:52:f8:2c:e1:1d:3e:ae:37:ef:37:75:93:22:29:85:98:9e:
         4a:5d:2c:77:04:b6:07:bf:61:7f:5e:74:67:3b:34:05:4d:b6:
         64:25:4e:fd
-----BEGIN X509 CRL-----
MIIEKzCCAxMCAQEwDQYJKoZIhvcNAQELBQAwczELMAkGA1UEBhMCRlIxDDAKBgNV
BAgTA0lERjEOMAwGA1UEBxMFUGFyaXMxLzAtBgNVBAoTJkxvY2FsIE5PREUtT1BD
VUEgQ2VydGlmaWNhdGUgQXV0aG9yaXR5MRUwEwYDVQQDEwxOb2RlT1BDVUEtQ0EX
DTIyMTAxMDAwMjQyNVoXDTIyMTExMDAwMjQyNVowggGkMCECAhAEFw0yMjEwMTAw
MDI0MjBaMAwwCgYDVR0VBAMKAQEwIQICEAkXDTIyMTAxMDAwMjQyMVowDDAKBgNV
HRUEAwoBATAhAgIQDhcNMjIxMDEwMDAyNDIxWjAMMAoGA1UdFQQDCgEBMCECAhAT
Fw0yMjEwMTAwMDI0MjJaMAwwCgYDVR0VBAMKAQEwIQICEBgXDTIyMTAxMDAwMjQy
MlowDDAKBgNVHRUEAwoBATAhAgIQHRcNMjIxMDEwMDAyNDIzWjAMMAoGA1UdFQQD
CgEBMCECAhAiFw0yMjEwMTAwMDI0MjNaMAwwCgYDVR0VBAMKAQEwIQICECcXDTIy
MTAxMDAwMjQyM1owDDAKBgNVHRUEAwoBATAhAgIQLBcNMjIxMDEwMDAyNDI0WjAM
MAoGA1UdFQQDCgEBMCECAhAxFw0yMjEwMTAwMDI0MjRaMAwwCgYDVR0VBAMKAQEw
IQICEDYXDTIyMTAxMDAwMjQyNFowDDAKBgNVHRUEAwoBATAhAgIQOxcNMjIxMDEw
MDAyNDI1WjAMMAoGA1UdFQQDCgEBoIHDMIHAMIGwBgNVHSMEgagwgaWAFKcVYZq1
gcf30HZlDdp/7N7yT8jroXekdTBzMQswCQYDVQQGEwJGUjEMMAoGA1UECBMDSURG
MQ4wDAYDVQQHEwVQYXJpczEvMC0GA1UEChMmTG9jYWwgTk9ERS1PUENVQSBDZXJ0
aWZpY2F0ZSBBdXRob3JpdHkxFTATBgNVBAMTDE5vZGVPUENVQS1DQYIUJaHMoKHa
lFJSHefgt+cw2X34EN0wCwYDVR0UBAQCAhAMMA0GCSqGSIb3DQEBCwUAA4IBAQBn
KCvMTx0QR66TQCDF7Rq0bcgUmQUSwi1/oXx1GJQs9fSCPQ3L2NF4rH61nq/WfXrj
+DguKlwRqaosOP2atdsUVWp/pH41zP1KLX9QpA5LnbwdXHRReSLL7LhpJABxU7yN
pqlTzzeLckkX5LTC8aTjLwimllFQMl7BhLq/sfmySV9cDAEcbqGxyuuSfJv5giab
guZ/512ST0kvrRIr9zuPrhK7FHJDzr6K6h+BZXWSAN179T1uxmfCKMUowxwSW79d
J4Np/7HjgVY44CJ3qLcaTEEeWuDQhcaBUvgs4R0+rjfvN3WTIimFmJ5KXSx3BLYH
v2F/XnRnOzQFTbZkJU79
-----END X509 CRL-----
