Certificate Request:
    Data:
        Version: 1 (0x0)
        Subject: C = FR, O = NodeOPCUA, CN = NodeOPCUA
        Subject Public Key Info:
            Public Key Algorithm: rsaEncryption
                RSA Public-Key: (3072 bit)
                Modulus:
                    00:e3:ca:25:c7:8a:15:b5:1d:05:1e:5c:89:f4:03:
                    95:39:76:ec:68:ba:64:e8:6b:67:b5:89:d4:29:1f:
                    78:ba:dc:69:df:75:12:3d:2b:56:58:8c:29:9d:07:
                    2c:20:60:33:f0:1d:a8:25:ec:c7:7d:c6:fe:1c:c4:
                    b8:ff:b2:88:23:98:96:5c:4a:ae:64:e6:94:44:31:
                    9c:e1:6d:e0:bd:ed:2e:38:43:f0:d3:f2:87:fd:c3:
                    8b:d2:f6:23:6f:e7:b5:a2:d9:15:80:cd:6e:2a:47:
                    40:48:93:fb:01:b2:29:a6:4d:b5:62:fe:9c:53:f0:
                    27:f6:39:86:83:d4:1b:12:f3:f7:d1:69:bd:49:d1:
                    c8:21:56:1a:28:a6:89:72:f2:f1:f7:d1:57:71:53:
                    42:e4:c0:72:d8:ab:2b:a2:71:a7:23:b8:ce:87:ee:
                    4a:f4:eb:a3:71:d3:46:5c:a5:ca:22:ab:39:3d:9a:
                    16:f5:c5:31:46:82:e1:07:6e:7e:fd:bf:32:f4:ba:
                    8f:7d:07:af:09:48:53:1e:ef:7d:16:ba:1c:ea:7c:
                    69:09:87:5c:44:23:81:9c:de:f4:d7:5e:80:09:14:
                    e2:11:a8:d2:9c:13:e9:ff:73:8b:6c:1e:c8:0a:af:
                    10:32:bc:24:5c:dd:06:b8:b6:c2:b2:2d:f4:e5:45:
                    25:ad:0f:3a:43:5f:90:04:0c:48:33:9a:ae:6f:db:
                    c5:1a:da:b4:5f:48:38:cc:4b:0c:28:4a:2b:c1:a4:
                    41:27:17:b3:c5:24:c2:3b:34:09:0b:d8:9b:aa:04:
                    d2:73:c2:64:37:f1:60:76:aa:65:6d:59:59:d2:5c:
                    9a:a5:1b:cf:7f:7b:1b:ec:4a:d7:04:4e:5d:1e:d8:
                    e3:f3:df:44:14:94:99:67:cd:ab:8b:16:52:7e:19:
                    3a:8f:75:dd:e7:e5:2f:6b:a3:de:74:bd:4b:6f:13:
                    d4:9c:54:5d:40:83:4e:3f:7a:53:a0:4c:ce:0f:84:
                    69:f1:46:0a:c8:2f:3a:80:18:37
                Exponent: 65537 (0x10001)
        Attributes:
        Requested Extensions:
            X509v3 Basic Constraints: 
                CA:FALSE
            X509v3 Key Usage: critical
                Certificate Sign, CRL Sign
            X509v3 Subject Alternative Name: 
                URI:urn:bc96d73fb3b6:NodeOPCUA-Client, DNS:bc96d73fb3b6, IP Address:127.0.0.1
    Signature Algorithm: sha256WithRSAEncryption
         c5:2f:13:72:93:a7:df:26:59:09:03:27:ed:24:f9:86:58:b6:
         31:96:4f:87:3f:38:15:70:27:1f:20:e2:4f:ea:5f:9f:85:21:
         6c:e9:95:83:2c:4b:8b:66:1f:eb:f2:2b:85:ca:b6:27:09:f4:
         47:c5:e1:73:c8:8c:4c:f2:60:86:cb:2c:22:1f:63:d2:03:41:
         69:c1:b4:a3:b9:7d:5b:83:75:7b:c3:8c:2c:fa:0d:ec:e7:2b:
         0a:b7:b4:96:29:62:24:54:2a:d5:a6:70:a1:9c:9d:05:7a:c4:
         02:c6:08:98:c1:1f:c3:16:ae:56:d9:0f:1b:93:f7:a1:c0:0e:
         af:78:b9:62:f9:a5:a4:6b:7d:2f:a6:8c:e7:1b:e9:fa:4b:40:
         00:35:ab:12:cb:1b:03:f9:b9:e9:f0:76:1d:43:18:47:44:76:
         4a:f1:8a:32:d0:2c:37:a4:c3:93:d2:d0:d2:8f:37:8c:1c:f9:
         1a:85:33:c1:a8:55:b2:fc:66:e0:bc:c6:4e:e0:7d:3d:bb:9b:
         77:b1:e8:09:54:f6:4a:58:92:24:5e:73:9b:e3:93:cc:87:61:
         e7:ba:e4:fa:be:48:04:8a:93:5f:8f:03:61:5e:29:9f:5b:ac:
         ec:ec:db:02:ef:a6:1f:69:f7:20:0c:73:7f:14:66:49:08:36:
         9c:96:3d:5f:85:98:88:20:9e:1d:84:59:e9:68:66:81:72:74:
         45:bc:c5:27:4e:9e:e2:3f:45:00:87:0d:05:da:f0:01:21:ca:
         7f:25:2e:06:ac:7e:89:ad:8e:36:c9:6c:96:99:af:db:12:d4:
         54:80:45:61:3e:66:a3:93:33:08:46:ec:d6:b9:5b:60:3d:4e:
         5e:6a:04:40:0a:6f:ae:00:9b:0e:97:a6:85:f1:60:7f:8e:b6:
         9c:4f:97:bf:bb:18:e5:0f:67:5e:bd:3e:96:d5:24:7a:8a:84:
         3b:9f:56:2b:e5:31:15:5b:0b:53:39:cb:50:a6:98:a8:a5:d3:
         02:f7:1e:4a:4a:be
-----BEGIN CERTIFICATE REQUEST-----
MIID6DCCAlACAQAwNTELMAkGA1UEBhMCRlIxEjAQBgNVBAoMCU5vZGVPUENVQTES
MBAGA1UEAwwJTm9kZU9QQ1VBMIIBojANBgkqhkiG9w0BAQEFAAOCAY8AMIIBigKC
AYEA48olx4oVtR0FHlyJ9AOVOXbsaLpk6GtntYnUKR94utxp33USPStWWIwpnQcs
IGAz8B2oJezHfcb+HMS4/7KII5iWXEquZOaURDGc4W3gve0uOEPw0/KH/cOL0vYj
b+e1otkVgM1uKkdASJP7AbIppk21Yv6cU/An9jmGg9QbEvP30Wm9SdHIIVYaKKaJ
cvLx99FXcVNC5MBy2KsronGnI7jOh+5K9OujcdNGXKXKIqs5PZoW9cUxRoLhB25+
/b8y9LqPfQevCUhTHu99Froc6nxpCYdcRCOBnN70116ACRTiEajSnBPp/3OLbB7I
Cq8QMrwkXN0GuLbCsi305UUlrQ86Q1+QBAxIM5qub9vFGtq0X0g4zEsMKEorwaRB
JxezxSTCOzQJC9ibqgTSc8JkN/FgdqplbVlZ0lyapRvPf3sb7ErXBE5dHtjj899E
FJSZZ82rixZSfhk6j3Xd5+Uva6PedL1LbxPUnFRdQINOP3pToEzOD4Rp8UYKyC86
gBg3AgMBAAGgbjBsBgkqhkiG9w0BCQ4xXzBdMAkGA1UdEwQCMAAwDgYDVR0PAQH/
BAQDAgEGMEAGA1UdEQQ5MDeGIXVybjpiYzk2ZDczZmIzYjY6Tm9kZU9QQ1VBLUNs
aWVudIIMYmM5NmQ3M2ZiM2I2hwR/AAABMA0GCSqGSIb3DQEBCwUAA4IBgQDFLxNy
k6ffJlkJAyftJPmGWLYxlk+HPzgVcCcfIOJP6l+fhSFs6ZWDLEuLZh/r8iuFyrYn
CfRHxeFzyIxM8mCGyywiH2PSA0FpwbSjuX1bg3V7w4ws+g3s5ysKt7SWKWIkVCrV
pnChnJ0FesQCxgiYwR/DFq5W2Q8bk/ehwA6veLli+aWka30vpoznG+n6S0AANasS
yxsD+bnp8HYdQxhHRHZK8Yoy0Cw3pMOT0tDSjzeMHPkahTPBqFWy/GbgvMZO4H09
u5t3segJVPZKWJIkXnOb45PMh2HnuuT6vkgEipNfjwNhXimfW6zs7NsC76Yfafcg
DHN/FGZJCDaclj1fhZiIIJ4dhFnpaGaBcnRFvMUnTp7iP0UAhw0F2vABIcp/JS4G
rH6JrY42yWyWma/bEtRUgEVhPmajkzMIRuzWuVtgPU5eagRACm+uAJsOl6aF8WB/
jracT5e/uxjlD2devT6W1SR6ioQ7n1Yr5TEVWwtTOctQppiopdMC9x5KSr4=
-----END CERTIFICATE REQUEST-----
