Certificate Request:
    Data:
        Version: 1 (0x0)
        Subject: C = FR, O = NodeOPCUA, CN = NodeOPCUA
        Subject Public Key Info:
            Public Key Algorithm: rsaEncryption
                RSA Public-Key: (4096 bit)
                Modulus:
                    00:e7:d8:c4:48:74:b6:05:c6:05:90:d8:71:d9:a5:
                    b3:da:fd:3e:b9:eb:c5:3d:73:3d:5c:3b:88:46:aa:
                    e5:c7:9c:d4:02:b2:1f:d5:40:d1:7e:44:9b:63:70:
                    60:8e:9b:82:70:51:85:f8:51:4e:44:67:ea:af:57:
                    55:15:b0:22:4a:9e:47:72:d6:c2:27:d5:03:02:8f:
                    3b:f2:d9:ee:89:25:a0:75:2b:79:cf:5f:71:63:c4:
                    c3:e1:43:8e:89:12:c0:71:e5:61:1b:18:89:c3:35:
                    70:81:95:17:30:0d:59:68:0b:32:63:cf:ce:02:b9:
                    5f:f8:3a:a4:10:95:4b:48:4d:6f:87:c8:12:26:67:
                    81:76:06:b2:d4:81:15:25:dc:d6:10:4e:70:5a:28:
                    53:8e:22:68:65:71:56:11:84:31:ef:eb:69:48:39:
                    e3:de:04:c9:8e:5a:a5:13:06:a0:d3:b3:78:f3:24:
                    96:dd:a1:ed:20:d3:1d:ed:dd:18:05:9b:a7:09:c5:
                    96:b5:c5:cc:7d:b2:b1:40:ec:d8:44:d8:ad:c6:e8:
                    71:75:8d:35:60:a9:ac:a7:23:04:ae:05:73:28:27:
                    57:11:a8:62:ed:21:dc:2b:b1:28:66:83:09:24:5a:
                    49:08:64:8c:10:98:14:fc:ed:45:7e:9a:87:b9:1f:
                    ce:2e:0e:17:bc:57:6e:3d:99:c9:03:e8:ea:63:fc:
                    9a:0e:84:b2:bb:82:1a:9b:77:a1:43:8d:0c:77:31:
                    c8:af:e1:c0:75:af:1d:01:4b:ae:d5:a0:21:f3:96:
                    0c:ee:fd:1a:b4:8e:e6:0d:8f:0e:25:dc:b6:4f:58:
                    f2:2c:61:80:6f:64:9a:3b:30:14:16:c0:7b:e3:89:
                    c1:66:54:d7:ac:c9:ca:36:b2:01:1f:3a:68:73:60:
                    fa:5d:2d:f5:4e:ea:26:0d:73:79:67:ab:0f:e3:c2:
                    ba:40:a0:cb:30:9c:1e:a6:48:3c:17:30:72:de:dd:
                    ea:f6:e7:3b:63:62:df:e5:79:fb:dc:bd:c2:0e:30:
                    40:e5:dd:1c:0f:74:dd:ec:ff:a4:f5:ac:77:2a:85:
                    1a:2e:05:f2:86:70:2a:a3:6a:2d:43:c7:8f:54:c0:
                    81:bf:ae:2d:a6:48:8f:f7:f4:ce:cf:00:db:56:9b:
                    af:44:8e:61:9b:f8:03:f4:4e:7b:dd:19:e9:e0:38:
                    a7:b5:97:7f:a7:a7:62:31:c9:2f:8d:7f:b4:54:05:
                    51:7b:5e:30:18:4c:19:49:eb:43:0c:e4:bd:dc:25:
                    25:9b:f2:72:e8:37:58:7c:24:45:1c:45:3c:85:8c:
                    06:fc:57:f7:87:79:58:01:1f:04:82:20:ad:89:50:
                    fc:d5:4d
                Exponent: 65537 (0x10001)
        Attributes:
        Requested Extensions:
            X509v3 Basic Constraints: 
                CA:FALSE
            X509v3 Key Usage: critical
                Certificate Sign, CRL Sign
            X509v3 Subject Alternative Name: 
                URI:urn:bc96d73fb3b6:NodeOPCUA-Client, DNS:bc96d73fb3b6, IP Address:127.0.0.1
    Signature Algorithm: sha256WithRSAEncryption
         05:ff:77:28:59:30:cc:98:42:ed:bb:52:17:4d:0a:f5:b5:17:
         90:33:15:b6:d5:aa:c2:ba:f6:8f:a4:e6:7f:a1:54:08:92:95:
         03:4f:be:80:97:34:d3:10:c0:7a:ba:3e:bc:dd:40:0c:51:6b:
         1d:f1:10:40:be:85:f4:ce:fe:b4:f3:a0:83:76:86:88:5c:8e:
         a9:1f:d3:5c:7e:ce:18:50:56:b7:74:0e:82:11:10:b9:f3:6c:
         41:b9:99:79:1d:94:51:ff:2a:f1:be:5b:1c:37:d6:22:31:de:
         39:da:08:95:da:b8:58:d6:69:d4:8b:d9:fd:74:e9:0b:a8:d5:
         e8:b2:a1:b5:82:c9:d0:d6:db:c9:33:75:4d:8e:37:94:7c:4d:
         5f:f1:06:da:24:df:05:99:b3:bf:22:36:1d:ab:a2:4f:a6:e2:
         92:08:82:d0:c0:12:35:1b:5b:1c:41:34:a0:c7:29:12:af:33:
         ea:fd:c3:22:77:5e:e3:52:67:c2:b6:22:db:dc:87:5c:77:f0:
         80:f1:56:c8:e2:d1:24:88:32:e5:03:6c:36:66:6e:b5:49:db:
         bb:11:19:bb:f4:8f:6e:e6:1d:00:b2:68:c7:e6:39:4c:ea:64:
         51:8a:69:5d:02:ed:75:6e:01:0b:9c:1e:c9:34:1e:25:12:8e:
         bc:b1:6c:62:4f:29:49:6c:72:f9:9b:9e:17:b9:44:ee:56:26:
         a4:53:06:e2:30:4e:b8:db:06:76:2b:c6:c9:56:fc:3f:08:08:
         dd:2c:11:84:72:ae:df:af:d8:d6:0a:9e:6c:c0:a9:b2:ac:07:
         d5:be:5b:56:76:a3:cc:c7:cf:03:d1:cf:a7:17:53:ad:ba:72:
         89:5a:08:cf:40:3e:e3:13:90:3b:ac:51:5c:3e:37:e6:f9:10:
         93:ca:83:73:31:64:c7:02:58:a7:78:47:bc:3b:31:23:65:39:
         02:5b:ad:d4:ff:2c:eb:d1:0d:e5:81:dd:fa:44:c6:44:64:9a:
         23:72:99:7e:f7:70:77:a9:1a:33:03:da:40:c2:8d:60:02:cc:
         da:b5:91:b0:d8:75:78:b7:21:69:6b:d7:32:5a:ca:e7:ea:bf:
         ea:c6:bf:c4:28:15:21:cc:94:57:29:62:ad:9d:2d:f2:9c:cb:
         c3:64:70:76:b9:15:66:67:8a:48:e4:c7:c4:34:45:bc:fc:27:
         65:a4:b0:e5:7c:94:c1:70:50:aa:33:00:25:61:80:3b:7f:3f:
         ef:6a:91:aa:c4:70:2d:35:4f:ec:76:cc:48:32:8a:d1:d4:04:
         fe:23:0e:5f:16:50:fb:b1:7f:ba:ec:9b:34:a8:1e:0a:83:a0:
         d0:63:a9:49:9e:aa:7f:7c
-----BEGIN CERTIFICATE REQUEST-----
MIIE6DCCAtACAQAwNTELMAkGA1UEBhMCRlIxEjAQBgNVBAoMCU5vZGVPUENVQTES
MBAGA1UEAwwJTm9kZU9QQ1VBMIICIjANBgkqhkiG9w0BAQEFAAOCAg8AMIICCgKC
AgEA59jESHS2BcYFkNhx2aWz2v0+uevFPXM9XDuIRqrlx5zUArIf1UDRfkSbY3Bg
jpuCcFGF+FFORGfqr1dVFbAiSp5HctbCJ9UDAo878tnuiSWgdSt5z19xY8TD4UOO
iRLAceVhGxiJwzVwgZUXMA1ZaAsyY8/OArlf+DqkEJVLSE1vh8gSJmeBdgay1IEV
JdzWEE5wWihTjiJoZXFWEYQx7+tpSDnj3gTJjlqlEwag07N48ySW3aHtINMd7d0Y
BZunCcWWtcXMfbKxQOzYRNitxuhxdY01YKmspyMErgVzKCdXEahi7SHcK7EoZoMJ
JFpJCGSMEJgU/O1FfpqHuR/OLg4XvFduPZnJA+jqY/yaDoSyu4Iam3ehQ40MdzHI
r+HAda8dAUuu1aAh85YM7v0atI7mDY8OJdy2T1jyLGGAb2SaOzAUFsB744nBZlTX
rMnKNrIBHzpoc2D6XS31TuomDXN5Z6sP48K6QKDLMJwepkg8FzBy3t3q9uc7Y2Lf
5Xn73L3CDjBA5d0cD3Td7P+k9ax3KoUaLgXyhnAqo2otQ8ePVMCBv64tpkiP9/TO
zwDbVpuvRI5hm/gD9E573Rnp4DintZd/p6diMckvjX+0VAVRe14wGEwZSetDDOS9
3CUlm/Jy6DdYfCRFHEU8hYwG/Ff3h3lYAR8EgiCtiVD81U0CAwEAAaBuMGwGCSqG
SIb3DQEJDjFfMF0wCQYDVR0TBAIwADAOBgNVHQ8BAf8EBAMCAQYwQAYDVR0RBDkw
N4YhdXJuOmJjOTZkNzNmYjNiNjpOb2RlT1BDVUEtQ2xpZW50ggxiYzk2ZDczZmIz
YjaHBH8AAAEwDQYJKoZIhvcNAQELBQADggIBAAX/dyhZMMyYQu27UhdNCvW1F5Az
FbbVqsK69o+k5n+hVAiSlQNPvoCXNNMQwHq6PrzdQAxRax3xEEC+hfTO/rTzoIN2
hohcjqkf01x+zhhQVrd0DoIRELnzbEG5mXkdlFH/KvG+Wxw31iIx3jnaCJXauFjW
adSL2f106Quo1eiyobWCydDW28kzdU2ON5R8TV/xBtok3wWZs78iNh2rok+m4pII
gtDAEjUbWxxBNKDHKRKvM+r9wyJ3XuNSZ8K2Itvch1x38IDxVsji0SSIMuUDbDZm
brVJ27sRGbv0j27mHQCyaMfmOUzqZFGKaV0C7XVuAQucHsk0HiUSjryxbGJPKUls
cvmbnhe5RO5WJqRTBuIwTrjbBnYrxslW/D8ICN0sEYRyrt+v2NYKnmzAqbKsB9W+
W1Z2o8zHzwPRz6cXU626colaCM9APuMTkDusUVw+N+b5EJPKg3MxZMcCWKd4R7w7
MSNlOQJbrdT/LOvRDeWB3fpExkRkmiNymX73cHepGjMD2kDCjWACzNq1kbDYdXi3
IWlr1zJayufqv+rGv8QoFSHMlFcpYq2dLfKcy8NkcHa5FWZnikjkx8Q0Rbz8J2Wk
sOV8lMFwUKozACVhgDt/P+9qkarEcC01T+x2zEgyitHUBP4jDl8WUPuxf7rsmzSo
HgqDoNBjqUmeqn98
-----END CERTIFICATE REQUEST-----
