Certificate Request:
    Data:
        Version: 1 (0x0)
        Subject: C = FR, O = NodeOPCUA, CN = NodeOPCUA
        Subject Public Key Info:
            Public Key Algorithm: rsaEncryption
                RSA Public-Key: (3072 bit)
                Modulus:
                    00:e3:ca:25:c7:8a:15:b5:1d:05:1e:5c:89:f4:03:
                    95:39:76:ec:68:ba:64:e8:6b:67:b5:89:d4:29:1f:
                    78:ba:dc:69:df:75:12:3d:2b:56:58:8c:29:9d:07:
                    2c:20:60:33:f0:1d:a8:25:ec:c7:7d:c6:fe:1c:c4:
                    b8:ff:b2:88:23:98:96:5c:4a:ae:64:e6:94:44:31:
                    9c:e1:6d:e0:bd:ed:2e:38:43:f0:d3:f2:87:fd:c3:
                    8b:d2:f6:23:6f:e7:b5:a2:d9:15:80:cd:6e:2a:47:
                    40:48:93:fb:01:b2:29:a6:4d:b5:62:fe:9c:53:f0:
                    27:f6:39:86:83:d4:1b:12:f3:f7:d1:69:bd:49:d1:
                    c8:21:56:1a:28:a6:89:72:f2:f1:f7:d1:57:71:53:
                    42:e4:c0:72:d8:ab:2b:a2:71:a7:23:b8:ce:87:ee:
                    4a:f4:eb:a3:71:d3:46:5c:a5:ca:22:ab:39:3d:9a:
                    16:f5:c5:31:46:82:e1:07:6e:7e:fd:bf:32:f4:ba:
                    8f:7d:07:af:09:48:53:1e:ef:7d:16:ba:1c:ea:7c:
                    69:09:87:5c:44:23:81:9c:de:f4:d7:5e:80:09:14:
                    e2:11:a8:d2:9c:13:e9:ff:73:8b:6c:1e:c8:0a:af:
                    10:32:bc:24:5c:dd:06:b8:b6:c2:b2:2d:f4:e5:45:
                    25:ad:0f:3a:43:5f:90:04:0c:48:33:9a:ae:6f:db:
                    c5:1a:da:b4:5f:48:38:cc:4b:0c:28:4a:2b:c1:a4:
                    41:27:17:b3:c5:24:c2:3b:34:09:0b:d8:9b:aa:04:
                    d2:73:c2:64:37:f1:60:76:aa:65:6d:59:59:d2:5c:
                    9a:a5:1b:cf:7f:7b:1b:ec:4a:d7:04:4e:5d:1e:d8:
                    e3:f3:df:44:14:94:99:67:cd:ab:8b:16:52:7e:19:
                    3a:8f:75:dd:e7:e5:2f:6b:a3:de:74:bd:4b:6f:13:
                    d4:9c:54:5d:40:83:4e:3f:7a:53:a0:4c:ce:0f:84:
                    69:f1:46:0a:c8:2f:3a:80:18:37
                Exponent: 65537 (0x10001)
        Attributes:
        Requested Extensions:
            X509v3 Basic Constraints: 
                CA:FALSE
            X509v3 Key Usage: critical
                Certificate Sign, CRL Sign
            X509v3 Subject Alternative Name: 
                URI:urn:bc96d73fb3b6:NodeOPCUA-ClientRevoked, DNS:bc96d73fb3b6, IP Address:127.0.0.1
    Signature Algorithm: sha256WithRSAEncryption
         c9:42:b3:c0:1c:18:4b:e0:c1:0e:da:27:96:ab:a9:3e:63:75:
         a9:92:b2:75:71:64:ae:01:ff:3f:95:6a:5c:41:d4:e9:6d:95:
         e3:de:6c:27:80:62:7a:15:98:08:5b:54:a1:62:20:fc:c7:05:
         97:82:bc:bb:30:27:77:fd:9e:2d:19:51:a3:2f:85:c3:e3:ef:
         ec:43:a8:cd:27:4f:41:c9:d1:8f:a7:8c:b2:5e:ab:ba:67:e5:
         a0:cc:14:4e:28:a4:3b:4b:84:02:4d:de:29:44:88:3f:ff:2f:
         f1:85:ea:c9:d0:fb:46:89:a7:0c:a7:df:50:7e:6a:35:b9:24:
         b8:d3:fa:83:15:7d:4e:5f:d5:07:ff:3d:12:a0:28:f7:7c:ea:
         d3:88:dd:95:61:0e:15:7c:95:82:60:13:fb:70:f2:2f:df:22:
         1c:4a:d8:85:e9:84:d3:d5:fe:dc:28:a2:3b:a4:e2:f3:d2:04:
         d0:f5:51:01:ee:26:71:f5:07:66:b1:9d:84:44:77:d3:0e:6f:
         ad:2b:e3:9a:b9:18:13:d1:66:94:b7:d6:22:fd:2c:8e:cf:34:
         46:21:ea:a9:f0:a7:bb:ce:43:f9:bb:01:72:b8:98:67:db:ac:
         03:78:38:c1:93:6e:0c:23:29:14:69:ad:8c:dd:9f:9b:58:67:
         9a:0a:34:a9:76:d9:98:84:d7:11:97:b9:e5:0d:44:e7:3e:27:
         5c:6b:46:80:76:f2:d6:66:af:97:68:55:d1:eb:84:b5:01:90:
         64:f4:02:1a:09:50:d2:bd:14:cb:b0:13:4c:9c:4b:52:59:d6:
         f4:68:1c:90:b6:b2:f0:05:de:2d:e2:3d:15:4b:c2:62:0a:08:
         4d:b3:aa:a8:3d:6e:25:65:62:6a:16:93:fa:e7:e8:1c:33:a4:
         c1:53:8d:2e:ed:54:ee:0f:38:77:8c:21:19:6a:d9:b5:fb:fd:
         30:ed:88:82:f4:45:37:7b:6d:e0:c1:ee:42:8f:5f:2d:04:77:
         08:f8:12:97:9e:9d
-----BEGIN CERTIFICATE REQUEST-----
MIID7zCCAlcCAQAwNTELMAkGA1UEBhMCRlIxEjAQBgNVBAoMCU5vZGVPUENVQTES
MBAGA1UEAwwJTm9kZU9QQ1VBMIIBojANBgkqhkiG9w0BAQEFAAOCAY8AMIIBigKC
AYEA48olx4oVtR0FHlyJ9AOVOXbsaLpk6GtntYnUKR94utxp33USPStWWIwpnQcs
IGAz8B2oJezHfcb+HMS4/7KII5iWXEquZOaURDGc4W3gve0uOEPw0/KH/cOL0vYj
b+e1otkVgM1uKkdASJP7AbIppk21Yv6cU/An9jmGg9QbEvP30Wm9SdHIIVYaKKaJ
cvLx99FXcVNC5MBy2KsronGnI7jOh+5K9OujcdNGXKXKIqs5PZoW9cUxRoLhB25+
/b8y9LqPfQevCUhTHu99Froc6nxpCYdcRCOBnN70116ACRTiEajSnBPp/3OLbB7I
Cq8QMrwkXN0GuLbCsi305UUlrQ86Q1+QBAxIM5qub9vFGtq0X0g4zEsMKEorwaRB
JxezxSTCOzQJC9ibqgTSc8JkN/FgdqplbVlZ0lyapRvPf3sb7ErXBE5dHtjj899E
FJSZZ82rixZSfhk6j3Xd5+Uva6PedL1LbxPUnFRdQINOP3pToEzOD4Rp8UYKyC86
gBg3AgMBAAGgdTBzBgkqhkiG9w0BCQ4xZjBkMAkGA1UdEwQCMAAwDgYDVR0PAQH/
BAQDAgEGMEcGA1UdEQRAMD6GKHVybjpiYzk2ZDczZmIzYjY6Tm9kZU9QQ1VBLUNs
aWVudFJldm9rZWSCDGJjOTZkNzNmYjNiNocEfwAAATANBgkqhkiG9w0BAQsFAAOC
AYEAyUKzwBwYS+DBDtonlqupPmN1qZKydXFkrgH/P5VqXEHU6W2V495sJ4BiehWY
CFtUoWIg/McFl4K8uzAnd/2eLRlRoy+Fw+Pv7EOozSdPQcnRj6eMsl6rumfloMwU
TiikO0uEAk3eKUSIP/8v8YXqydD7RomnDKffUH5qNbkkuNP6gxV9Tl/VB/89EqAo
93zq04jdlWEOFXyVgmAT+3DyL98iHErYhemE09X+3CiiO6Ti89IE0PVRAe4mcfUH
ZrGdhER30w5vrSvjmrkYE9FmlLfWIv0sjs80RiHqqfCnu85D+bsBcriYZ9usA3g4
wZNuDCMpFGmtjN2fm1hnmgo0qXbZmITXEZe55Q1E5z4nXGtGgHby1mavl2hV0euE
tQGQZPQCGglQ0r0Uy7ATTJxLUlnW9GgckLay8AXeLeI9FUvCYgoITbOqqD1uJWVi
ahaT+ufoHDOkwVONLu1U7g84d4whGWrZtfv9MO2IgvRFN3tt4MHuQo9fLQR3CPgS
l56d
-----END CERTIFICATE REQUEST-----
