Certificate Request:
    Data:
        Version: 1 (0x0)
        Subject: C = FR, O = NodeOPCUA, CN = NodeOPCUA
        Subject Public Key Info:
            Public Key Algorithm: rsaEncryption
                RSA Public-Key: (2048 bit)
                Modulus:
                    00:aa:d5:b4:bd:0a:9c:30:28:a6:5f:ac:78:a4:ee:
                    f3:9f:d5:2b:1c:3e:4c:4f:93:a6:ef:07:4e:b5:cd:
                    13:a1:d2:4b:0b:5c:f2:0b:b5:05:b9:34:b5:86:ee:
                    21:e3:b2:f5:67:07:71:7c:f5:8e:34:e4:dd:30:87:
                    40:e9:3b:1c:3b:6a:d9:7e:d1:47:e1:43:87:e9:0c:
                    2d:2a:fe:db:86:ba:27:91:9b:05:ff:3e:ce:37:7e:
                    7e:f8:11:97:2c:f4:77:3a:b6:76:58:a4:7c:9c:23:
                    b6:ad:ed:61:dd:3c:c5:96:28:24:dc:19:8a:a4:ac:
                    03:f3:23:a2:c8:2e:99:0b:49:b4:69:9b:a8:64:ab:
                    bc:62:eb:88:45:90:6e:af:f0:b1:ae:d0:4b:52:df:
                    62:31:57:03:10:f5:12:87:1b:25:5a:df:c4:22:9e:
                    a2:6a:f5:f1:10:5c:7a:64:27:d6:be:7e:9f:d2:c8:
                    71:e8:77:80:f8:e4:b4:77:66:6d:ac:0d:fb:fa:49:
                    ac:f0:ea:67:08:75:a6:53:90:bc:6a:44:74:1d:85:
                    21:38:df:97:93:09:a5:d7:9c:7a:7a:79:ae:d9:61:
                    18:e2:72:98:24:1a:c8:f0:53:6e:6f:24:aa:0b:96:
                    37:50:9b:8e:30:68:26:1c:c9:c9:79:0f:8c:2b:1e:
                    ba:63
                Exponent: 65537 (0x10001)
        Attributes:
        Requested Extensions:
            X509v3 Basic Constraints: 
                CA:FALSE
            X509v3 Key Usage: critical
                Certificate Sign, CRL Sign
            X509v3 Subject Alternative Name: 
                URI:urn:bc96d73fb3b6:NodeOPCUA-ClientRevoked, DNS:bc96d73fb3b6, IP Address:127.0.0.1
    Signature Algorithm: sha256WithRSAEncryption
         0e:bb:da:aa:f7:f2:ac:4b:b3:47:2f:c3:3f:e8:db:e2:e8:f4:
         cf:a8:8d:5a:a1:fa:6d:2b:47:f9:4d:c2:97:b9:75:b1:21:e9:
         05:8b:11:45:c6:dd:e4:ca:20:dd:8c:df:55:23:24:43:b0:4c:
         75:10:aa:ec:8b:5c:1c:62:ea:97:d4:15:67:2e:20:e5:00:22:
         6b:74:4b:7b:9f:8e:36:d6:25:d7:f0:18:f6:ac:50:d7:41:5a:
         01:70:52:40:20:9e:74:bb:c6:75:7f:a5:19:a4:a2:a0:ad:92:
         47:28:d9:d6:6e:5b:54:0a:45:68:26:4f:b3:f7:54:6d:e9:41:
         c2:29:57:ee:5b:92:10:de:dc:36:06:77:b3:a9:0d:40:e3:87:
         73:24:89:a4:34:6c:26:8f:ad:34:fc:6c:14:91:d4:d9:e7:ab:
         00:aa:38:5e:5d:b2:33:53:c7:b6:b6:92:5f:5f:fb:0b:3e:b6:
         4a:0f:e9:07:80:64:cc:29:fd:51:d3:c8:d1:bb:97:cb:f3:67:
         ba:47:44:f0:0f:bd:b0:d6:98:53:19:e9:7d:e4:e1:a4:01:a8:
         e8:93:aa:29:dc:c5:29:be:12:8c:8b:d4:60:d8:d0:0a:8f:b8:
         22:f1:2a:d3:d4:63:7b:c0:26:14:e5:c3:5d:94:34:73:c8:52:
         74:e1:fb:4e
-----BEGIN CERTIFICATE REQUEST-----
MIIC7zCCAdcCAQAwNTELMAkGA1UEBhMCRlIxEjAQBgNVBAoMCU5vZGVPUENVQTES
MBAGA1UEAwwJTm9kZU9QQ1VBMIIBIjANBgkqhkiG9w0BAQEFAAOCAQ8AMIIBCgKC
AQEAqtW0vQqcMCimX6x4pO7zn9UrHD5MT5Om7wdOtc0TodJLC1zyC7UFuTS1hu4h
47L1ZwdxfPWONOTdMIdA6TscO2rZftFH4UOH6QwtKv7bhronkZsF/z7ON35++BGX
LPR3OrZ2WKR8nCO2re1h3TzFligk3BmKpKwD8yOiyC6ZC0m0aZuoZKu8YuuIRZBu
r/CxrtBLUt9iMVcDEPUShxslWt/EIp6iavXxEFx6ZCfWvn6f0shx6HeA+OS0d2Zt
rA37+kms8OpnCHWmU5C8akR0HYUhON+Xkwml15x6enmu2WEY4nKYJBrI8FNubySq
C5Y3UJuOMGgmHMnJeQ+MKx66YwIDAQABoHUwcwYJKoZIhvcNAQkOMWYwZDAJBgNV
HRMEAjAAMA4GA1UdDwEB/wQEAwIBBjBHBgNVHREEQDA+hih1cm46YmM5NmQ3M2Zi
M2I2Ok5vZGVPUENVQS1DbGllbnRSZXZva2VkggxiYzk2ZDczZmIzYjaHBH8AAAEw
DQYJKoZIhvcNAQELBQADggEBAA672qr38qxLs0cvwz/o2+Lo9M+ojVqh+m0rR/lN
wpe5dbEh6QWLEUXG3eTKIN2M31UjJEOwTHUQquyLXBxi6pfUFWcuIOUAImt0S3uf
jjbWJdfwGPasUNdBWgFwUkAgnnS7xnV/pRmkoqCtkkco2dZuW1QKRWgmT7P3VG3p
QcIpV+5bkhDe3DYGd7OpDUDjh3MkiaQ0bCaPrTT8bBSR1NnnqwCqOF5dsjNTx7a2
kl9f+ws+tkoP6QeAZMwp/VHTyNG7l8vzZ7pHRPAPvbDWmFMZ6X3k4aQBqOiTqinc
xSm+EoyL1GDY0AqPuCLxKtPUY3vAJhTlw12UNHPIUnTh+04=
-----END CERTIFICATE REQUEST-----
