Certificate:
    Data:
        Version: 3 (0x2)
        Serial Number: 4102 (0x1006)
        Signature Algorithm: sha256WithRSAEncryption
        Issuer: O=NodeOPCUA, CN=NodeOPCUA
        Validity
            Not Before: Oct  9 00:24:20 2022 GMT
            Not After : Oct  9 00:24:20 2023 GMT
        Subject: O=NodeOPCUA, CN=NodeOPCUA
        Subject Public Key Info:
            Public Key Algorithm: rsaEncryption
                RSA Public-Key: (2048 bit)
                Modulus:
                    00:aa:d5:b4:bd:0a:9c:30:28:a6:5f:ac:78:a4:ee:
                    f3:9f:d5:2b:1c:3e:4c:4f:93:a6:ef:07:4e:b5:cd:
                    13:a1:d2:4b:0b:5c:f2:0b:b5:05:b9:34:b5:86:ee:
                    21:e3:b2:f5:67:07:71:7c:f5:8e:34:e4:dd:30:87:
                    40:e9:3b:1c:3b:6a:d9:7e:d1:47:e1:43:87:e9:0c:
                    2d:2a:fe:db:86:ba:27:91:9b:05:ff:3e:ce:37:7e:
                    7e:f8:11:97:2c:f4:77:3a:b6:76:58:a4:7c:9c:23:
                    b6:ad:ed:61:dd:3c:c5:96:28:24:dc:19:8a:a4:ac:
                    03:f3:23:a2:c8:2e:99:0b:49:b4:69:9b:a8:64:ab:
                    bc:62:eb:88:45:90:6e:af:f0:b1:ae:d0:4b:52:df:
                    62:31:57:03:10:f5:12:87:1b:25:5a:df:c4:22:9e:
                    a2:6a:f5:f1:10:5c:7a:64:27:d6:be:7e:9f:d2:c8:
                    71:e8:77:80:f8:e4:b4:77:66:6d:ac:0d:fb:fa:49:
                    ac:f0:ea:67:08:75:a6:53:90:bc:6a:44:74:1d:85:
                    21:38:df:97:93:09:a5:d7:9c:7a:7a:79:ae:d9:61:
                    18:e2:72:98:24:1a:c8:f0:53:6e:6f:24:aa:0b:96:
                    37:50:9b:8e:30:68:26:1c:c9:c9:79:0f:8c:2b:1e:
                    ba:63
                Exponent: 65537 (0x10001)
        X509v3 extensions:
            X509v3 Basic Constraints: critical
                CA:FALSE
            X509v3 Subject Key Identifier: 
                88:CF:14:23:78:9A:59:65:33:74:94:66:0D:95:63:57:79:17:BA:BA
            X509v3 Authority Key Identifier: 
                keyid:88:CF:14:23:78:9A:59:65:33:74:94:66:0D:95:63:57:79:17:BA:BA
                DirName:/O=NodeOPCUA/CN=NodeOPCUA
                serial:10:06

            X509v3 Subject Alternative Name: 
                URI:urn:bc96d73fb3b6:NodeOPCUA-Client, DNS:bc96d73fb3b6
            Netscape Comment: 
                OpenSSL Generated Certificate
            X509v3 Key Usage: critical
                Digital Signature, Non Repudiation, Key Encipherment, Data Encipherment, Key Agreement, Certificate Sign
            X509v3 Extended Key Usage: critical
                TLS Web Server Authentication, TLS Web Client Authentication
    Signature Algorithm: sha256WithRSAEncryption
         7c:35:b2:2f:e4:23:3b:6e:9a:08:1f:63:83:ab:6d:4f:47:07:
         da:2f:2f:f8:63:2f:83:d0:2c:b0:f0:75:d8:6e:ff:ac:e2:52:
         f7:0a:8a:53:a4:a6:68:3b:73:2d:e9:b7:31:99:3a:28:5c:d8:
         f1:25:fd:fe:2a:e5:f3:81:2a:4d:96:63:b6:da:53:cf:b4:8c:
         cb:5f:1b:86:18:aa:2e:d4:ba:4c:6c:40:22:43:a9:1e:29:84:
         e4:4b:e4:f6:b6:46:57:7d:c5:e5:46:6b:37:1b:9b:3d:a7:73:
         b8:1f:f0:7d:50:69:16:5d:92:74:db:7e:bb:28:e6:4f:0a:9e:
         1b:d8:21:6f:54:f4:69:fe:2d:13:35:0a:9c:4a:cf:b2:34:6d:
         dc:46:9c:dd:e3:0d:de:5e:d5:e8:e3:65:da:b9:89:ff:3a:c2:
         cf:f3:6f:09:39:a0:76:09:9c:d8:8e:bc:db:52:9a:6f:9b:d1:
         1a:cd:9f:7b:f6:b8:ff:f5:a1:85:3f:4a:bb:f0:8f:61:40:2f:
         7f:70:6a:c0:1f:bd:6a:d8:99:7a:ac:ba:a3:4a:0d:22:d2:ef:
         c9:f1:30:b9:60:fd:de:b5:b3:b6:22:f8:36:4a:28:1d:ed:2a:
         0a:0a:60:dd:de:71:d8:6b:93:26:5f:a6:5f:8b:0e:3b:bc:78:
         90:a3:33:71
-----BEGIN CERTIFICATE-----
MIID7jCCAtagAwIBAgICEAYwDQYJKoZIhvcNAQELBQAwKDESMBAGA1UEChMJTm9k
ZU9QQ1VBMRIwEAYDVQQDEwlOb2RlT1BDVUEwHhcNMjIxMDA5MDAyNDIwWhcNMjMx
MDA5MDAyNDIwWjAoMRIwEAYDVQQKEwlOb2RlT1BDVUExEjAQBgNVBAMTCU5vZGVP
UENVQTCCASIwDQYJKoZIhvcNAQEBBQADggEPADCCAQoCggEBAKrVtL0KnDAopl+s
eKTu85/VKxw+TE+Tpu8HTrXNE6HSSwtc8gu1Bbk0tYbuIeOy9WcHcXz1jjTk3TCH
QOk7HDtq2X7RR+FDh+kMLSr+24a6J5GbBf8+zjd+fvgRlyz0dzq2dlikfJwjtq3t
Yd08xZYoJNwZiqSsA/MjosgumQtJtGmbqGSrvGLriEWQbq/wsa7QS1LfYjFXAxD1
EocbJVrfxCKeomr18RBcemQn1r5+n9LIceh3gPjktHdmbawN+/pJrPDqZwh1plOQ
vGpEdB2FITjfl5MJpdecenp5rtlhGOJymCQayPBTbm8kqguWN1CbjjBoJhzJyXkP
jCseumMCAwEAAaOCASAwggEcMAwGA1UdEwEB/wQCMAAwHQYDVR0OBBYEFIjPFCN4
mlllM3SUZg2VY1d5F7q6MFEGA1UdIwRKMEiAFIjPFCN4mlllM3SUZg2VY1d5F7q6
oSykKjAoMRIwEAYDVQQKEwlOb2RlT1BDVUExEjAQBgNVBAMTCU5vZGVPUENVQYIC
EAYwOgYDVR0RBDMwMYYhdXJuOmJjOTZkNzNmYjNiNjpOb2RlT1BDVUEtQ2xpZW50
ggxiYzk2ZDczZmIzYjYwLAYJYIZIAYb4QgENBB8WHU9wZW5TU0wgR2VuZXJhdGVk
IENlcnRpZmljYXRlMA4GA1UdDwEB/wQEAwIC/DAgBgNVHSUBAf8EFjAUBggrBgEF
BQcDAQYIKwYBBQUHAwIwDQYJKoZIhvcNAQELBQADggEBAHw1si/kIztumggfY4Or
bU9HB9ovL/hjL4PQLLDwddhu/6ziUvcKilOkpmg7cy3ptzGZOihc2PEl/f4q5fOB
Kk2WY7baU8+0jMtfG4YYqi7UukxsQCJDqR4phORL5Pa2Rld9xeVGazcbmz2nc7gf
8H1QaRZdknTbfrso5k8KnhvYIW9U9Gn+LRM1CpxKz7I0bdxGnN3jDd5e1ejjZdq5
if86ws/zbwk5oHYJnNiOvNtSmm+b0RrNn3v2uP/1oYU/Srvwj2FAL39wasAfvWrY
mXqsuqNKDSLS78nxMLlg/d61s7Yi+DZKKB3tKgoKYN3ecdhrkyZfpl+LDju8eJCj
M3E=
-----END CERTIFICATE-----
