Certificate:
    Data:
        Version: 3 (0x2)
        Serial Number: 4112 (0x1010)
        Signature Algorithm: sha256WithRSAEncryption
        Issuer: O=NodeOPCUA, CN=NodeOPCUA
        Validity
            Not Before: Oct  9 00:24:20 2022 GMT
            Not After : Oct  9 00:24:20 2023 GMT
        Subject: O=NodeOPCUA, CN=NodeOPCUA
        Subject Public Key Info:
            Public Key Algorithm: rsaEncryption
                RSA Public-Key: (4096 bit)
                Modulus:
                    00:e7:d8:c4:48:74:b6:05:c6:05:90:d8:71:d9:a5:
                    b3:da:fd:3e:b9:eb:c5:3d:73:3d:5c:3b:88:46:aa:
                    e5:c7:9c:d4:02:b2:1f:d5:40:d1:7e:44:9b:63:70:
                    60:8e:9b:82:70:51:85:f8:51:4e:44:67:ea:af:57:
                    55:15:b0:22:4a:9e:47:72:d6:c2:27:d5:03:02:8f:
                    3b:f2:d9:ee:89:25:a0:75:2b:79:cf:5f:71:63:c4:
                    c3:e1:43:8e:89:12:c0:71:e5:61:1b:18:89:c3:35:
                    70:81:95:17:30:0d:59:68:0b:32:63:cf:ce:02:b9:
                    5f:f8:3a:a4:10:95:4b:48:4d:6f:87:c8:12:26:67:
                    81:76:06:b2:d4:81:15:25:dc:d6:10:4e:70:5a:28:
                    53:8e:22:68:65:71:56:11:84:31:ef:eb:69:48:39:
                    e3:de:04:c9:8e:5a:a5:13:06:a0:d3:b3:78:f3:24:
                    96:dd:a1:ed:20:d3:1d:ed:dd:18:05:9b:a7:09:c5:
                    96:b5:c5:cc:7d:b2:b1:40:ec:d8:44:d8:ad:c6:e8:
                    71:75:8d:35:60:a9:ac:a7:23:04:ae:05:73:28:27:
                    57:11:a8:62:ed:21:dc:2b:b1:28:66:83:09:24:5a:
                    49:08:64:8c:10:98:14:fc:ed:45:7e:9a:87:b9:1f:
                    ce:2e:0e:17:bc:57:6e:3d:99:c9:03:e8:ea:63:fc:
                    9a:0e:84:b2:bb:82:1a:9b:77:a1:43:8d:0c:77:31:
                    c8:af:e1:c0:75:af:1d:01:4b:ae:d5:a0:21:f3:96:
                    0c:ee:fd:1a:b4:8e:e6:0d:8f:0e:25:dc:b6:4f:58:
                    f2:2c:61:80:6f:64:9a:3b:30:14:16:c0:7b:e3:89:
                    c1:66:54:d7:ac:c9:ca:36:b2:01:1f:3a:68:73:60:
                    fa:5d:2d:f5:4e:ea:26:0d:73:79:67:ab:0f:e3:c2:
                    ba:40:a0:cb:30:9c:1e:a6:48:3c:17:30:72:de:dd:
                    ea:f6:e7:3b:63:62:df:e5:79:fb:dc:bd:c2:0e:30:
                    40:e5:dd:1c:0f:74:dd:ec:ff:a4:f5:ac:77:2a:85:
                    1a:2e:05:f2:86:70:2a:a3:6a:2d:43:c7:8f:54:c0:
                    81:bf:ae:2d:a6:48:8f:f7:f4:ce:cf:00:db:56:9b:
                    af:44:8e:61:9b:f8:03:f4:4e:7b:dd:19:e9:e0:38:
                    a7:b5:97:7f:a7:a7:62:31:c9:2f:8d:7f:b4:54:05:
                    51:7b:5e:30:18:4c:19:49:eb:43:0c:e4:bd:dc:25:
                    25:9b:f2:72:e8:37:58:7c:24:45:1c:45:3c:85:8c:
                    06:fc:57:f7:87:79:58:01:1f:04:82:20:ad:89:50:
                    fc:d5:4d
                Exponent: 65537 (0x10001)
        X509v3 extensions:
            X509v3 Basic Constraints: critical
                CA:FALSE
            X509v3 Subject Key Identifier: 
                F0:61:72:79:72:FA:2B:11:FF:46:9E:D2:65:1F:90:EF:50:F1:15:8E
            X509v3 Authority Key Identifier: 
                keyid:F0:61:72:79:72:FA:2B:11:FF:46:9E:D2:65:1F:90:EF:50:F1:15:8E
                DirName:/O=NodeOPCUA/CN=NodeOPCUA
                serial:10:10

            X509v3 Subject Alternative Name: 
                URI:urn:bc96d73fb3b6:NodeOPCUA-Client, DNS:bc96d73fb3b6
            Netscape Comment: 
                OpenSSL Generated Certificate
            X509v3 Key Usage: critical
                Digital Signature, Non Repudiation, Key Encipherment, Data Encipherment, Key Agreement, Certificate Sign
            X509v3 Extended Key Usage: critical
                TLS Web Server Authentication, TLS Web Client Authentication
    Signature Algorithm: sha256WithRSAEncryption
         73:01:32:5c:a4:22:ed:68:5f:c5:ba:d5:85:04:70:c4:a2:e9:
         39:2b:f8:96:1e:a4:28:95:33:c0:f2:c9:bd:ec:6f:72:17:a4:
         2e:ee:22:d8:7f:84:58:c3:c3:d4:3f:56:13:7f:d3:72:07:bc:
         a0:b6:84:a8:5f:a0:34:f7:0c:45:92:b8:f4:ca:ae:6b:69:89:
         41:b9:ef:32:35:ee:22:da:62:cf:ee:d5:87:af:1d:ef:6a:c4:
         c8:a6:07:2a:24:b3:29:bc:dd:b9:d0:1d:c9:ce:71:b4:54:9b:
         8f:7b:c1:4a:a7:11:1b:08:e8:e1:69:ff:2a:81:a0:20:bf:f4:
         59:5a:ca:a4:62:b6:fd:b0:fb:68:4a:50:35:59:c5:29:50:51:
         ba:86:de:e6:06:d1:02:26:30:ef:3c:92:9a:ff:77:e0:80:69:
         a5:81:8e:c8:28:ef:22:93:a2:d6:d6:68:b5:4e:f4:3d:19:3f:
         94:cd:dd:18:e7:d6:0a:cd:fc:a7:ff:79:3f:1d:e8:92:2f:6f:
         a4:53:20:06:63:49:3d:55:2d:28:05:f6:0c:58:12:71:4f:00:
         be:b0:cf:2f:9f:2c:75:22:0c:bf:2d:97:64:e9:c8:a6:55:a9:
         67:47:0c:27:49:5e:d1:75:8c:fb:0e:f9:d4:40:51:51:41:94:
         39:ff:79:1b:92:0e:4d:b1:19:76:73:16:cf:61:b1:d5:5c:7b:
         26:68:61:d7:07:91:08:dd:9f:7f:46:dd:b9:7c:aa:c5:15:7a:
         9b:04:2a:15:00:2b:a2:82:60:5d:7b:67:57:69:57:5b:c9:98:
         d4:3d:c9:f0:6d:60:cb:3c:d0:71:96:55:af:e8:c5:b9:98:c7:
         08:e0:17:ad:a5:0f:d7:0a:5d:fc:44:03:3c:8d:1e:c5:9b:4b:
         a9:32:98:3d:f1:3f:c5:13:ea:76:e8:48:e3:b1:64:63:0a:40:
         a0:bb:fc:73:4a:be:73:a6:0e:a5:76:af:b9:99:36:4a:2f:a6:
         93:af:56:d6:d2:b7:85:a7:9e:30:39:c5:34:1e:c1:1a:19:30:
         79:70:30:81:2a:31:66:1d:71:e6:c1:1b:c3:db:84:94:7e:11:
         eb:1c:ad:75:3e:1b:5c:53:80:bb:17:b9:81:20:ea:7e:2e:cc:
         3c:94:53:c6:2e:5a:ac:e1:a4:13:42:82:e4:16:32:4f:3e:8b:
         d7:9e:1a:02:ec:07:b1:2c:f0:0e:31:d3:78:5c:c8:7e:93:76:
         85:34:37:50:73:62:b7:6b:28:9f:2e:bd:e0:3d:d5:2d:81:a3:
         93:65:4e:4c:70:f3:b5:e3:10:bf:bf:d7:cb:a7:4a:6a:9b:69:
         4e:13:63:2a:10:25:4d:67
-----BEGIN CERTIFICATE-----
MIIF7jCCA9agAwIBAgICEBAwDQYJKoZIhvcNAQELBQAwKDESMBAGA1UEChMJTm9k
ZU9QQ1VBMRIwEAYDVQQDEwlOb2RlT1BDVUEwHhcNMjIxMDA5MDAyNDIwWhcNMjMx
MDA5MDAyNDIwWjAoMRIwEAYDVQQKEwlOb2RlT1BDVUExEjAQBgNVBAMTCU5vZGVP
UENVQTCCAiIwDQYJKoZIhvcNAQEBBQADggIPADCCAgoCggIBAOfYxEh0tgXGBZDY
cdmls9r9PrnrxT1zPVw7iEaq5cec1AKyH9VA0X5Em2NwYI6bgnBRhfhRTkRn6q9X
VRWwIkqeR3LWwifVAwKPO/LZ7okloHUrec9fcWPEw+FDjokSwHHlYRsYicM1cIGV
FzANWWgLMmPPzgK5X/g6pBCVS0hNb4fIEiZngXYGstSBFSXc1hBOcFooU44iaGVx
VhGEMe/raUg5494EyY5apRMGoNOzePMklt2h7SDTHe3dGAWbpwnFlrXFzH2ysUDs
2ETYrcbocXWNNWCprKcjBK4FcygnVxGoYu0h3CuxKGaDCSRaSQhkjBCYFPztRX6a
h7kfzi4OF7xXbj2ZyQPo6mP8mg6EsruCGpt3oUONDHcxyK/hwHWvHQFLrtWgIfOW
DO79GrSO5g2PDiXctk9Y8ixhgG9kmjswFBbAe+OJwWZU16zJyjayAR86aHNg+l0t
9U7qJg1zeWerD+PCukCgyzCcHqZIPBcwct7d6vbnO2Ni3+V5+9y9wg4wQOXdHA90
3ez/pPWsdyqFGi4F8oZwKqNqLUPHj1TAgb+uLaZIj/f0zs8A21abr0SOYZv4A/RO
e90Z6eA4p7WXf6enYjHJL41/tFQFUXteMBhMGUnrQwzkvdwlJZvycug3WHwkRRxF
PIWMBvxX94d5WAEfBIIgrYlQ/NVNAgMBAAGjggEgMIIBHDAMBgNVHRMBAf8EAjAA
MB0GA1UdDgQWBBTwYXJ5cvorEf9GntJlH5DvUPEVjjBRBgNVHSMESjBIgBTwYXJ5
cvorEf9GntJlH5DvUPEVjqEspCowKDESMBAGA1UEChMJTm9kZU9QQ1VBMRIwEAYD
VQQDEwlOb2RlT1BDVUGCAhAQMDoGA1UdEQQzMDGGIXVybjpiYzk2ZDczZmIzYjY6
Tm9kZU9QQ1VBLUNsaWVudIIMYmM5NmQ3M2ZiM2I2MCwGCWCGSAGG+EIBDQQfFh1P
cGVuU1NMIEdlbmVyYXRlZCBDZXJ0aWZpY2F0ZTAOBgNVHQ8BAf8EBAMCAvwwIAYD
VR0lAQH/BBYwFAYIKwYBBQUHAwEGCCsGAQUFBwMCMA0GCSqGSIb3DQEBCwUAA4IC
AQBzATJcpCLtaF/FutWFBHDEouk5K/iWHqQolTPA8sm97G9yF6Qu7iLYf4RYw8PU
P1YTf9NyB7ygtoSoX6A09wxFkrj0yq5raYlBue8yNe4i2mLP7tWHrx3vasTIpgcq
JLMpvN250B3JznG0VJuPe8FKpxEbCOjhaf8qgaAgv/RZWsqkYrb9sPtoSlA1WcUp
UFG6ht7mBtECJjDvPJKa/3fggGmlgY7IKO8ik6LW1mi1TvQ9GT+Uzd0Y59YKzfyn
/3k/HeiSL2+kUyAGY0k9VS0oBfYMWBJxTwC+sM8vnyx1Igy/LZdk6cimValnRwwn
SV7RdYz7DvnUQFFRQZQ5/3kbkg5NsRl2cxbPYbHVXHsmaGHXB5EI3Z9/Rt25fKrF
FXqbBCoVACuigmBde2dXaVdbyZjUPcnwbWDLPNBxllWv6MW5mMcI4BetpQ/XCl38
RAM8jR7Fm0upMpg98T/FE+p26EjjsWRjCkCgu/xzSr5zpg6ldq+5mTZKL6aTr1bW
0reFp54wOcU0HsEaGTB5cDCBKjFmHXHmwRvD24SUfhHrHK11PhtcU4C7F7mBIOp+
Lsw8lFPGLlqs4aQTQoLkFjJPPovXnhoC7AexLPAOMdN4XMh+k3aFNDdQc2K3ayif
Lr3gPdUtgaOTZU5McPO14xC/v9fLp0pqm2lOE2MqECVNZw==
-----END CERTIFICATE-----
