Certificate Request:
    Data:
        Version: 1 (0x0)
        Subject: C = FR, O = NodeOPCUA, CN = NodeOPCUA
        Subject Public Key Info:
            Public Key Algorithm: rsaEncryption
                RSA Public-Key: (1024 bit)
                Modulus:
                    00:d0:b0:46:91:d1:e0:98:68:6b:1f:11:92:d9:12:
                    fe:cc:ec:76:59:98:49:b5:36:99:3c:72:46:d9:08:
                    47:e3:c0:43:cd:05:a9:49:39:79:21:a3:86:d6:bc:
                    81:d9:3c:f1:82:0b:56:90:b3:04:ad:ee:fa:23:83:
                    b6:e5:ff:56:7a:0e:fe:21:26:d7:9a:d3:6f:00:b4:
                    67:7d:f2:55:18:32:f8:88:84:dd:c5:c1:5f:81:e2:
                    1e:59:e2:45:dd:7e:b7:2d:98:ec:83:33:4f:28:3c:
                    a1:b4:74:e4:c1:b0:8e:74:b1:7f:73:9c:b8:75:76:
                    7e:52:18:38:5b:e5:f8:28:2b
                Exponent: 65537 (0x10001)
        Attributes:
        Requested Extensions:
            X509v3 Basic Constraints: 
                CA:FALSE
            X509v3 Key Usage: critical
                Certificate Sign, CRL Sign
            X509v3 Subject Alternative Name: 
                URI:urn:bc96d73fb3b6:NodeOPCUA-ClientRevoked, DNS:bc96d73fb3b6, IP Address:127.0.0.1
    Signature Algorithm: sha256WithRSAEncryption
         02:29:44:65:af:d6:51:b2:30:64:b9:75:53:41:e0:df:6d:10:
         81:7b:da:b7:8a:f7:41:13:6b:7d:ed:24:26:97:35:a4:96:5d:
         23:69:4a:1f:89:bb:1a:39:90:bc:a4:71:25:b8:5a:34:ff:a3:
         d3:5f:94:e0:c6:ad:38:68:15:7a:a0:07:08:c2:1c:7a:98:20:
         f1:fd:fc:2d:4b:62:58:19:69:16:77:c2:da:4c:31:3e:2e:8b:
         5a:1b:2c:4c:91:45:4b:55:9d:40:34:a7:3f:f6:f0:80:da:5f:
         91:97:cf:1c:c0:9b:14:5c:51:0b:4a:92:29:b2:f1:fa:68:c2:
         e9:ed
-----BEGIN CERTIFICATE REQUEST-----
MIIB6jCCAVMCAQAwNTELMAkGA1UEBhMCRlIxEjAQBgNVBAoMCU5vZGVPUENVQTES
MBAGA1UEAwwJTm9kZU9QQ1VBMIGfMA0GCSqGSIb3DQEBAQUAA4GNADCBiQKBgQDQ
sEaR0eCYaGsfEZLZEv7M7HZZmEm1Npk8ckbZCEfjwEPNBalJOXkho4bWvIHZPPGC
C1aQswSt7vojg7bl/1Z6Dv4hJtea028AtGd98lUYMviIhN3FwV+B4h5Z4kXdfrct
mOyDM08oPKG0dOTBsI50sX9znLh1dn5SGDhb5fgoKwIDAQABoHUwcwYJKoZIhvcN
AQkOMWYwZDAJBgNVHRMEAjAAMA4GA1UdDwEB/wQEAwIBBjBHBgNVHREEQDA+hih1
cm46YmM5NmQ3M2ZiM2I2Ok5vZGVPUENVQS1DbGllbnRSZXZva2VkggxiYzk2ZDcz
ZmIzYjaHBH8AAAEwDQYJKoZIhvcNAQELBQADgYEAAilEZa/WUbIwZLl1U0Hg320Q
gXvat4r3QRNrfe0kJpc1pJZdI2lKH4m7GjmQvKRxJbhaNP+j01+U4MatOGgVeqAH
CMIcepgg8f38LUtiWBlpFnfC2kwxPi6LWhssTJFFS1WdQDSnP/bwgNpfkZfPHMCb
FFxRC0qSKbLx+mjC6e0=
-----END CERTIFICATE REQUEST-----
