Certificate Request:
    Data:
        Version: 1 (0x0)
        Subject: C = FR, O = NodeOPCUA, CN = NodeOPCUA
        Subject Public Key Info:
            Public Key Algorithm: rsaEncryption
                RSA Public-Key: (4096 bit)
                Modulus:
                    00:e7:d8:c4:48:74:b6:05:c6:05:90:d8:71:d9:a5:
                    b3:da:fd:3e:b9:eb:c5:3d:73:3d:5c:3b:88:46:aa:
                    e5:c7:9c:d4:02:b2:1f:d5:40:d1:7e:44:9b:63:70:
                    60:8e:9b:82:70:51:85:f8:51:4e:44:67:ea:af:57:
                    55:15:b0:22:4a:9e:47:72:d6:c2:27:d5:03:02:8f:
                    3b:f2:d9:ee:89:25:a0:75:2b:79:cf:5f:71:63:c4:
                    c3:e1:43:8e:89:12:c0:71:e5:61:1b:18:89:c3:35:
                    70:81:95:17:30:0d:59:68:0b:32:63:cf:ce:02:b9:
                    5f:f8:3a:a4:10:95:4b:48:4d:6f:87:c8:12:26:67:
                    81:76:06:b2:d4:81:15:25:dc:d6:10:4e:70:5a:28:
                    53:8e:22:68:65:71:56:11:84:31:ef:eb:69:48:39:
                    e3:de:04:c9:8e:5a:a5:13:06:a0:d3:b3:78:f3:24:
                    96:dd:a1:ed:20:d3:1d:ed:dd:18:05:9b:a7:09:c5:
                    96:b5:c5:cc:7d:b2:b1:40:ec:d8:44:d8:ad:c6:e8:
                    71:75:8d:35:60:a9:ac:a7:23:04:ae:05:73:28:27:
                    57:11:a8:62:ed:21:dc:2b:b1:28:66:83:09:24:5a:
                    49:08:64:8c:10:98:14:fc:ed:45:7e:9a:87:b9:1f:
                    ce:2e:0e:17:bc:57:6e:3d:99:c9:03:e8:ea:63:fc:
                    9a:0e:84:b2:bb:82:1a:9b:77:a1:43:8d:0c:77:31:
                    c8:af:e1:c0:75:af:1d:01:4b:ae:d5:a0:21:f3:96:
                    0c:ee:fd:1a:b4:8e:e6:0d:8f:0e:25:dc:b6:4f:58:
                    f2:2c:61:80:6f:64:9a:3b:30:14:16:c0:7b:e3:89:
                    c1:66:54:d7:ac:c9:ca:36:b2:01:1f:3a:68:73:60:
                    fa:5d:2d:f5:4e:ea:26:0d:73:79:67:ab:0f:e3:c2:
                    ba:40:a0:cb:30:9c:1e:a6:48:3c:17:30:72:de:dd:
                    ea:f6:e7:3b:63:62:df:e5:79:fb:dc:bd:c2:0e:30:
                    40:e5:dd:1c:0f:74:dd:ec:ff:a4:f5:ac:77:2a:85:
                    1a:2e:05:f2:86:70:2a:a3:6a:2d:43:c7:8f:54:c0:
                    81:bf:ae:2d:a6:48:8f:f7:f4:ce:cf:00:db:56:9b:
                    af:44:8e:61:9b:f8:03:f4:4e:7b:dd:19:e9:e0:38:
                    a7:b5:97:7f:a7:a7:62:31:c9:2f:8d:7f:b4:54:05:
                    51:7b:5e:30:18:4c:19:49:eb:43:0c:e4:bd:dc:25:
                    25:9b:f2:72:e8:37:58:7c:24:45:1c:45:3c:85:8c:
                    06:fc:57:f7:87:79:58:01:1f:04:82:20:ad:89:50:
                    fc:d5:4d
                Exponent: 65537 (0x10001)
        Attributes:
        Requested Extensions:
            X509v3 Basic Constraints: 
                CA:FALSE
            X509v3 Key Usage: critical
                Certificate Sign, CRL Sign
            X509v3 Subject Alternative Name: 
                URI:urn:bc96d73fb3b6:NodeOPCUA-ClientRevoked, DNS:bc96d73fb3b6, IP Address:127.0.0.1
    Signature Algorithm: sha256WithRSAEncryption
         92:ea:70:a7:33:62:f7:2b:ac:92:e1:85:b8:c5:49:ac:3b:b0:
         57:ab:c2:ff:c5:12:eb:e7:fa:f4:a4:a8:6e:bb:2b:7a:50:0a:
         f9:6a:8a:5d:a1:70:69:a2:ad:6e:1a:cc:89:32:22:3e:fb:fc:
         db:71:e8:16:fb:5c:1a:62:2c:de:8d:03:82:1a:67:7a:eb:a9:
         2a:ec:f8:d2:4b:1f:55:d3:87:c4:91:3e:33:5c:39:66:6c:18:
         97:0e:09:20:ba:54:93:3c:a3:47:43:d2:4f:44:af:b6:f1:1c:
         8b:72:53:55:1f:c4:82:af:ba:e8:c9:6b:f1:91:a9:c3:e0:60:
         c4:0c:dc:d9:5e:3c:c6:5f:f0:89:d6:f4:45:75:4d:bd:62:a5:
         84:d6:55:4e:7e:00:32:94:80:29:44:3f:ee:b7:77:1c:61:6a:
         1e:78:8e:90:f7:13:a3:0c:4d:0f:bb:8a:87:64:ac:1e:51:e0:
         b6:6f:18:1e:97:49:a4:66:21:c3:4d:f0:df:dd:41:f9:29:f4:
         34:4e:a9:ea:fc:9f:ac:8c:f0:8d:54:72:9d:9a:e6:a8:f7:f9:
         7c:fb:64:e8:41:15:bc:a5:18:06:5f:ce:ee:1e:91:f9:7f:10:
         6c:3f:c5:0c:2c:b4:85:e9:2b:ae:eb:c9:09:9b:47:d9:de:c4:
         a5:b3:c5:6d:7b:33:df:52:3b:e1:00:b3:75:6b:6f:4d:e2:f2:
         17:d7:ad:14:e6:d6:d4:a7:41:79:b8:c8:21:74:f1:1f:f7:a1:
         1f:a0:02:ff:f9:8e:00:4e:a3:a6:6d:e1:06:f2:28:d7:bf:72:
         cc:6d:83:70:67:a7:91:5f:4b:75:1b:2d:dd:82:b7:e9:64:90:
         52:f1:a6:09:77:ab:6b:1d:26:3f:4f:4b:56:74:3b:93:ba:4b:
         cb:d4:f6:35:cc:b3:cb:c7:87:cc:60:29:5a:7b:25:eb:c8:ce:
         84:7b:75:d9:f0:11:5a:ce:c3:96:28:68:bf:a8:45:4f:d7:a0:
         0d:73:c2:f4:db:cb:e9:90:1f:20:ba:f4:ae:7e:fa:4b:ea:dd:
         ac:80:b9:28:17:6a:c0:b5:79:65:54:52:34:32:d5:0e:93:72:
         a4:39:6b:27:4f:2e:b2:3b:db:43:01:d8:03:c8:35:c3:9e:2e:
         b4:f8:9f:5b:c6:87:ad:d4:ff:eb:74:7f:28:dd:e4:ed:a5:96:
         98:0a:57:dd:24:f2:c2:08:ff:43:d7:bf:7e:dc:45:60:ae:9d:
         f0:c6:d8:6b:33:11:38:54:33:e9:0d:d9:06:d1:76:4d:fa:c6:
         6d:5f:f3:36:f4:e8:2b:c3:8d:77:e5:7b:50:e6:02:4f:3b:3b:
         63:3b:e3:ad:7b:78:cd:bb
-----BEGIN CERTIFICATE REQUEST-----
MIIE7zCCAtcCAQAwNTELMAkGA1UEBhMCRlIxEjAQBgNVBAoMCU5vZGVPUENVQTES
MBAGA1UEAwwJTm9kZU9QQ1VBMIICIjANBgkqhkiG9w0BAQEFAAOCAg8AMIICCgKC
AgEA59jESHS2BcYFkNhx2aWz2v0+uevFPXM9XDuIRqrlx5zUArIf1UDRfkSbY3Bg
jpuCcFGF+FFORGfqr1dVFbAiSp5HctbCJ9UDAo878tnuiSWgdSt5z19xY8TD4UOO
iRLAceVhGxiJwzVwgZUXMA1ZaAsyY8/OArlf+DqkEJVLSE1vh8gSJmeBdgay1IEV
JdzWEE5wWihTjiJoZXFWEYQx7+tpSDnj3gTJjlqlEwag07N48ySW3aHtINMd7d0Y
BZunCcWWtcXMfbKxQOzYRNitxuhxdY01YKmspyMErgVzKCdXEahi7SHcK7EoZoMJ
JFpJCGSMEJgU/O1FfpqHuR/OLg4XvFduPZnJA+jqY/yaDoSyu4Iam3ehQ40MdzHI
r+HAda8dAUuu1aAh85YM7v0atI7mDY8OJdy2T1jyLGGAb2SaOzAUFsB744nBZlTX
rMnKNrIBHzpoc2D6XS31TuomDXN5Z6sP48K6QKDLMJwepkg8FzBy3t3q9uc7Y2Lf
5Xn73L3CDjBA5d0cD3Td7P+k9ax3KoUaLgXyhnAqo2otQ8ePVMCBv64tpkiP9/TO
zwDbVpuvRI5hm/gD9E573Rnp4DintZd/p6diMckvjX+0VAVRe14wGEwZSetDDOS9
3CUlm/Jy6DdYfCRFHEU8hYwG/Ff3h3lYAR8EgiCtiVD81U0CAwEAAaB1MHMGCSqG
SIb3DQEJDjFmMGQwCQYDVR0TBAIwADAOBgNVHQ8BAf8EBAMCAQYwRwYDVR0RBEAw
PoYodXJuOmJjOTZkNzNmYjNiNjpOb2RlT1BDVUEtQ2xpZW50UmV2b2tlZIIMYmM5
NmQ3M2ZiM2I2hwR/AAABMA0GCSqGSIb3DQEBCwUAA4ICAQCS6nCnM2L3K6yS4YW4
xUmsO7BXq8L/xRLr5/r0pKhuuyt6UAr5aopdoXBpoq1uGsyJMiI++/zbcegW+1wa
YizejQOCGmd666kq7PjSSx9V04fEkT4zXDlmbBiXDgkgulSTPKNHQ9JPRK+28RyL
clNVH8SCr7royWvxkanD4GDEDNzZXjzGX/CJ1vRFdU29YqWE1lVOfgAylIApRD/u
t3ccYWoeeI6Q9xOjDE0Pu4qHZKweUeC2bxgel0mkZiHDTfDf3UH5KfQ0Tqnq/J+s
jPCNVHKdmuao9/l8+2ToQRW8pRgGX87uHpH5fxBsP8UMLLSF6Suu68kJm0fZ3sSl
s8VtezPfUjvhALN1a29N4vIX160U5tbUp0F5uMghdPEf96EfoAL/+Y4ATqOmbeEG
8ijXv3LMbYNwZ6eRX0t1Gy3dgrfpZJBS8aYJd6trHSY/T0tWdDuTukvL1PY1zLPL
x4fMYClaeyXryM6Ee3XZ8BFazsOWKGi/qEVP16ANc8L028vpkB8guvSufvpL6t2s
gLkoF2rAtXllVFI0MtUOk3KkOWsnTy6yO9tDAdgDyDXDni60+J9bxoet1P/rdH8o
3eTtpZaYClfdJPLCCP9D179+3EVgrp3wxthrMxE4VDPpDdkG0XZN+sZtX/M29Ogr
w4135XtQ5gJPOztjO+Ote3jNuw==
-----END CERTIFICATE REQUEST-----
