Certificate Request:
    Data:
        Version: 1 (0x0)
        Subject: C = FR, O = NodeOPCUA, CN = NodeOPCUA
        Subject Public Key Info:
            Public Key Algorithm: rsaEncryption
                RSA Public-Key: (2048 bit)
                Modulus:
                    00:aa:d5:b4:bd:0a:9c:30:28:a6:5f:ac:78:a4:ee:
                    f3:9f:d5:2b:1c:3e:4c:4f:93:a6:ef:07:4e:b5:cd:
                    13:a1:d2:4b:0b:5c:f2:0b:b5:05:b9:34:b5:86:ee:
                    21:e3:b2:f5:67:07:71:7c:f5:8e:34:e4:dd:30:87:
                    40:e9:3b:1c:3b:6a:d9:7e:d1:47:e1:43:87:e9:0c:
                    2d:2a:fe:db:86:ba:27:91:9b:05:ff:3e:ce:37:7e:
                    7e:f8:11:97:2c:f4:77:3a:b6:76:58:a4:7c:9c:23:
                    b6:ad:ed:61:dd:3c:c5:96:28:24:dc:19:8a:a4:ac:
                    03:f3:23:a2:c8:2e:99:0b:49:b4:69:9b:a8:64:ab:
                    bc:62:eb:88:45:90:6e:af:f0:b1:ae:d0:4b:52:df:
                    62:31:57:03:10:f5:12:87:1b:25:5a:df:c4:22:9e:
                    a2:6a:f5:f1:10:5c:7a:64:27:d6:be:7e:9f:d2:c8:
                    71:e8:77:80:f8:e4:b4:77:66:6d:ac:0d:fb:fa:49:
                    ac:f0:ea:67:08:75:a6:53:90:bc:6a:44:74:1d:85:
                    21:38:df:97:93:09:a5:d7:9c:7a:7a:79:ae:d9:61:
                    18:e2:72:98:24:1a:c8:f0:53:6e:6f:24:aa:0b:96:
                    37:50:9b:8e:30:68:26:1c:c9:c9:79:0f:8c:2b:1e:
                    ba:63
                Exponent: 65537 (0x10001)
        Attributes:
        Requested Extensions:
            X509v3 Basic Constraints: 
                CA:FALSE
            X509v3 Key Usage: critical
                Certificate Sign, CRL Sign
            X509v3 Subject Alternative Name: 
                URI:urn:bc96d73fb3b6:NodeOPCUA-Client, DNS:bc96d73fb3b6, IP Address:127.0.0.1
    Signature Algorithm: sha256WithRSAEncryption
         8f:51:6f:03:9c:c2:67:4a:24:da:9e:dd:24:e2:0c:da:b1:64:
         7f:c0:5f:95:32:a1:46:d7:15:93:60:0b:65:c7:0a:0c:ab:f9:
         12:a1:b7:4b:58:ba:67:32:7f:2a:73:4c:62:7f:bd:eb:05:74:
         42:e1:9a:0b:b4:0c:e2:d7:b3:8c:4a:85:5b:48:58:2a:8b:1f:
         ea:8e:8c:ba:2a:ea:ea:ad:9b:d9:05:2d:8e:67:46:2a:d6:27:
         4e:e7:da:5a:2a:a7:d7:57:cd:8c:15:7f:1d:5a:cd:32:23:8a:
         54:53:ea:77:83:f3:60:fe:0b:b4:8e:55:9e:71:06:d8:89:20:
         62:62:81:30:96:09:d3:fc:0b:c7:8c:75:87:94:06:c4:8f:96:
         40:6a:cd:03:60:d3:d3:38:5e:bb:5f:09:c3:1a:01:ea:37:29:
         a1:d8:37:7e:9f:a6:33:42:67:8f:40:a6:5c:74:c7:4d:30:37:
         20:83:0c:d2:e0:e1:30:48:cd:8f:4b:66:68:79:d1:0c:90:ec:
         fe:a6:ff:fe:54:60:38:7b:29:17:35:d5:17:b5:2c:b3:42:d9:
         98:1d:29:b7:be:4f:b1:c9:3f:a4:1a:b3:c9:46:02:33:99:fa:
         af:ed:a0:46:e3:9b:a0:4c:40:39:fb:44:f8:c2:6b:b8:43:92:
         b4:1c:73:24
-----BEGIN CERTIFICATE REQUEST-----
MIIC6DCCAdACAQAwNTELMAkGA1UEBhMCRlIxEjAQBgNVBAoMCU5vZGVPUENVQTES
MBAGA1UEAwwJTm9kZU9QQ1VBMIIBIjANBgkqhkiG9w0BAQEFAAOCAQ8AMIIBCgKC
AQEAqtW0vQqcMCimX6x4pO7zn9UrHD5MT5Om7wdOtc0TodJLC1zyC7UFuTS1hu4h
47L1ZwdxfPWONOTdMIdA6TscO2rZftFH4UOH6QwtKv7bhronkZsF/z7ON35++BGX
LPR3OrZ2WKR8nCO2re1h3TzFligk3BmKpKwD8yOiyC6ZC0m0aZuoZKu8YuuIRZBu
r/CxrtBLUt9iMVcDEPUShxslWt/EIp6iavXxEFx6ZCfWvn6f0shx6HeA+OS0d2Zt
rA37+kms8OpnCHWmU5C8akR0HYUhON+Xkwml15x6enmu2WEY4nKYJBrI8FNubySq
C5Y3UJuOMGgmHMnJeQ+MKx66YwIDAQABoG4wbAYJKoZIhvcNAQkOMV8wXTAJBgNV
HRMEAjAAMA4GA1UdDwEB/wQEAwIBBjBABgNVHREEOTA3hiF1cm46YmM5NmQ3M2Zi
M2I2Ok5vZGVPUENVQS1DbGllbnSCDGJjOTZkNzNmYjNiNocEfwAAATANBgkqhkiG
9w0BAQsFAAOCAQEAj1FvA5zCZ0ok2p7dJOIM2rFkf8BflTKhRtcVk2ALZccKDKv5
EqG3S1i6ZzJ/KnNMYn+96wV0QuGaC7QM4tezjEqFW0hYKosf6o6Muirq6q2b2QUt
jmdGKtYnTufaWiqn11fNjBV/HVrNMiOKVFPqd4PzYP4LtI5VnnEG2IkgYmKBMJYJ
0/wLx4x1h5QGxI+WQGrNA2DT0zheu18JwxoB6jcpodg3fp+mM0Jnj0CmXHTHTTA3
IIMM0uDhMEjNj0tmaHnRDJDs/qb//lRgOHspFzXVF7Uss0LZmB0pt75Psck/pBqz
yUYCM5n6r+2gRuOboExAOftE+MJruEOStBxzJA==
-----END CERTIFICATE REQUEST-----
