Certificate:
    Data:
        Version: 3 (0x2)
        Serial Number: 4110 (0x100e)
        Signature Algorithm: sha256WithRSAEncryption
        Issuer: C=FR, ST=IDF, L=Paris, O=Local NODE-OPCUA Certificate Authority, CN=NodeOPCUA-CA
        Validity
            Not Before: Oct  9 00:24:20 2022 GMT
            Not After : Oct  9 00:24:20 2023 GMT
        Subject: C=FR, O=NodeOPCUA, CN=NodeOPCUA
        Subject Public Key Info:
            Public Key Algorithm: rsaEncryption
                RSA Public-Key: (3072 bit)
                Modulus:
                    00:e3:ca:25:c7:8a:15:b5:1d:05:1e:5c:89:f4:03:
                    95:39:76:ec:68:ba:64:e8:6b:67:b5:89:d4:29:1f:
                    78:ba:dc:69:df:75:12:3d:2b:56:58:8c:29:9d:07:
                    2c:20:60:33:f0:1d:a8:25:ec:c7:7d:c6:fe:1c:c4:
                    b8:ff:b2:88:23:98:96:5c:4a:ae:64:e6:94:44:31:
                    9c:e1:6d:e0:bd:ed:2e:38:43:f0:d3:f2:87:fd:c3:
                    8b:d2:f6:23:6f:e7:b5:a2:d9:15:80:cd:6e:2a:47:
                    40:48:93:fb:01:b2:29:a6:4d:b5:62:fe:9c:53:f0:
                    27:f6:39:86:83:d4:1b:12:f3:f7:d1:69:bd:49:d1:
                    c8:21:56:1a:28:a6:89:72:f2:f1:f7:d1:57:71:53:
                    42:e4:c0:72:d8:ab:2b:a2:71:a7:23:b8:ce:87:ee:
                    4a:f4:eb:a3:71:d3:46:5c:a5:ca:22:ab:39:3d:9a:
                    16:f5:c5:31:46:82:e1:07:6e:7e:fd:bf:32:f4:ba:
                    8f:7d:07:af:09:48:53:1e:ef:7d:16:ba:1c:ea:7c:
                    69:09:87:5c:44:23:81:9c:de:f4:d7:5e:80:09:14:
                    e2:11:a8:d2:9c:13:e9:ff:73:8b:6c:1e:c8:0a:af:
                    10:32:bc:24:5c:dd:06:b8:b6:c2:b2:2d:f4:e5:45:
                    25:ad:0f:3a:43:5f:90:04:0c:48:33:9a:ae:6f:db:
                    c5:1a:da:b4:5f:48:38:cc:4b:0c:28:4a:2b:c1:a4:
                    41:27:17:b3:c5:24:c2:3b:34:09:0b:d8:9b:aa:04:
                    d2:73:c2:64:37:f1:60:76:aa:65:6d:59:59:d2:5c:
                    9a:a5:1b:cf:7f:7b:1b:ec:4a:d7:04:4e:5d:1e:d8:
                    e3:f3:df:44:14:94:99:67:cd:ab:8b:16:52:7e:19:
                    3a:8f:75:dd:e7:e5:2f:6b:a3:de:74:bd:4b:6f:13:
                    d4:9c:54:5d:40:83:4e:3f:7a:53:a0:4c:ce:0f:84:
                    69:f1:46:0a:c8:2f:3a:80:18:37
                Exponent: 65537 (0x10001)
        X509v3 extensions:
            X509v3 Basic Constraints: critical
                CA:FALSE
            X509v3 Subject Key Identifier: 
                30:CB:14:BC:24:A1:AA:65:90:A6:23:56:C3:D8:E9:D9:67:21:F7:CB
            X509v3 Authority Key Identifier: 
                keyid:A7:15:61:9A:B5:81:C7:F7:D0:76:65:0D:DA:7F:EC:DE:F2:4F:C8:EB
                DirName:/C=FR/ST=IDF/L=Paris/O=Local NODE-OPCUA Certificate Authority/CN=NodeOPCUA-CA
                serial:25:A1:CC:A0:A1:DA:94:52:52:1D:E7:E0:B7:E7:30:D9:7D:F8:10:DD

            X509v3 Subject Alternative Name: 
                URI:urn:bc96d73fb3b6:NodeOPCUA-ClientRevoked, DNS:bc96d73fb3b6, IP Address:127.0.0.1
            Netscape Comment: 
                OpenSSL Generated Certificate
            X509v3 Key Usage: critical
                Digital Signature, Non Repudiation, Key Encipherment, Data Encipherment, Key Agreement, Certificate Sign
            X509v3 Extended Key Usage: critical
                TLS Web Server Authentication, TLS Web Client Authentication
    Signature Algorithm: sha256WithRSAEncryption
         a9:f4:c8:eb:a1:1d:1c:e9:17:5b:18:96:f0:ad:35:07:f8:42:
         5c:c8:26:ef:4a:4a:0b:20:61:d3:d9:18:0c:bc:7e:2f:0e:0d:
         7b:7d:49:82:1c:64:bc:bc:cc:1e:7a:d9:97:8b:de:82:48:ba:
         e5:0b:e9:4c:7c:c8:27:1c:3b:af:df:82:60:e7:71:c8:9b:c6:
         f7:3e:43:78:06:e8:d0:84:7f:3d:0e:e3:98:1f:79:ff:7a:af:
         da:83:37:a6:21:ea:bf:98:da:f1:f8:b8:cb:2c:5b:57:81:e6:
         6b:90:68:e5:6b:25:04:5e:46:e2:72:6d:03:eb:cd:5b:10:c1:
         b0:9b:de:60:8d:d3:3f:e3:0e:ce:88:e2:91:7a:66:f7:dc:77:
         87:3c:d2:de:cd:e4:16:27:cb:57:a1:44:48:4e:58:d8:6b:21:
         2e:b6:3a:71:c2:63:d2:ff:17:a7:cc:90:75:22:7d:76:52:19:
         d4:bc:ae:c3:3d:59:fd:0f:c7:50:2e:b5:57:4a:11:c6:0e:72:
         bb:36:b1:f4:4c:ac:d9:b7:66:20:0b:31:cd:d1:47:f1:99:48:
         ec:13:0a:c7:1a:56:b3:91:d4:07:c2:65:1b:26:43:f5:e1:1e:
         28:6a:f0:1d:39:b5:71:2f:07:37:f2:79:89:ff:05:5b:43:8d:
         ac:84:85:fb
-----BEGIN CERTIFICATE-----
MIIFMzCCBBugAwIBAgICEA4wDQYJKoZIhvcNAQELBQAwczELMAkGA1UEBhMCRlIx
DDAKBgNVBAgTA0lERjEOMAwGA1UEBxMFUGFyaXMxLzAtBgNVBAoTJkxvY2FsIE5P
REUtT1BDVUEgQ2VydGlmaWNhdGUgQXV0aG9yaXR5MRUwEwYDVQQDEwxOb2RlT1BD
VUEtQ0EwHhcNMjIxMDA5MDAyNDIwWhcNMjMxMDA5MDAyNDIwWjA1MQswCQYDVQQG
EwJGUjESMBAGA1UECgwJTm9kZU9QQ1VBMRIwEAYDVQQDDAlOb2RlT1BDVUEwggGi
MA0GCSqGSIb3DQEBAQUAA4IBjwAwggGKAoIBgQDjyiXHihW1HQUeXIn0A5U5duxo
umToa2e1idQpH3i63GnfdRI9K1ZYjCmdBywgYDPwHagl7Md9xv4cxLj/sogjmJZc
Sq5k5pREMZzhbeC97S44Q/DT8of9w4vS9iNv57Wi2RWAzW4qR0BIk/sBsimmTbVi
/pxT8Cf2OYaD1BsS8/fRab1J0cghVhoopoly8vH30VdxU0LkwHLYqyuicacjuM6H
7kr066Nx00Zcpcoiqzk9mhb1xTFGguEHbn79vzL0uo99B68JSFMe730WuhzqfGkJ
h1xEI4Gc3vTXXoAJFOIRqNKcE+n/c4tsHsgKrxAyvCRc3Qa4tsKyLfTlRSWtDzpD
X5AEDEgzmq5v28Ua2rRfSDjMSwwoSivBpEEnF7PFJMI7NAkL2JuqBNJzwmQ38WB2
qmVtWVnSXJqlG89/exvsStcETl0e2OPz30QUlJlnzauLFlJ+GTqPdd3n5S9ro950
vUtvE9ScVF1Ag04/elOgTM4PhGnxRgrILzqAGDcCAwEAAaOCAY0wggGJMAwGA1Ud
EwEB/wQCMAAwHQYDVR0OBBYEFDDLFLwkoaplkKYjVsPY6dlnIffLMIGwBgNVHSME
gagwgaWAFKcVYZq1gcf30HZlDdp/7N7yT8jroXekdTBzMQswCQYDVQQGEwJGUjEM
MAoGA1UECBMDSURGMQ4wDAYDVQQHEwVQYXJpczEvMC0GA1UEChMmTG9jYWwgTk9E
RS1PUENVQSBDZXJ0aWZpY2F0ZSBBdXRob3JpdHkxFTATBgNVBAMTDE5vZGVPUENV
QS1DQYIUJaHMoKHalFJSHefgt+cw2X34EN0wRwYDVR0RBEAwPoYodXJuOmJjOTZk
NzNmYjNiNjpOb2RlT1BDVUEtQ2xpZW50UmV2b2tlZIIMYmM5NmQ3M2ZiM2I2hwR/
AAABMCwGCWCGSAGG+EIBDQQfFh1PcGVuU1NMIEdlbmVyYXRlZCBDZXJ0aWZpY2F0
ZTAOBgNVHQ8BAf8EBAMCAvwwIAYDVR0lAQH/BBYwFAYIKwYBBQUHAwEGCCsGAQUF
BwMCMA0GCSqGSIb3DQEBCwUAA4IBAQCp9MjroR0c6RdbGJbwrTUH+EJcyCbvSkoL
IGHT2RgMvH4vDg17fUmCHGS8vMweetmXi96CSLrlC+lMfMgnHDuv34Jg53HIm8b3
PkN4BujQhH89DuOYH3n/eq/agzemIeq/mNrx+LjLLFtXgeZrkGjlayUEXkbicm0D
681bEMGwm95gjdM/4w7OiOKRemb33HeHPNLezeQWJ8tXoURITljYayEutjpxwmPS
/xenzJB1In12UhnUvK7DPVn9D8dQLrVXShHGDnK7NrH0TKzZt2YgCzHN0UfxmUjs
EwrHGlazkdQHwmUbJkP14R4oavAdObVxLwc38nmJ/wVbQ42shIX7
-----END CERTIFICATE-----
Certificate:
    Data:
        Version: 1 (0x0)
        Serial Number:
            25:a1:cc:a0:a1:da:94:52:52:1d:e7:e0:b7:e7:30:d9:7d:f8:10:dd
        Signature Algorithm: NULL
        Issuer: C = FR, ST = IDF, L = Paris, O = Local NODE-OPCUA Certificate Authority, CN = NodeOPCUA-CA
        Validity
            Not Before: Oct 10 00:24:20 2022 GMT
            Not After : Oct  7 00:24:20 2032 GMT
        Subject: C = FR, ST = IDF, L = Paris, O = Local NODE-OPCUA Certificate Authority, CN = NodeOPCUA-CA
        Subject Public Key Info:
            Public Key Algorithm: rsaEncryption
                RSA Public-Key: (2048 bit)
                Modulus:
                    00:b1:93:34:5c:80:c9:a5:84:47:93:3b:85:00:4c:
                    54:2a:8c:d3:fb:1c:4d:4d:6a:47:0f:5f:ea:97:60:
                    96:b3:85:89:1c:b3:22:44:ee:52:54:c2:f5:a3:9b:
                    7c:34:56:f7:06:5c:da:6d:55:a8:ca:5f:88:79:d8:
                    a5:4c:fe:37:ab:04:cf:54:69:6c:da:1f:75:a9:8c:
                    e2:5e:35:b9:cc:10:e3:26:5b:c1:c4:08:d2:b0:0e:
                    11:b4:0a:6e:ac:a8:36:de:b2:d2:c9:1e:a2:7f:d6:
                    79:83:0d:de:33:d1:dd:54:d7:3d:c9:da:ed:0c:c4:
                    64:57:1d:27:46:74:0a:d9:17:8d:19:03:e6:21:0b:
                    27:21:20:83:fc:12:85:32:92:27:53:0a:47:d9:57:
                    b8:e9:ea:9f:5f:58:1a:8b:de:3e:1e:e2:1e:f0:06:
                    d4:5c:6d:96:ca:96:f8:18:6d:4b:38:4d:d0:99:a8:
                    0a:5d:d0:41:1d:09:62:24:f0:7c:ef:e1:dd:39:f3:
                    20:f7:57:ea:05:aa:2a:92:c6:f4:3d:7e:ba:7c:67:
                    8a:e6:56:c0:e3:9f:5b:3e:75:b9:5e:5e:92:58:f5:
                    af:99:5f:54:e9:9c:ff:07:2b:89:79:92:e1:9e:d6:
                    5e:05:7a:ce:a5:2b:36:07:f3:9c:cc:ca:c6:fa:15:
                    17:59
                Exponent: 65537 (0x10001)
    Signature Algorithm: NULL
-----BEGIN CERTIFICATE-----
MIIE8zCCA9ugAwIBAgIUJaHMoKHalFJSHefgt+cw2X34EN0wDQYJKoZIhvcNAQEL
BQAwczELMAkGA1UEBhMCRlIxDDAKBgNVBAgTA0lERjEOMAwGA1UEBxMFUGFyaXMx
LzAtBgNVBAoTJkxvY2FsIE5PREUtT1BDVUEgQ2VydGlmaWNhdGUgQXV0aG9yaXR5
MRUwEwYDVQQDEwxOb2RlT1BDVUEtQ0EwHhcNMjIxMDEwMDAyNDIwWhcNMzIxMDA3
MDAyNDIwWjBzMQswCQYDVQQGEwJGUjEMMAoGA1UECBMDSURGMQ4wDAYDVQQHEwVQ
YXJpczEvMC0GA1UEChMmTG9jYWwgTk9ERS1PUENVQSBDZXJ0aWZpY2F0ZSBBdXRo
b3JpdHkxFTATBgNVBAMTDE5vZGVPUENVQS1DQTCCASIwDQYJKoZIhvcNAQEBBQAD
ggEPADCCAQoCggEBALGTNFyAyaWER5M7hQBMVCqM0/scTU1qRw9f6pdglrOFiRyz
IkTuUlTC9aObfDRW9wZc2m1VqMpfiHnYpUz+N6sEz1RpbNofdamM4l41ucwQ4yZb
wcQI0rAOEbQKbqyoNt6y0skeon/WeYMN3jPR3VTXPcna7QzEZFcdJ0Z0CtkXjRkD
5iELJyEgg/wShTKSJ1MKR9lXuOnqn19YGovePh7iHvAG1FxtlsqW+BhtSzhN0Jmo
Cl3QQR0JYiTwfO/h3TnzIPdX6gWqKpLG9D1+unxniuZWwOOfWz51uV5eklj1r5lf
VOmc/wcriXmS4Z7WXgV6zqUrNgfznMzKxvoVF1kCAwEAAaOCAX0wggF5MB0GA1Ud
DgQWBBSnFWGatYHH99B2ZQ3af+ze8k/I6zCBsAYDVR0jBIGoMIGlgBSnFWGatYHH
99B2ZQ3af+ze8k/I66F3pHUwczELMAkGA1UEBhMCRlIxDDAKBgNVBAgTA0lERjEO
MAwGA1UEBxMFUGFyaXMxLzAtBgNVBAoTJkxvY2FsIE5PREUtT1BDVUEgQ2VydGlm
aWNhdGUgQXV0aG9yaXR5MRUwEwYDVQQDEwxOb2RlT1BDVUEtQ0GCFCWhzKCh2pRS
Uh3n4LfnMNl9+BDdMAwGA1UdEwQFMAMBAf8wDgYDVR0PAQH/BAQDAgEGMFcGCWCG
SAGG+EIBDQRKFkhDQSBDZXJ0aWZpY2F0ZSBnZW5lcmF0ZWQgYnkgTm9kZS1PUENV
QSBDZXJ0aWZpY2F0ZSB1dGlsaXR5IHVzaW5nIG9wZW5zc2wwLgYDVR0fBCcwJTAj
oCGgH4YdaHR0cDovL2xvY2FsaG9zdDo4OTAwL2NybC5wZW0wDQYJKoZIhvcNAQEL
BQADggEBABkX6R3TgC0r+xYWU2euItmht2l1Ux0JYBmLmMsNUyr+aFCqEcQ/CPU5
J9s9OetGIeiBF6RwJwv8t6eaV8LLpGEFKZYSOIwqQ0psuA4+/spo+edLaRraLsX4
3S6XNzViXfLHIoEGQm2c243P0jVdmASPkg5NwfvtzCaMlcUFcwMAyhJqh5NjHtLz
WoJLtQrBonm9totUDdcvL2m5/3uFaDsrDc8YB4GRECUwbhjvNv60wyi1qa9EGFeh
T6V15FqQPWNs2oWbqaBMFdkidXRjF4MYU/XCIW9nTfaCV6aT1U2Ox/vjQjdC1xsq
XV46vayJH4kVdNzfDgedlp5614mu1Mc=
-----END CERTIFICATE-----
