Certificate Request:
    Data:
        Version: 1 (0x0)
        Subject: C = FR, O = NodeOPCUA, CN = NodeOPCUA
        Subject Public Key Info:
            Public Key Algorithm: rsaEncryption
                RSA Public-Key: (1024 bit)
                Modulus:
                    00:d0:b0:46:91:d1:e0:98:68:6b:1f:11:92:d9:12:
                    fe:cc:ec:76:59:98:49:b5:36:99:3c:72:46:d9:08:
                    47:e3:c0:43:cd:05:a9:49:39:79:21:a3:86:d6:bc:
                    81:d9:3c:f1:82:0b:56:90:b3:04:ad:ee:fa:23:83:
                    b6:e5:ff:56:7a:0e:fe:21:26:d7:9a:d3:6f:00:b4:
                    67:7d:f2:55:18:32:f8:88:84:dd:c5:c1:5f:81:e2:
                    1e:59:e2:45:dd:7e:b7:2d:98:ec:83:33:4f:28:3c:
                    a1:b4:74:e4:c1:b0:8e:74:b1:7f:73:9c:b8:75:76:
                    7e:52:18:38:5b:e5:f8:28:2b
                Exponent: 65537 (0x10001)
        Attributes:
        Requested Extensions:
            X509v3 Basic Constraints: 
                CA:FALSE
            X509v3 Key Usage: critical
                Certificate Sign, CRL Sign
            X509v3 Subject Alternative Name: 
                URI:urn:bc96d73fb3b6:NodeOPCUA-Client, DNS:bc96d73fb3b6, IP Address:127.0.0.1
    Signature Algorithm: sha256WithRSAEncryption
         21:2b:5f:d8:7e:39:bb:21:72:f2:62:5a:df:d7:74:ee:3a:00:
         55:2c:92:da:dc:88:74:eb:57:e1:d1:a2:ba:f7:f0:b0:aa:9c:
         fd:3e:dd:ce:8e:7c:b1:e7:c0:db:c7:cc:f0:f3:33:f1:bb:8a:
         34:e4:df:b8:24:da:5b:07:10:46:4d:fd:da:42:7e:2e:68:16:
         c3:00:d8:ee:0f:30:d0:b5:d8:d9:9c:6f:71:33:a7:80:73:3a:
         59:6f:19:b4:03:fa:d5:67:0b:3a:19:b4:33:cf:db:e4:9b:91:
         ab:b7:7a:24:17:30:2b:79:fd:1e:be:ef:99:0b:02:df:d0:28:
         09:01
-----BEGIN CERTIFICATE REQUEST-----
MIIB4zCCAUwCAQAwNTELMAkGA1UEBhMCRlIxEjAQBgNVBAoMCU5vZGVPUENVQTES
MBAGA1UEAwwJTm9kZU9QQ1VBMIGfMA0GCSqGSIb3DQEBAQUAA4GNADCBiQKBgQDQ
sEaR0eCYaGsfEZLZEv7M7HZZmEm1Npk8ckbZCEfjwEPNBalJOXkho4bWvIHZPPGC
C1aQswSt7vojg7bl/1Z6Dv4hJtea028AtGd98lUYMviIhN3FwV+B4h5Z4kXdfrct
mOyDM08oPKG0dOTBsI50sX9znLh1dn5SGDhb5fgoKwIDAQABoG4wbAYJKoZIhvcN
AQkOMV8wXTAJBgNVHRMEAjAAMA4GA1UdDwEB/wQEAwIBBjBABgNVHREEOTA3hiF1
cm46YmM5NmQ3M2ZiM2I2Ok5vZGVPUENVQS1DbGllbnSCDGJjOTZkNzNmYjNiNocE
fwAAATANBgkqhkiG9w0BAQsFAAOBgQAhK1/Yfjm7IXLyYlrf13TuOgBVLJLa3Ih0
61fh0aK69/Cwqpz9Pt3Ojnyx58Dbx8zw8zPxu4o05N+4JNpbBxBGTf3aQn4uaBbD
ANjuDzDQtdjZnG9xM6eAczpZbxm0A/rVZws6GbQzz9vkm5Grt3okFzAref0evu+Z
CwLf0CgJAQ==
-----END CERTIFICATE REQUEST-----
