Certificate:
    Data:
        Version: 3 (0x2)
        Serial Number: 4106 (0x100a)
        Signature Algorithm: sha256WithRSAEncryption
        Issuer: C=FR, ST=IDF, L=Paris, O=Local NODE-OPCUA Certificate Authority, CN=NodeOPCUA-CA
        Validity
            Not Before: Oct  9 00:24:20 2022 GMT
            Not After : Oct  9 00:24:20 2023 GMT
        Subject: C=FR, O=NodeOPCUA, CN=NodeOPCUA
        Subject Public Key Info:
            Public Key Algorithm: rsaEncryption
                RSA Public-Key: (3072 bit)
                Modulus:
                    00:e3:ca:25:c7:8a:15:b5:1d:05:1e:5c:89:f4:03:
                    95:39:76:ec:68:ba:64:e8:6b:67:b5:89:d4:29:1f:
                    78:ba:dc:69:df:75:12:3d:2b:56:58:8c:29:9d:07:
                    2c:20:60:33:f0:1d:a8:25:ec:c7:7d:c6:fe:1c:c4:
                    b8:ff:b2:88:23:98:96:5c:4a:ae:64:e6:94:44:31:
                    9c:e1:6d:e0:bd:ed:2e:38:43:f0:d3:f2:87:fd:c3:
                    8b:d2:f6:23:6f:e7:b5:a2:d9:15:80:cd:6e:2a:47:
                    40:48:93:fb:01:b2:29:a6:4d:b5:62:fe:9c:53:f0:
                    27:f6:39:86:83:d4:1b:12:f3:f7:d1:69:bd:49:d1:
                    c8:21:56:1a:28:a6:89:72:f2:f1:f7:d1:57:71:53:
                    42:e4:c0:72:d8:ab:2b:a2:71:a7:23:b8:ce:87:ee:
                    4a:f4:eb:a3:71:d3:46:5c:a5:ca:22:ab:39:3d:9a:
                    16:f5:c5:31:46:82:e1:07:6e:7e:fd:bf:32:f4:ba:
                    8f:7d:07:af:09:48:53:1e:ef:7d:16:ba:1c:ea:7c:
                    69:09:87:5c:44:23:81:9c:de:f4:d7:5e:80:09:14:
                    e2:11:a8:d2:9c:13:e9:ff:73:8b:6c:1e:c8:0a:af:
                    10:32:bc:24:5c:dd:06:b8:b6:c2:b2:2d:f4:e5:45:
                    25:ad:0f:3a:43:5f:90:04:0c:48:33:9a:ae:6f:db:
                    c5:1a:da:b4:5f:48:38:cc:4b:0c:28:4a:2b:c1:a4:
                    41:27:17:b3:c5:24:c2:3b:34:09:0b:d8:9b:aa:04:
                    d2:73:c2:64:37:f1:60:76:aa:65:6d:59:59:d2:5c:
                    9a:a5:1b:cf:7f:7b:1b:ec:4a:d7:04:4e:5d:1e:d8:
                    e3:f3:df:44:14:94:99:67:cd:ab:8b:16:52:7e:19:
                    3a:8f:75:dd:e7:e5:2f:6b:a3:de:74:bd:4b:6f:13:
                    d4:9c:54:5d:40:83:4e:3f:7a:53:a0:4c:ce:0f:84:
                    69:f1:46:0a:c8:2f:3a:80:18:37
                Exponent: 65537 (0x10001)
        X509v3 extensions:
            X509v3 Basic Constraints: critical
                CA:FALSE
            X509v3 Subject Key Identifier: 
                30:CB:14:BC:24:A1:AA:65:90:A6:23:56:C3:D8:E9:D9:67:21:F7:CB
            X509v3 Authority Key Identifier: 
                keyid:A7:15:61:9A:B5:81:C7:F7:D0:76:65:0D:DA:7F:EC:DE:F2:4F:C8:EB
                DirName:/C=FR/ST=IDF/L=Paris/O=Local NODE-OPCUA Certificate Authority/CN=NodeOPCUA-CA
                serial:25:A1:CC:A0:A1:DA:94:52:52:1D:E7:E0:B7:E7:30:D9:7D:F8:10:DD

            X509v3 Subject Alternative Name: 
                URI:urn:bc96d73fb3b6:NodeOPCUA-Client, DNS:bc96d73fb3b6, IP Address:127.0.0.1
            Netscape Comment: 
                OpenSSL Generated Certificate
            X509v3 Key Usage: critical
                Digital Signature, Non Repudiation, Key Encipherment, Data Encipherment, Key Agreement, Certificate Sign
            X509v3 Extended Key Usage: critical
                TLS Web Server Authentication, TLS Web Client Authentication
    Signature Algorithm: sha256WithRSAEncryption
         11:1a:ff:14:3c:cd:c1:f1:25:b7:2f:4d:4f:e4:e9:6d:23:81:
         4b:ae:cf:40:8c:1c:8b:00:1d:68:66:32:15:ec:cf:9d:56:54:
         42:72:f6:ef:11:d8:ee:28:37:d3:e7:bf:e1:68:2f:3e:e8:5f:
         6c:fc:c4:b2:3a:e8:d0:d7:9f:14:6d:0f:a7:53:52:a1:03:e3:
         de:6d:9e:29:89:5c:63:78:f8:98:1f:e7:4e:dc:d1:e5:38:0f:
         cc:a9:c0:01:03:03:09:bf:18:4f:56:e3:2e:84:d3:31:af:6e:
         f6:a5:53:73:79:7e:7c:4a:de:7a:62:f7:c0:f8:67:4a:5c:48:
         c7:a1:44:7d:48:0a:5c:e4:c2:ca:cf:55:85:42:d8:4a:d1:52:
         12:91:2c:14:65:46:c7:c4:58:24:23:c2:b2:7a:ed:68:9d:cf:
         85:75:b2:fc:db:ec:43:1f:be:31:c6:ff:05:d2:d0:0d:01:f6:
         32:09:5d:34:b3:a0:08:b1:57:27:58:4c:49:2f:84:6e:8d:cc:
         50:c5:55:bb:c7:66:02:b3:a7:f3:85:5c:ed:04:31:c1:77:a7:
         6a:a8:fd:7d:73:d5:47:7a:00:0d:99:03:1c:bf:c5:32:57:d3:
         37:8c:2a:fc:7f:e9:e5:1a:4e:94:e2:74:0c:2c:f4:2d:40:a1:
         9a:05:15:43
-----BEGIN CERTIFICATE-----
MIIFLDCCBBSgAwIBAgICEAowDQYJKoZIhvcNAQELBQAwczELMAkGA1UEBhMCRlIx
DDAKBgNVBAgTA0lERjEOMAwGA1UEBxMFUGFyaXMxLzAtBgNVBAoTJkxvY2FsIE5P
REUtT1BDVUEgQ2VydGlmaWNhdGUgQXV0aG9yaXR5MRUwEwYDVQQDEwxOb2RlT1BD
VUEtQ0EwHhcNMjIxMDA5MDAyNDIwWhcNMjMxMDA5MDAyNDIwWjA1MQswCQYDVQQG
EwJGUjESMBAGA1UECgwJTm9kZU9QQ1VBMRIwEAYDVQQDDAlOb2RlT1BDVUEwggGi
MA0GCSqGSIb3DQEBAQUAA4IBjwAwggGKAoIBgQDjyiXHihW1HQUeXIn0A5U5duxo
umToa2e1idQpH3i63GnfdRI9K1ZYjCmdBywgYDPwHagl7Md9xv4cxLj/sogjmJZc
Sq5k5pREMZzhbeC97S44Q/DT8of9w4vS9iNv57Wi2RWAzW4qR0BIk/sBsimmTbVi
/pxT8Cf2OYaD1BsS8/fRab1J0cghVhoopoly8vH30VdxU0LkwHLYqyuicacjuM6H
7kr066Nx00Zcpcoiqzk9mhb1xTFGguEHbn79vzL0uo99B68JSFMe730WuhzqfGkJ
h1xEI4Gc3vTXXoAJFOIRqNKcE+n/c4tsHsgKrxAyvCRc3Qa4tsKyLfTlRSWtDzpD
X5AEDEgzmq5v28Ua2rRfSDjMSwwoSivBpEEnF7PFJMI7NAkL2JuqBNJzwmQ38WB2
qmVtWVnSXJqlG89/exvsStcETl0e2OPz30QUlJlnzauLFlJ+GTqPdd3n5S9ro950
vUtvE9ScVF1Ag04/elOgTM4PhGnxRgrILzqAGDcCAwEAAaOCAYYwggGCMAwGA1Ud
EwEB/wQCMAAwHQYDVR0OBBYEFDDLFLwkoaplkKYjVsPY6dlnIffLMIGwBgNVHSME
gagwgaWAFKcVYZq1gcf30HZlDdp/7N7yT8jroXekdTBzMQswCQYDVQQGEwJGUjEM
MAoGA1UECBMDSURGMQ4wDAYDVQQHEwVQYXJpczEvMC0GA1UEChMmTG9jYWwgTk9E
RS1PUENVQSBDZXJ0aWZpY2F0ZSBBdXRob3JpdHkxFTATBgNVBAMTDE5vZGVPUENV
QS1DQYIUJaHMoKHalFJSHefgt+cw2X34EN0wQAYDVR0RBDkwN4YhdXJuOmJjOTZk
NzNmYjNiNjpOb2RlT1BDVUEtQ2xpZW50ggxiYzk2ZDczZmIzYjaHBH8AAAEwLAYJ
YIZIAYb4QgENBB8WHU9wZW5TU0wgR2VuZXJhdGVkIENlcnRpZmljYXRlMA4GA1Ud
DwEB/wQEAwIC/DAgBgNVHSUBAf8EFjAUBggrBgEFBQcDAQYIKwYBBQUHAwIwDQYJ
KoZIhvcNAQELBQADggEBABEa/xQ8zcHxJbcvTU/k6W0jgUuuz0CMHIsAHWhmMhXs
z51WVEJy9u8R2O4oN9Pnv+FoLz7oX2z8xLI66NDXnxRtD6dTUqED495tnimJXGN4
+Jgf507c0eU4D8ypwAEDAwm/GE9W4y6E0zGvbvalU3N5fnxK3npi98D4Z0pcSMeh
RH1IClzkwsrPVYVC2ErRUhKRLBRlRsfEWCQjwrJ67Widz4V1svzb7EMfvjHG/wXS
0A0B9jIJXTSzoAixVydYTEkvhG6NzFDFVbvHZgKzp/OFXO0EMcF3p2qo/X1z1Ud6
AA2ZAxy/xTJX0zeMKvx/6eUaTpTidAws9C1AoZoFFUM=
-----END CERTIFICATE-----
Certificate:
    Data:
        Version: 1 (0x0)
        Serial Number:
            25:a1:cc:a0:a1:da:94:52:52:1d:e7:e0:b7:e7:30:d9:7d:f8:10:dd
        Signature Algorithm: NULL
        Issuer: C = FR, ST = IDF, L = Paris, O = Local NODE-OPCUA Certificate Authority, CN = NodeOPCUA-CA
        Validity
            Not Before: Oct 10 00:24:20 2022 GMT
            Not After : Oct  7 00:24:20 2032 GMT
        Subject: C = FR, ST = IDF, L = Paris, O = Local NODE-OPCUA Certificate Authority, CN = NodeOPCUA-CA
        Subject Public Key Info:
            Public Key Algorithm: rsaEncryption
                RSA Public-Key: (2048 bit)
                Modulus:
                    00:b1:93:34:5c:80:c9:a5:84:47:93:3b:85:00:4c:
                    54:2a:8c:d3:fb:1c:4d:4d:6a:47:0f:5f:ea:97:60:
                    96:b3:85:89:1c:b3:22:44:ee:52:54:c2:f5:a3:9b:
                    7c:34:56:f7:06:5c:da:6d:55:a8:ca:5f:88:79:d8:
                    a5:4c:fe:37:ab:04:cf:54:69:6c:da:1f:75:a9:8c:
                    e2:5e:35:b9:cc:10:e3:26:5b:c1:c4:08:d2:b0:0e:
                    11:b4:0a:6e:ac:a8:36:de:b2:d2:c9:1e:a2:7f:d6:
                    79:83:0d:de:33:d1:dd:54:d7:3d:c9:da:ed:0c:c4:
                    64:57:1d:27:46:74:0a:d9:17:8d:19:03:e6:21:0b:
                    27:21:20:83:fc:12:85:32:92:27:53:0a:47:d9:57:
                    b8:e9:ea:9f:5f:58:1a:8b:de:3e:1e:e2:1e:f0:06:
                    d4:5c:6d:96:ca:96:f8:18:6d:4b:38:4d:d0:99:a8:
                    0a:5d:d0:41:1d:09:62:24:f0:7c:ef:e1:dd:39:f3:
                    20:f7:57:ea:05:aa:2a:92:c6:f4:3d:7e:ba:7c:67:
                    8a:e6:56:c0:e3:9f:5b:3e:75:b9:5e:5e:92:58:f5:
                    af:99:5f:54:e9:9c:ff:07:2b:89:79:92:e1:9e:d6:
                    5e:05:7a:ce:a5:2b:36:07:f3:9c:cc:ca:c6:fa:15:
                    17:59
                Exponent: 65537 (0x10001)
    Signature Algorithm: NULL
-----BEGIN CERTIFICATE-----
MIIE8zCCA9ugAwIBAgIUJaHMoKHalFJSHefgt+cw2X34EN0wDQYJKoZIhvcNAQEL
BQAwczELMAkGA1UEBhMCRlIxDDAKBgNVBAgTA0lERjEOMAwGA1UEBxMFUGFyaXMx
LzAtBgNVBAoTJkxvY2FsIE5PREUtT1BDVUEgQ2VydGlmaWNhdGUgQXV0aG9yaXR5
MRUwEwYDVQQDEwxOb2RlT1BDVUEtQ0EwHhcNMjIxMDEwMDAyNDIwWhcNMzIxMDA3
MDAyNDIwWjBzMQswCQYDVQQGEwJGUjEMMAoGA1UECBMDSURGMQ4wDAYDVQQHEwVQ
YXJpczEvMC0GA1UEChMmTG9jYWwgTk9ERS1PUENVQSBDZXJ0aWZpY2F0ZSBBdXRo
b3JpdHkxFTATBgNVBAMTDE5vZGVPUENVQS1DQTCCASIwDQYJKoZIhvcNAQEBBQAD
ggEPADCCAQoCggEBALGTNFyAyaWER5M7hQBMVCqM0/scTU1qRw9f6pdglrOFiRyz
IkTuUlTC9aObfDRW9wZc2m1VqMpfiHnYpUz+N6sEz1RpbNofdamM4l41ucwQ4yZb
wcQI0rAOEbQKbqyoNt6y0skeon/WeYMN3jPR3VTXPcna7QzEZFcdJ0Z0CtkXjRkD
5iELJyEgg/wShTKSJ1MKR9lXuOnqn19YGovePh7iHvAG1FxtlsqW+BhtSzhN0Jmo
Cl3QQR0JYiTwfO/h3TnzIPdX6gWqKpLG9D1+unxniuZWwOOfWz51uV5eklj1r5lf
VOmc/wcriXmS4Z7WXgV6zqUrNgfznMzKxvoVF1kCAwEAAaOCAX0wggF5MB0GA1Ud
DgQWBBSnFWGatYHH99B2ZQ3af+ze8k/I6zCBsAYDVR0jBIGoMIGlgBSnFWGatYHH
99B2ZQ3af+ze8k/I66F3pHUwczELMAkGA1UEBhMCRlIxDDAKBgNVBAgTA0lERjEO
MAwGA1UEBxMFUGFyaXMxLzAtBgNVBAoTJkxvY2FsIE5PREUtT1BDVUEgQ2VydGlm
aWNhdGUgQXV0aG9yaXR5MRUwEwYDVQQDEwxOb2RlT1BDVUEtQ0GCFCWhzKCh2pRS
Uh3n4LfnMNl9+BDdMAwGA1UdEwQFMAMBAf8wDgYDVR0PAQH/BAQDAgEGMFcGCWCG
SAGG+EIBDQRKFkhDQSBDZXJ0aWZpY2F0ZSBnZW5lcmF0ZWQgYnkgTm9kZS1PUENV
QSBDZXJ0aWZpY2F0ZSB1dGlsaXR5IHVzaW5nIG9wZW5zc2wwLgYDVR0fBCcwJTAj
oCGgH4YdaHR0cDovL2xvY2FsaG9zdDo4OTAwL2NybC5wZW0wDQYJKoZIhvcNAQEL
BQADggEBABkX6R3TgC0r+xYWU2euItmht2l1Ux0JYBmLmMsNUyr+aFCqEcQ/CPU5
J9s9OetGIeiBF6RwJwv8t6eaV8LLpGEFKZYSOIwqQ0psuA4+/spo+edLaRraLsX4
3S6XNzViXfLHIoEGQm2c243P0jVdmASPkg5NwfvtzCaMlcUFcwMAyhJqh5NjHtLz
WoJLtQrBonm9totUDdcvL2m5/3uFaDsrDc8YB4GRECUwbhjvNv60wyi1qa9EGFeh
T6V15FqQPWNs2oWbqaBMFdkidXRjF4MYU/XCIW9nTfaCV6aT1U2Ox/vjQjdC1xsq
XV46vayJH4kVdNzfDgedlp5614mu1Mc=
-----END CERTIFICATE-----
