Certificate Request:
    Data:
        Version: 1 (0x0)
        Subject: C = FR, O = NodeOPCUA, CN = NodeOPCUA
        Subject Public Key Info:
            Public Key Algorithm: rsaEncryption
                RSA Public-Key: (2048 bit)
                Modulus:
                    00:f1:61:cf:e4:4d:fc:61:50:0e:9e:31:ac:f4:22:
                    66:60:df:3b:b5:77:b4:bc:55:5d:39:f3:83:06:19:
                    59:2e:cb:cf:38:6f:01:24:a5:eb:59:d1:9d:41:d2:
                    65:9d:62:ff:6e:91:d1:d1:3d:17:a0:39:bd:8d:a5:
                    bf:32:e2:61:db:8c:99:c5:e7:94:8e:6c:15:66:63:
                    c9:ff:ed:20:2d:70:c7:5f:f4:95:1f:76:f8:72:12:
                    5c:e5:b4:ea:5b:c7:89:d2:72:c4:dc:e7:f9:b7:6b:
                    e6:c2:c2:e2:09:07:31:a4:7d:88:75:0b:8a:80:74:
                    8e:e6:2d:fe:20:1b:bc:55:60:1b:8f:64:da:ce:e6:
                    d4:78:f1:d2:31:ba:a0:a9:cc:fe:1b:8a:e5:46:98:
                    f5:ac:65:65:20:1c:4a:00:65:e6:b3:c6:26:c9:9b:
                    99:1a:dc:96:ce:e1:b6:9c:28:10:ad:ad:e1:b7:92:
                    cd:0e:09:33:24:76:43:ec:b4:47:77:5e:e4:ea:67:
                    39:b8:dd:06:29:08:3a:71:8f:34:66:47:f4:fe:7e:
                    b8:78:04:da:a3:b2:2d:5c:b2:55:eb:9d:d8:91:31:
                    7a:7d:8e:7e:aa:15:6d:1e:b8:a2:42:07:b9:3a:b6:
                    b5:7d:d5:6b:06:3d:f2:4e:9e:fb:4c:ff:e8:06:77:
                    42:57
                Exponent: 65537 (0x10001)
        Attributes:
        Requested Extensions:
            X509v3 Basic Constraints: 
                CA:FALSE
            X509v3 Key Usage: critical
                Certificate Sign, CRL Sign
            X509v3 Subject Alternative Name: 
                URI:urn:bc96d73fb3b6:NodeOPCUA-DiscoveryServerRevoked, DNS:bc96d73fb3b6, IP Address:127.0.0.1
    Signature Algorithm: sha256WithRSAEncryption
         41:0d:a4:f9:b6:d0:5f:e1:1b:17:4c:53:eb:70:4c:b5:09:63:
         de:7f:3b:46:58:cc:81:2f:f1:59:a3:20:4b:de:9d:72:a7:cf:
         63:5d:12:45:b9:da:79:a4:1d:c9:6f:96:6f:55:84:07:2a:01:
         06:61:aa:a4:15:61:52:94:44:d5:43:38:17:eb:25:9d:8d:36:
         1a:0f:35:ff:21:58:4a:72:86:a2:2a:c5:11:be:19:c4:25:b4:
         e2:d3:28:e2:c9:e7:13:dc:50:2b:b0:8a:28:96:30:bb:fa:5a:
         b1:5b:30:a5:46:93:15:fa:84:98:75:b1:72:4e:ec:03:59:2c:
         15:0a:e3:50:a6:f5:4a:de:08:0f:4e:ba:3b:bf:e6:64:b4:c0:
         b3:e5:f1:9a:a2:60:03:72:8d:b8:48:f3:88:40:f4:8b:a1:db:
         43:20:8b:3f:4c:af:26:0d:17:be:0d:e5:03:97:6a:75:e8:2c:
         b5:3b:60:3c:6f:0c:8f:ed:84:e2:ca:50:b2:69:9f:db:22:a2:
         a8:5a:33:c7:00:cf:89:4c:c9:35:fc:91:39:80:01:f0:e8:b6:
         be:88:0e:b3:3f:bf:a2:28:a3:21:1f:08:0a:4b:c4:92:74:31:
         3b:9d:3c:85:f3:d6:7f:5a:13:6d:0e:8f:ed:ac:6b:c5:73:d7:
         fe:a0:ee:90
-----BEGIN CERTIFICATE REQUEST-----
MIIC+DCCAeACAQAwNTELMAkGA1UEBhMCRlIxEjAQBgNVBAoMCU5vZGVPUENVQTES
MBAGA1UEAwwJTm9kZU9QQ1VBMIIBIjANBgkqhkiG9w0BAQEFAAOCAQ8AMIIBCgKC
AQEA8WHP5E38YVAOnjGs9CJmYN87tXe0vFVdOfODBhlZLsvPOG8BJKXrWdGdQdJl
nWL/bpHR0T0XoDm9jaW/MuJh24yZxeeUjmwVZmPJ/+0gLXDHX/SVH3b4chJc5bTq
W8eJ0nLE3Of5t2vmwsLiCQcxpH2IdQuKgHSO5i3+IBu8VWAbj2TazubUePHSMbqg
qcz+G4rlRpj1rGVlIBxKAGXms8YmyZuZGtyWzuG2nCgQra3ht5LNDgkzJHZD7LRH
d17k6mc5uN0GKQg6cY80Zkf0/n64eATao7ItXLJV653YkTF6fY5+qhVtHriiQge5
Ora1fdVrBj3yTp77TP/oBndCVwIDAQABoH4wfAYJKoZIhvcNAQkOMW8wbTAJBgNV
HRMEAjAAMA4GA1UdDwEB/wQEAwIBBjBQBgNVHREESTBHhjF1cm46YmM5NmQ3M2Zi
M2I2Ok5vZGVPUENVQS1EaXNjb3ZlcnlTZXJ2ZXJSZXZva2VkggxiYzk2ZDczZmIz
YjaHBH8AAAEwDQYJKoZIhvcNAQELBQADggEBAEENpPm20F/hGxdMU+twTLUJY95/
O0ZYzIEv8VmjIEvenXKnz2NdEkW52nmkHclvlm9VhAcqAQZhqqQVYVKURNVDOBfr
JZ2NNhoPNf8hWEpyhqIqxRG+GcQltOLTKOLJ5xPcUCuwiiiWMLv6WrFbMKVGkxX6
hJh1sXJO7ANZLBUK41Cm9UreCA9Ouju/5mS0wLPl8ZqiYANyjbhI84hA9Iuh20Mg
iz9MryYNF74N5QOXanXoLLU7YDxvDI/thOLKULJpn9sioqhaM8cAz4lMyTX8kTmA
AfDotr6IDrM/v6IooyEfCApLxJJ0MTudPIXz1n9aE20Oj+2sa8Vz1/6g7pA=
-----END CERTIFICATE REQUEST-----
