Certificate Request:
    Data:
        Version: 1 (0x0)
        Subject: C = FR, O = NodeOPCUA, CN = NodeOPCUA
        Subject Public Key Info:
            Public Key Algorithm: rsaEncryption
                RSA Public-Key: (3072 bit)
                Modulus:
                    00:c6:6f:33:41:01:74:8b:ed:dd:51:ad:53:aa:08:
                    bb:89:4a:a8:42:75:53:69:be:23:fd:8e:9b:19:79:
                    fe:79:70:95:8b:fd:2b:50:1b:7e:49:29:6b:de:42:
                    d4:5d:8d:1b:25:0f:dc:c6:4d:c7:47:2f:88:7e:da:
                    4d:fd:33:b7:bc:89:d6:52:3f:cd:5b:b9:53:e5:8d:
                    91:d0:54:c2:77:c0:27:a2:78:7a:cf:3c:11:df:28:
                    ad:a2:d0:5e:7d:89:dc:ba:6c:f7:d0:c6:ab:ba:90:
                    b2:c1:c8:15:b5:00:04:cf:10:b8:33:89:a0:67:f8:
                    d1:c7:a3:dc:ba:fd:fb:54:1d:53:32:70:08:8f:af:
                    8e:1e:e8:86:b5:9c:92:02:28:79:4a:3b:37:26:bc:
                    bb:69:12:d9:40:83:e0:dd:72:af:ba:a9:a7:b8:ad:
                    d8:70:34:8c:e0:08:87:86:4b:dd:4b:b5:29:f3:5c:
                    e9:98:ce:e5:48:87:bb:e6:4c:ea:e2:b3:33:dc:49:
                    93:11:dc:79:4c:88:db:78:36:27:90:89:fc:5d:31:
                    60:fd:e9:d1:45:cb:bb:dd:e1:ed:a9:c0:70:b5:61:
                    ef:71:7e:84:b1:1b:43:2c:4b:a4:c1:17:43:64:f9:
                    5c:ab:c7:b9:ec:d7:77:2c:78:49:4e:0a:c9:8b:b8:
                    06:16:a4:8e:e5:2c:74:42:48:40:61:2c:01:e6:8d:
                    f6:89:05:bb:07:0e:6c:7b:ad:3f:09:7c:55:8d:15:
                    77:e2:21:42:c0:cb:83:24:74:d9:31:12:bf:14:5a:
                    e4:f1:97:2b:9e:7d:7d:04:03:44:5f:1c:e1:20:fa:
                    2c:70:20:f8:fe:9b:a1:f0:0e:f3:64:8b:85:8c:10:
                    98:27:05:ee:ae:b5:86:b9:d4:d3:fc:b3:c0:5a:3a:
                    1c:06:36:d7:94:29:22:99:3d:33:8d:4f:05:98:8a:
                    d6:08:85:6f:1b:d0:3f:5f:15:e2:f7:dd:d5:2d:55:
                    49:7c:11:90:57:20:8a:ef:21:6f
                Exponent: 65537 (0x10001)
        Attributes:
        Requested Extensions:
            X509v3 Basic Constraints: 
                CA:FALSE
            X509v3 Key Usage: critical
                Certificate Sign, CRL Sign
            X509v3 Subject Alternative Name: 
                URI:urn:bc96d73fb3b6:NodeOPCUA-DiscoveryServerRevoked, DNS:bc96d73fb3b6, IP Address:127.0.0.1
    Signature Algorithm: sha256WithRSAEncryption
         19:d7:9f:7c:fd:f0:8d:fc:89:5e:50:dc:f0:93:ef:3e:bc:76:
         1b:ac:a0:68:06:38:54:93:cc:73:3c:65:07:20:c9:38:cf:f3:
         86:07:54:99:a0:e1:da:d2:3a:9c:1e:4c:0f:18:60:a9:bc:dc:
         9a:33:a4:4c:83:53:4c:20:7d:11:cb:a0:ad:19:c6:c9:5d:97:
         5d:80:1f:c8:fb:89:53:57:c4:9f:f1:a6:9f:92:df:03:d2:a3:
         12:b8:13:4f:26:b6:0d:be:cc:e1:a3:f4:75:6d:d5:e5:9f:3d:
         01:33:06:05:d9:74:76:ed:49:fc:a0:45:6f:1a:e1:16:ad:d1:
         a0:0b:bd:c2:0d:38:58:2b:02:39:02:16:8e:f1:49:52:5d:d3:
         13:61:6b:13:aa:09:7e:94:4e:a7:7a:12:d7:73:e8:f6:cd:61:
         da:5c:6d:98:3f:d1:e1:15:7f:4d:e9:68:13:cf:64:2e:11:65:
         da:b2:68:e0:87:d7:2f:ab:b0:b2:8a:c8:be:35:e4:a2:44:d0:
         eb:4a:87:81:18:29:b1:88:0a:d3:fd:24:64:df:4c:ed:49:ea:
         20:a6:b0:6c:79:b9:90:b4:b2:cb:41:09:65:f1:2e:49:b9:aa:
         b1:3e:d2:d4:da:73:0c:fb:da:f7:78:13:b7:d7:0f:44:4d:b4:
         f8:a7:78:60:07:8a:32:9b:dd:d4:b7:b6:ac:c6:4a:33:b0:66:
         10:53:ac:0e:7b:35:c0:3e:c1:08:95:c4:6f:4d:95:ed:47:1c:
         73:d1:c7:fb:22:31:ed:17:bf:42:ca:2e:bb:21:c1:e1:b9:64:
         0c:e8:dc:48:84:eb:88:16:59:8f:e9:62:d0:61:0f:e1:5f:d3:
         5c:59:8d:c1:95:f8:86:82:aa:a2:49:1c:c7:66:f1:c5:fc:a2:
         7f:d3:85:22:61:f9:c3:75:e0:83:27:d5:c2:b1:1c:35:7b:d7:
         f7:2a:c2:82:94:45:eb:b4:f8:1b:f6:e4:3f:71:68:18:d3:17:
         6c:98:57:8a:d3:12
-----BEGIN CERTIFICATE REQUEST-----
MIID+DCCAmACAQAwNTELMAkGA1UEBhMCRlIxEjAQBgNVBAoMCU5vZGVPUENVQTES
MBAGA1UEAwwJTm9kZU9QQ1VBMIIBojANBgkqhkiG9w0BAQEFAAOCAY8AMIIBigKC
AYEAxm8zQQF0i+3dUa1Tqgi7iUqoQnVTab4j/Y6bGXn+eXCVi/0rUBt+SSlr3kLU
XY0bJQ/cxk3HRy+IftpN/TO3vInWUj/NW7lT5Y2R0FTCd8Anonh6zzwR3yitotBe
fYncumz30MarupCywcgVtQAEzxC4M4mgZ/jRx6Pcuv37VB1TMnAIj6+OHuiGtZyS
Aih5Sjs3Jry7aRLZQIPg3XKvuqmnuK3YcDSM4AiHhkvdS7Up81zpmM7lSIe75kzq
4rMz3EmTEdx5TIjbeDYnkIn8XTFg/enRRcu73eHtqcBwtWHvcX6EsRtDLEukwRdD
ZPlcq8e57Nd3LHhJTgrJi7gGFqSO5Sx0QkhAYSwB5o32iQW7Bw5se60/CXxVjRV3
4iFCwMuDJHTZMRK/FFrk8Zcrnn19BANEXxzhIPoscCD4/puh8A7zZIuFjBCYJwXu
rrWGudTT/LPAWjocBjbXlCkimT0zjU8FmIrWCIVvG9A/XxXi993VLVVJfBGQVyCK
7yFvAgMBAAGgfjB8BgkqhkiG9w0BCQ4xbzBtMAkGA1UdEwQCMAAwDgYDVR0PAQH/
BAQDAgEGMFAGA1UdEQRJMEeGMXVybjpiYzk2ZDczZmIzYjY6Tm9kZU9QQ1VBLURp
c2NvdmVyeVNlcnZlclJldm9rZWSCDGJjOTZkNzNmYjNiNocEfwAAATANBgkqhkiG
9w0BAQsFAAOCAYEAGdeffP3wjfyJXlDc8JPvPrx2G6ygaAY4VJPMczxlByDJOM/z
hgdUmaDh2tI6nB5MDxhgqbzcmjOkTINTTCB9EcugrRnGyV2XXYAfyPuJU1fEn/Gm
n5LfA9KjErgTTya2Db7M4aP0dW3V5Z89ATMGBdl0du1J/KBFbxrhFq3RoAu9wg04
WCsCOQIWjvFJUl3TE2FrE6oJfpROp3oS13Po9s1h2lxtmD/R4RV/TeloE89kLhFl
2rJo4IfXL6uwsorIvjXkokTQ60qHgRgpsYgK0/0kZN9M7UnqIKawbHm5kLSyy0EJ
ZfEuSbmqsT7S1NpzDPva93gTt9cPRE20+Kd4YAeKMpvd1Le2rMZKM7BmEFOsDns1
wD7BCJXEb02V7Uccc9HH+yIx7Re/QsouuyHB4blkDOjcSITriBZZj+li0GEP4V/T
XFmNwZX4hoKqokkcx2bxxfyif9OFImH5w3XggyfVwrEcNXvX9yrCgpRF67T4G/bk
P3FoGNMXbJhXitMS
-----END CERTIFICATE REQUEST-----
