Certificate:
    Data:
        Version: 3 (0x2)
        Serial Number: 4154 (0x103a)
        Signature Algorithm: sha256WithRSAEncryption
        Issuer: C=FR, ST=IDF, L=Paris, O=Local NODE-OPCUA Certificate Authority, CN=NodeOPCUA-CA
        Validity
            Not Before: Oct 10 00:24:20 2023 GMT
            Not After : Oct  9 00:24:20 2024 GMT
        Subject: C=FR, O=NodeOPCUA, CN=NodeOPCUA
        Subject Public Key Info:
            Public Key Algorithm: rsaEncryption
                RSA Public-Key: (4096 bit)
                Modulus:
                    00:ce:ad:14:98:46:d7:fe:23:95:ac:3d:6c:82:c6:
                    3e:f6:43:33:f6:ec:5c:37:e5:4c:55:43:65:30:f8:
                    ea:4e:39:ad:cc:da:fe:93:19:76:c3:69:7e:df:91:
                    56:0b:08:1a:88:c2:e3:47:c7:5a:96:61:23:f2:4c:
                    87:8c:a2:60:89:d7:6b:a6:c9:ef:95:91:dd:64:cf:
                    d3:76:fd:d5:be:d4:b5:5d:2a:3c:80:2e:9a:84:4f:
                    ca:0f:24:c6:06:0d:d0:58:eb:d9:1c:00:a0:f3:c5:
                    a5:2a:d3:0b:05:7a:a5:56:86:a0:c6:97:ce:0b:c6:
                    ac:26:93:1c:9a:62:ca:d5:a9:ee:c8:ef:f9:7b:aa:
                    06:82:6a:d2:2f:a1:d9:ff:db:26:93:d2:c3:8f:b8:
                    c9:68:f1:e9:c6:02:40:7e:a8:ee:c8:99:b9:e9:a5:
                    ea:48:02:23:44:94:37:de:e4:c1:0e:2a:a6:d6:52:
                    43:5a:c8:9d:2e:35:23:88:b3:a8:1a:00:db:ee:e6:
                    40:56:c2:05:91:cd:55:98:58:e3:3e:2d:34:0e:cd:
                    20:23:cf:f2:fb:ad:ed:af:79:30:d5:b0:e4:81:00:
                    ac:0a:4c:8f:4e:97:2e:8f:af:2b:87:f8:8c:a2:4d:
                    72:5b:87:11:bf:36:74:ec:72:46:3b:88:4c:90:f4:
                    46:fe:b9:c9:e6:f5:60:c0:f1:82:14:15:26:63:e2:
                    ce:a9:e4:ba:a6:62:74:ad:90:33:72:6f:30:37:10:
                    81:62:3b:1b:d5:00:8b:4b:58:51:d1:3f:6a:eb:05:
                    40:21:b7:2d:79:91:32:c8:46:d7:dd:47:d3:c1:f0:
                    c9:42:3f:37:ba:d3:46:a0:55:3c:6b:97:81:ba:a4:
                    21:63:e5:7e:df:0b:29:95:35:05:9c:79:fc:65:8f:
                    c6:96:02:c9:7f:d1:ab:c7:49:82:d6:76:6a:02:49:
                    a6:28:f2:96:d6:8b:c2:f7:77:85:ba:5a:64:9d:cd:
                    4e:af:e7:9c:c1:ca:16:24:a9:fa:52:38:1c:9c:c0:
                    fb:a4:b8:41:7b:21:60:41:51:a5:40:a2:de:be:6f:
                    d9:7c:67:89:c8:6b:c0:cd:00:f9:71:e3:5c:4f:1b:
                    3e:b3:4f:8f:97:ef:23:1e:27:d4:9e:9c:8b:2f:31:
                    04:8c:1a:ff:b2:fa:c0:87:09:bf:35:8e:1e:44:61:
                    0e:ab:14:5a:80:f1:2a:0c:0a:db:de:74:33:f1:d4:
                    4c:c9:54:2c:c1:46:de:45:d6:34:77:77:a3:bd:d1:
                    e1:8c:a0:7e:40:89:83:d9:5e:b9:6b:c1:53:53:6c:
                    f5:89:20:64:42:aa:e1:05:5c:eb:d9:e1:c2:59:df:
                    0b:9b:13
                Exponent: 65537 (0x10001)
        X509v3 extensions:
            X509v3 Basic Constraints: critical
                CA:FALSE
            X509v3 Subject Key Identifier: 
                AF:28:52:E8:58:19:28:3D:91:99:0F:12:32:A6:10:8A:15:14:CB:DB
            X509v3 Authority Key Identifier: 
                keyid:A7:15:61:9A:B5:81:C7:F7:D0:76:65:0D:DA:7F:EC:DE:F2:4F:C8:EB
                DirName:/C=FR/ST=IDF/L=Paris/O=Local NODE-OPCUA Certificate Authority/CN=NodeOPCUA-CA
                serial:25:A1:CC:A0:A1:DA:94:52:52:1D:E7:E0:B7:E7:30:D9:7D:F8:10:DD

            X509v3 Subject Alternative Name: 
                URI:urn:bc96d73fb3b6:NodeOPCUA-DiscoveryServer, DNS:bc96d73fb3b6, IP Address:127.0.0.1
            Netscape Comment: 
                OpenSSL Generated Certificate
            X509v3 Key Usage: critical
                Digital Signature, Non Repudiation, Key Encipherment, Data Encipherment, Key Agreement, Certificate Sign
            X509v3 Extended Key Usage: critical
                TLS Web Server Authentication, TLS Web Client Authentication
    Signature Algorithm: sha256WithRSAEncryption
         74:f7:7f:d9:55:74:0d:d3:96:4a:71:aa:fb:de:c0:e6:99:15:
         3e:20:95:6e:38:d1:d9:53:82:45:0e:78:83:2a:40:4e:92:4a:
         44:c7:42:9f:89:8d:82:5d:94:e2:65:22:ac:25:78:1a:db:b7:
         e7:fa:1e:ed:09:98:2f:fa:ca:e7:5d:be:33:f5:e0:96:e9:8e:
         96:c1:01:ca:e9:c1:9c:9a:a5:6f:7a:9d:a8:29:52:8e:19:2f:
         33:60:e1:15:9b:4b:0e:51:f6:84:68:57:11:5b:ff:e6:da:7e:
         ee:fd:eb:85:b0:56:9c:86:e4:b9:6c:cf:6b:ea:a4:54:36:1d:
         b3:c1:f4:6d:65:d7:bb:8f:6f:a7:ff:35:fa:61:93:cf:0c:38:
         9d:22:44:c1:ba:11:e5:b4:28:b0:20:e5:1e:3b:a5:84:2c:5c:
         3a:c7:ed:c4:c3:2c:61:2d:70:49:9f:e9:d2:14:c7:84:6e:71:
         30:cb:fb:29:e2:6e:98:0a:5e:45:4a:65:20:de:5c:26:38:f9:
         17:cb:2c:e2:9a:8f:4b:51:3c:6b:c5:f8:db:7f:06:17:3d:7a:
         34:1e:46:60:42:04:83:6d:90:35:d5:9f:84:50:65:4c:fa:03:
         77:59:87:f0:50:e0:e5:fd:17:c4:42:15:23:2b:95:12:81:a6:
         1a:53:e1:72
-----BEGIN CERTIFICATE-----
MIIFtTCCBJ2gAwIBAgICEDowDQYJKoZIhvcNAQELBQAwczELMAkGA1UEBhMCRlIx
DDAKBgNVBAgTA0lERjEOMAwGA1UEBxMFUGFyaXMxLzAtBgNVBAoTJkxvY2FsIE5P
REUtT1BDVUEgQ2VydGlmaWNhdGUgQXV0aG9yaXR5MRUwEwYDVQQDEwxOb2RlT1BD
VUEtQ0EwHhcNMjMxMDEwMDAyNDIwWhcNMjQxMDA5MDAyNDIwWjA1MQswCQYDVQQG
EwJGUjESMBAGA1UECgwJTm9kZU9QQ1VBMRIwEAYDVQQDDAlOb2RlT1BDVUEwggIi
MA0GCSqGSIb3DQEBAQUAA4ICDwAwggIKAoICAQDOrRSYRtf+I5WsPWyCxj72QzP2
7Fw35UxVQ2Uw+OpOOa3M2v6TGXbDaX7fkVYLCBqIwuNHx1qWYSPyTIeMomCJ12um
ye+Vkd1kz9N2/dW+1LVdKjyALpqET8oPJMYGDdBY69kcAKDzxaUq0wsFeqVWhqDG
l84LxqwmkxyaYsrVqe7I7/l7qgaCatIvodn/2yaT0sOPuMlo8enGAkB+qO7Imbnp
pepIAiNElDfe5MEOKqbWUkNayJ0uNSOIs6gaANvu5kBWwgWRzVWYWOM+LTQOzSAj
z/L7re2veTDVsOSBAKwKTI9Oly6PryuH+IyiTXJbhxG/NnTsckY7iEyQ9Eb+ucnm
9WDA8YIUFSZj4s6p5LqmYnStkDNybzA3EIFiOxvVAItLWFHRP2rrBUAhty15kTLI
RtfdR9PB8MlCPze600agVTxrl4G6pCFj5X7fCymVNQWcefxlj8aWAsl/0avHSYLW
dmoCSaYo8pbWi8L3d4W6WmSdzU6v55zByhYkqfpSOBycwPukuEF7IWBBUaVAot6+
b9l8Z4nIa8DNAPlx41xPGz6zT4+X7yMeJ9SenIsvMQSMGv+y+sCHCb81jh5EYQ6r
FFqA8SoMCtvedDPx1EzJVCzBRt5F1jR3d6O90eGMoH5AiYPZXrlrwVNTbPWJIGRC
quEFXOvZ4cJZ3wubEwIDAQABo4IBjzCCAYswDAYDVR0TAQH/BAIwADAdBgNVHQ4E
FgQUryhS6FgZKD2RmQ8SMqYQihUUy9swgbAGA1UdIwSBqDCBpYAUpxVhmrWBx/fQ
dmUN2n/s3vJPyOuhd6R1MHMxCzAJBgNVBAYTAkZSMQwwCgYDVQQIEwNJREYxDjAM
BgNVBAcTBVBhcmlzMS8wLQYDVQQKEyZMb2NhbCBOT0RFLU9QQ1VBIENlcnRpZmlj
YXRlIEF1dGhvcml0eTEVMBMGA1UEAxMMTm9kZU9QQ1VBLUNBghQlocygodqUUlId
5+C35zDZffgQ3TBJBgNVHREEQjBAhip1cm46YmM5NmQ3M2ZiM2I2Ok5vZGVPUENV
QS1EaXNjb3ZlcnlTZXJ2ZXKCDGJjOTZkNzNmYjNiNocEfwAAATAsBglghkgBhvhC
AQ0EHxYdT3BlblNTTCBHZW5lcmF0ZWQgQ2VydGlmaWNhdGUwDgYDVR0PAQH/BAQD
AgL8MCAGA1UdJQEB/wQWMBQGCCsGAQUFBwMBBggrBgEFBQcDAjANBgkqhkiG9w0B
AQsFAAOCAQEAdPd/2VV0DdOWSnGq+97A5pkVPiCVbjjR2VOCRQ54gypATpJKRMdC
n4mNgl2U4mUirCV4Gtu35/oe7QmYL/rK512+M/XglumOlsEByunBnJqlb3qdqClS
jhkvM2DhFZtLDlH2hGhXEVv/5tp+7v3rhbBWnIbkuWzPa+qkVDYds8H0bWXXu49v
p/81+mGTzww4nSJEwboR5bQosCDlHjulhCxcOsftxMMsYS1wSZ/p0hTHhG5xMMv7
KeJumApeRUplIN5cJjj5F8ss4pqPS1E8a8X4238GFz16NB5GYEIEg22QNdWfhFBl
TPoDd1mH8FDg5f0XxEIVIyuVEoGmGlPhcg==
-----END CERTIFICATE-----
Certificate:
    Data:
        Version: 1 (0x0)
        Serial Number:
            25:a1:cc:a0:a1:da:94:52:52:1d:e7:e0:b7:e7:30:d9:7d:f8:10:dd
        Signature Algorithm: NULL
        Issuer: C = FR, ST = IDF, L = Paris, O = Local NODE-OPCUA Certificate Authority, CN = NodeOPCUA-CA
        Validity
            Not Before: Oct 10 00:24:20 2022 GMT
            Not After : Oct  7 00:24:20 2032 GMT
        Subject: C = FR, ST = IDF, L = Paris, O = Local NODE-OPCUA Certificate Authority, CN = NodeOPCUA-CA
        Subject Public Key Info:
            Public Key Algorithm: rsaEncryption
                RSA Public-Key: (2048 bit)
                Modulus:
                    00:b1:93:34:5c:80:c9:a5:84:47:93:3b:85:00:4c:
                    54:2a:8c:d3:fb:1c:4d:4d:6a:47:0f:5f:ea:97:60:
                    96:b3:85:89:1c:b3:22:44:ee:52:54:c2:f5:a3:9b:
                    7c:34:56:f7:06:5c:da:6d:55:a8:ca:5f:88:79:d8:
                    a5:4c:fe:37:ab:04:cf:54:69:6c:da:1f:75:a9:8c:
                    e2:5e:35:b9:cc:10:e3:26:5b:c1:c4:08:d2:b0:0e:
                    11:b4:0a:6e:ac:a8:36:de:b2:d2:c9:1e:a2:7f:d6:
                    79:83:0d:de:33:d1:dd:54:d7:3d:c9:da:ed:0c:c4:
                    64:57:1d:27:46:74:0a:d9:17:8d:19:03:e6:21:0b:
                    27:21:20:83:fc:12:85:32:92:27:53:0a:47:d9:57:
                    b8:e9:ea:9f:5f:58:1a:8b:de:3e:1e:e2:1e:f0:06:
                    d4:5c:6d:96:ca:96:f8:18:6d:4b:38:4d:d0:99:a8:
                    0a:5d:d0:41:1d:09:62:24:f0:7c:ef:e1:dd:39:f3:
                    20:f7:57:ea:05:aa:2a:92:c6:f4:3d:7e:ba:7c:67:
                    8a:e6:56:c0:e3:9f:5b:3e:75:b9:5e:5e:92:58:f5:
                    af:99:5f:54:e9:9c:ff:07:2b:89:79:92:e1:9e:d6:
                    5e:05:7a:ce:a5:2b:36:07:f3:9c:cc:ca:c6:fa:15:
                    17:59
                Exponent: 65537 (0x10001)
    Signature Algorithm: NULL
-----BEGIN CERTIFICATE-----
MIIE8zCCA9ugAwIBAgIUJaHMoKHalFJSHefgt+cw2X34EN0wDQYJKoZIhvcNAQEL
BQAwczELMAkGA1UEBhMCRlIxDDAKBgNVBAgTA0lERjEOMAwGA1UEBxMFUGFyaXMx
LzAtBgNVBAoTJkxvY2FsIE5PREUtT1BDVUEgQ2VydGlmaWNhdGUgQXV0aG9yaXR5
MRUwEwYDVQQDEwxOb2RlT1BDVUEtQ0EwHhcNMjIxMDEwMDAyNDIwWhcNMzIxMDA3
MDAyNDIwWjBzMQswCQYDVQQGEwJGUjEMMAoGA1UECBMDSURGMQ4wDAYDVQQHEwVQ
YXJpczEvMC0GA1UEChMmTG9jYWwgTk9ERS1PUENVQSBDZXJ0aWZpY2F0ZSBBdXRo
b3JpdHkxFTATBgNVBAMTDE5vZGVPUENVQS1DQTCCASIwDQYJKoZIhvcNAQEBBQAD
ggEPADCCAQoCggEBALGTNFyAyaWER5M7hQBMVCqM0/scTU1qRw9f6pdglrOFiRyz
IkTuUlTC9aObfDRW9wZc2m1VqMpfiHnYpUz+N6sEz1RpbNofdamM4l41ucwQ4yZb
wcQI0rAOEbQKbqyoNt6y0skeon/WeYMN3jPR3VTXPcna7QzEZFcdJ0Z0CtkXjRkD
5iELJyEgg/wShTKSJ1MKR9lXuOnqn19YGovePh7iHvAG1FxtlsqW+BhtSzhN0Jmo
Cl3QQR0JYiTwfO/h3TnzIPdX6gWqKpLG9D1+unxniuZWwOOfWz51uV5eklj1r5lf
VOmc/wcriXmS4Z7WXgV6zqUrNgfznMzKxvoVF1kCAwEAAaOCAX0wggF5MB0GA1Ud
DgQWBBSnFWGatYHH99B2ZQ3af+ze8k/I6zCBsAYDVR0jBIGoMIGlgBSnFWGatYHH
99B2ZQ3af+ze8k/I66F3pHUwczELMAkGA1UEBhMCRlIxDDAKBgNVBAgTA0lERjEO
MAwGA1UEBxMFUGFyaXMxLzAtBgNVBAoTJkxvY2FsIE5PREUtT1BDVUEgQ2VydGlm
aWNhdGUgQXV0aG9yaXR5MRUwEwYDVQQDEwxOb2RlT1BDVUEtQ0GCFCWhzKCh2pRS
Uh3n4LfnMNl9+BDdMAwGA1UdEwQFMAMBAf8wDgYDVR0PAQH/BAQDAgEGMFcGCWCG
SAGG+EIBDQRKFkhDQSBDZXJ0aWZpY2F0ZSBnZW5lcmF0ZWQgYnkgTm9kZS1PUENV
QSBDZXJ0aWZpY2F0ZSB1dGlsaXR5IHVzaW5nIG9wZW5zc2wwLgYDVR0fBCcwJTAj
oCGgH4YdaHR0cDovL2xvY2FsaG9zdDo4OTAwL2NybC5wZW0wDQYJKoZIhvcNAQEL
BQADggEBABkX6R3TgC0r+xYWU2euItmht2l1Ux0JYBmLmMsNUyr+aFCqEcQ/CPU5
J9s9OetGIeiBF6RwJwv8t6eaV8LLpGEFKZYSOIwqQ0psuA4+/spo+edLaRraLsX4
3S6XNzViXfLHIoEGQm2c243P0jVdmASPkg5NwfvtzCaMlcUFcwMAyhJqh5NjHtLz
WoJLtQrBonm9totUDdcvL2m5/3uFaDsrDc8YB4GRECUwbhjvNv60wyi1qa9EGFeh
T6V15FqQPWNs2oWbqaBMFdkidXRjF4MYU/XCIW9nTfaCV6aT1U2Ox/vjQjdC1xsq
XV46vayJH4kVdNzfDgedlp5614mu1Mc=
-----END CERTIFICATE-----
