Certificate:
    Data:
        Version: 3 (0x2)
        Serial Number: 4143 (0x102f)
        Signature Algorithm: sha256WithRSAEncryption
        Issuer: C=FR, ST=IDF, L=Paris, O=Local NODE-OPCUA Certificate Authority, CN=NodeOPCUA-CA
        Validity
            Not Before: Oct 10 00:24:20 2020 GMT
            Not After : Oct 10 00:24:20 2021 GMT
        Subject: C=FR, O=NodeOPCUA, CN=NodeOPCUA
        Subject Public Key Info:
            Public Key Algorithm: rsaEncryption
                RSA Public-Key: (2048 bit)
                Modulus:
                    00:f1:61:cf:e4:4d:fc:61:50:0e:9e:31:ac:f4:22:
                    66:60:df:3b:b5:77:b4:bc:55:5d:39:f3:83:06:19:
                    59:2e:cb:cf:38:6f:01:24:a5:eb:59:d1:9d:41:d2:
                    65:9d:62:ff:6e:91:d1:d1:3d:17:a0:39:bd:8d:a5:
                    bf:32:e2:61:db:8c:99:c5:e7:94:8e:6c:15:66:63:
                    c9:ff:ed:20:2d:70:c7:5f:f4:95:1f:76:f8:72:12:
                    5c:e5:b4:ea:5b:c7:89:d2:72:c4:dc:e7:f9:b7:6b:
                    e6:c2:c2:e2:09:07:31:a4:7d:88:75:0b:8a:80:74:
                    8e:e6:2d:fe:20:1b:bc:55:60:1b:8f:64:da:ce:e6:
                    d4:78:f1:d2:31:ba:a0:a9:cc:fe:1b:8a:e5:46:98:
                    f5:ac:65:65:20:1c:4a:00:65:e6:b3:c6:26:c9:9b:
                    99:1a:dc:96:ce:e1:b6:9c:28:10:ad:ad:e1:b7:92:
                    cd:0e:09:33:24:76:43:ec:b4:47:77:5e:e4:ea:67:
                    39:b8:dd:06:29:08:3a:71:8f:34:66:47:f4:fe:7e:
                    b8:78:04:da:a3:b2:2d:5c:b2:55:eb:9d:d8:91:31:
                    7a:7d:8e:7e:aa:15:6d:1e:b8:a2:42:07:b9:3a:b6:
                    b5:7d:d5:6b:06:3d:f2:4e:9e:fb:4c:ff:e8:06:77:
                    42:57
                Exponent: 65537 (0x10001)
        X509v3 extensions:
            X509v3 Basic Constraints: critical
                CA:FALSE
            X509v3 Subject Key Identifier: 
                54:D4:48:79:3C:72:02:C3:D4:ED:A9:6A:B3:90:E3:79:49:57:1A:23
            X509v3 Authority Key Identifier: 
                keyid:A7:15:61:9A:B5:81:C7:F7:D0:76:65:0D:DA:7F:EC:DE:F2:4F:C8:EB
                DirName:/C=FR/ST=IDF/L=Paris/O=Local NODE-OPCUA Certificate Authority/CN=NodeOPCUA-CA
                serial:25:A1:CC:A0:A1:DA:94:52:52:1D:E7:E0:B7:E7:30:D9:7D:F8:10:DD

            X509v3 Subject Alternative Name: 
                URI:urn:bc96d73fb3b6:NodeOPCUA-DiscoveryServer, DNS:bc96d73fb3b6, IP Address:127.0.0.1
            Netscape Comment: 
                OpenSSL Generated Certificate
            X509v3 Key Usage: critical
                Digital Signature, Non Repudiation, Key Encipherment, Data Encipherment, Key Agreement, Certificate Sign
            X509v3 Extended Key Usage: critical
                TLS Web Server Authentication, TLS Web Client Authentication
    Signature Algorithm: sha256WithRSAEncryption
         a8:f5:ba:f8:dc:f1:da:bc:03:aa:ad:15:73:76:e5:b9:31:69:
         0a:ce:5e:62:9f:21:c1:b2:16:d8:68:e3:14:7b:7b:10:99:45:
         f0:79:51:6e:5a:26:f7:42:1a:65:36:a5:b7:b7:a9:27:d2:2c:
         8c:1d:3e:a6:3b:f4:f5:59:c2:ef:10:1b:9a:23:97:d0:cb:4f:
         ac:59:f8:c2:9b:ec:32:31:2e:7c:bb:30:3e:ef:08:b8:6c:7e:
         64:25:59:ad:69:1a:75:86:62:81:f7:88:b5:d0:2f:05:bd:ed:
         2e:ea:bd:5a:f5:b1:dc:7f:81:62:69:51:70:ed:f8:32:12:f7:
         f9:a5:ee:e9:3f:4b:35:c4:a4:27:09:7f:ee:e7:6e:f8:5c:cd:
         e8:0d:5e:60:78:19:6c:69:86:9c:d2:43:64:17:69:6b:43:48:
         67:47:f1:3d:86:f2:48:35:ea:6a:d6:dc:51:4d:b0:c4:f0:6e:
         82:19:3e:58:19:b9:30:70:fa:03:1b:6a:fd:47:6a:96:56:f8:
         27:da:3d:8f:0b:82:1b:75:58:63:4c:ab:36:64:89:33:f4:e8:
         67:83:06:dc:8d:67:f9:71:22:f0:13:38:b9:dd:0a:df:04:c7:
         9e:a1:07:e1:3e:9a:ad:e5:81:bd:60:44:29:b3:53:8a:94:7e:
         53:03:87:df
-----BEGIN CERTIFICATE-----
MIIEtTCCA52gAwIBAgICEC8wDQYJKoZIhvcNAQELBQAwczELMAkGA1UEBhMCRlIx
DDAKBgNVBAgTA0lERjEOMAwGA1UEBxMFUGFyaXMxLzAtBgNVBAoTJkxvY2FsIE5P
REUtT1BDVUEgQ2VydGlmaWNhdGUgQXV0aG9yaXR5MRUwEwYDVQQDEwxOb2RlT1BD
VUEtQ0EwHhcNMjAxMDEwMDAyNDIwWhcNMjExMDEwMDAyNDIwWjA1MQswCQYDVQQG
EwJGUjESMBAGA1UECgwJTm9kZU9QQ1VBMRIwEAYDVQQDDAlOb2RlT1BDVUEwggEi
MA0GCSqGSIb3DQEBAQUAA4IBDwAwggEKAoIBAQDxYc/kTfxhUA6eMaz0ImZg3zu1
d7S8VV0584MGGVkuy884bwEkpetZ0Z1B0mWdYv9ukdHRPRegOb2Npb8y4mHbjJnF
55SObBVmY8n/7SAtcMdf9JUfdvhyElzltOpbx4nScsTc5/m3a+bCwuIJBzGkfYh1
C4qAdI7mLf4gG7xVYBuPZNrO5tR48dIxuqCpzP4biuVGmPWsZWUgHEoAZeazxibJ
m5ka3JbO4bacKBCtreG3ks0OCTMkdkPstEd3XuTqZzm43QYpCDpxjzRmR/T+frh4
BNqjsi1cslXrndiRMXp9jn6qFW0euKJCB7k6trV91WsGPfJOnvtM/+gGd0JXAgMB
AAGjggGPMIIBizAMBgNVHRMBAf8EAjAAMB0GA1UdDgQWBBRU1Eh5PHICw9TtqWqz
kON5SVcaIzCBsAYDVR0jBIGoMIGlgBSnFWGatYHH99B2ZQ3af+ze8k/I66F3pHUw
czELMAkGA1UEBhMCRlIxDDAKBgNVBAgTA0lERjEOMAwGA1UEBxMFUGFyaXMxLzAt
BgNVBAoTJkxvY2FsIE5PREUtT1BDVUEgQ2VydGlmaWNhdGUgQXV0aG9yaXR5MRUw
EwYDVQQDEwxOb2RlT1BDVUEtQ0GCFCWhzKCh2pRSUh3n4LfnMNl9+BDdMEkGA1Ud
EQRCMECGKnVybjpiYzk2ZDczZmIzYjY6Tm9kZU9QQ1VBLURpc2NvdmVyeVNlcnZl
coIMYmM5NmQ3M2ZiM2I2hwR/AAABMCwGCWCGSAGG+EIBDQQfFh1PcGVuU1NMIEdl
bmVyYXRlZCBDZXJ0aWZpY2F0ZTAOBgNVHQ8BAf8EBAMCAvwwIAYDVR0lAQH/BBYw
FAYIKwYBBQUHAwEGCCsGAQUFBwMCMA0GCSqGSIb3DQEBCwUAA4IBAQCo9br43PHa
vAOqrRVzduW5MWkKzl5inyHBshbYaOMUe3sQmUXweVFuWib3QhplNqW3t6kn0iyM
HT6mO/T1WcLvEBuaI5fQy0+sWfjCm+wyMS58uzA+7wi4bH5kJVmtaRp1hmKB94i1
0C8Fve0u6r1a9bHcf4FiaVFw7fgyEvf5pe7pP0s1xKQnCX/u5274XM3oDV5geBls
aYac0kNkF2lrQ0hnR/E9hvJINepq1txRTbDE8G6CGT5YGbkwcPoDG2r9R2qWVvgn
2j2PC4IbdVhjTKs2ZIkz9OhngwbcjWf5cSLwEzi53QrfBMeeoQfhPpqt5YG9YEQp
s1OKlH5TA4ff
-----END CERTIFICATE-----
Certificate:
    Data:
        Version: 1 (0x0)
        Serial Number:
            25:a1:cc:a0:a1:da:94:52:52:1d:e7:e0:b7:e7:30:d9:7d:f8:10:dd
        Signature Algorithm: NULL
        Issuer: C = FR, ST = IDF, L = Paris, O = Local NODE-OPCUA Certificate Authority, CN = NodeOPCUA-CA
        Validity
            Not Before: Oct 10 00:24:20 2022 GMT
            Not After : Oct  7 00:24:20 2032 GMT
        Subject: C = FR, ST = IDF, L = Paris, O = Local NODE-OPCUA Certificate Authority, CN = NodeOPCUA-CA
        Subject Public Key Info:
            Public Key Algorithm: rsaEncryption
                RSA Public-Key: (2048 bit)
                Modulus:
                    00:b1:93:34:5c:80:c9:a5:84:47:93:3b:85:00:4c:
                    54:2a:8c:d3:fb:1c:4d:4d:6a:47:0f:5f:ea:97:60:
                    96:b3:85:89:1c:b3:22:44:ee:52:54:c2:f5:a3:9b:
                    7c:34:56:f7:06:5c:da:6d:55:a8:ca:5f:88:79:d8:
                    a5:4c:fe:37:ab:04:cf:54:69:6c:da:1f:75:a9:8c:
                    e2:5e:35:b9:cc:10:e3:26:5b:c1:c4:08:d2:b0:0e:
                    11:b4:0a:6e:ac:a8:36:de:b2:d2:c9:1e:a2:7f:d6:
                    79:83:0d:de:33:d1:dd:54:d7:3d:c9:da:ed:0c:c4:
                    64:57:1d:27:46:74:0a:d9:17:8d:19:03:e6:21:0b:
                    27:21:20:83:fc:12:85:32:92:27:53:0a:47:d9:57:
                    b8:e9:ea:9f:5f:58:1a:8b:de:3e:1e:e2:1e:f0:06:
                    d4:5c:6d:96:ca:96:f8:18:6d:4b:38:4d:d0:99:a8:
                    0a:5d:d0:41:1d:09:62:24:f0:7c:ef:e1:dd:39:f3:
                    20:f7:57:ea:05:aa:2a:92:c6:f4:3d:7e:ba:7c:67:
                    8a:e6:56:c0:e3:9f:5b:3e:75:b9:5e:5e:92:58:f5:
                    af:99:5f:54:e9:9c:ff:07:2b:89:79:92:e1:9e:d6:
                    5e:05:7a:ce:a5:2b:36:07:f3:9c:cc:ca:c6:fa:15:
                    17:59
                Exponent: 65537 (0x10001)
    Signature Algorithm: NULL
-----BEGIN CERTIFICATE-----
MIIE8zCCA9ugAwIBAgIUJaHMoKHalFJSHefgt+cw2X34EN0wDQYJKoZIhvcNAQEL
BQAwczELMAkGA1UEBhMCRlIxDDAKBgNVBAgTA0lERjEOMAwGA1UEBxMFUGFyaXMx
LzAtBgNVBAoTJkxvY2FsIE5PREUtT1BDVUEgQ2VydGlmaWNhdGUgQXV0aG9yaXR5
MRUwEwYDVQQDEwxOb2RlT1BDVUEtQ0EwHhcNMjIxMDEwMDAyNDIwWhcNMzIxMDA3
MDAyNDIwWjBzMQswCQYDVQQGEwJGUjEMMAoGA1UECBMDSURGMQ4wDAYDVQQHEwVQ
YXJpczEvMC0GA1UEChMmTG9jYWwgTk9ERS1PUENVQSBDZXJ0aWZpY2F0ZSBBdXRo
b3JpdHkxFTATBgNVBAMTDE5vZGVPUENVQS1DQTCCASIwDQYJKoZIhvcNAQEBBQAD
ggEPADCCAQoCggEBALGTNFyAyaWER5M7hQBMVCqM0/scTU1qRw9f6pdglrOFiRyz
IkTuUlTC9aObfDRW9wZc2m1VqMpfiHnYpUz+N6sEz1RpbNofdamM4l41ucwQ4yZb
wcQI0rAOEbQKbqyoNt6y0skeon/WeYMN3jPR3VTXPcna7QzEZFcdJ0Z0CtkXjRkD
5iELJyEgg/wShTKSJ1MKR9lXuOnqn19YGovePh7iHvAG1FxtlsqW+BhtSzhN0Jmo
Cl3QQR0JYiTwfO/h3TnzIPdX6gWqKpLG9D1+unxniuZWwOOfWz51uV5eklj1r5lf
VOmc/wcriXmS4Z7WXgV6zqUrNgfznMzKxvoVF1kCAwEAAaOCAX0wggF5MB0GA1Ud
DgQWBBSnFWGatYHH99B2ZQ3af+ze8k/I6zCBsAYDVR0jBIGoMIGlgBSnFWGatYHH
99B2ZQ3af+ze8k/I66F3pHUwczELMAkGA1UEBhMCRlIxDDAKBgNVBAgTA0lERjEO
MAwGA1UEBxMFUGFyaXMxLzAtBgNVBAoTJkxvY2FsIE5PREUtT1BDVUEgQ2VydGlm
aWNhdGUgQXV0aG9yaXR5MRUwEwYDVQQDEwxOb2RlT1BDVUEtQ0GCFCWhzKCh2pRS
Uh3n4LfnMNl9+BDdMAwGA1UdEwQFMAMBAf8wDgYDVR0PAQH/BAQDAgEGMFcGCWCG
SAGG+EIBDQRKFkhDQSBDZXJ0aWZpY2F0ZSBnZW5lcmF0ZWQgYnkgTm9kZS1PUENV
QSBDZXJ0aWZpY2F0ZSB1dGlsaXR5IHVzaW5nIG9wZW5zc2wwLgYDVR0fBCcwJTAj
oCGgH4YdaHR0cDovL2xvY2FsaG9zdDo4OTAwL2NybC5wZW0wDQYJKoZIhvcNAQEL
BQADggEBABkX6R3TgC0r+xYWU2euItmht2l1Ux0JYBmLmMsNUyr+aFCqEcQ/CPU5
J9s9OetGIeiBF6RwJwv8t6eaV8LLpGEFKZYSOIwqQ0psuA4+/spo+edLaRraLsX4
3S6XNzViXfLHIoEGQm2c243P0jVdmASPkg5NwfvtzCaMlcUFcwMAyhJqh5NjHtLz
WoJLtQrBonm9totUDdcvL2m5/3uFaDsrDc8YB4GRECUwbhjvNv60wyi1qa9EGFeh
T6V15FqQPWNs2oWbqaBMFdkidXRjF4MYU/XCIW9nTfaCV6aT1U2Ox/vjQjdC1xsq
XV46vayJH4kVdNzfDgedlp5614mu1Mc=
-----END CERTIFICATE-----
