Certificate Request:
    Data:
        Version: 1 (0x0)
        Subject: C = FR, O = NodeOPCUA, CN = NodeOPCUA
        Subject Public Key Info:
            Public Key Algorithm: rsaEncryption
                RSA Public-Key: (1024 bit)
                Modulus:
                    00:a6:84:9a:06:dc:9c:df:4b:7b:73:ab:7b:e4:cc:
                    41:8c:63:4a:59:d6:7f:9b:78:6e:f4:f8:99:fc:63:
                    2f:cd:d4:2e:2e:ca:b7:7d:91:cd:65:87:ed:81:4a:
                    df:fe:2d:96:8a:fa:1a:04:51:0d:ab:b2:5f:e1:65:
                    c0:ff:ba:1e:a9:0d:74:27:fe:d9:51:9c:e0:e7:4c:
                    12:ee:c7:42:9a:cd:64:12:f4:67:0b:36:d4:1f:69:
                    fe:ab:3f:db:ce:90:ce:44:24:83:e5:aa:16:0d:1b:
                    00:f6:f5:45:e7:5a:c2:f9:60:06:95:d7:f1:ac:83:
                    8f:d3:5f:cf:0d:07:7c:e5:cf
                Exponent: 65537 (0x10001)
        Attributes:
        Requested Extensions:
            X509v3 Basic Constraints: 
                CA:FALSE
            X509v3 Key Usage: critical
                Certificate Sign, CRL Sign
            X509v3 Subject Alternative Name: 
                URI:urn:bc96d73fb3b6:NodeOPCUA-DiscoveryServerRevoked, DNS:bc96d73fb3b6, IP Address:127.0.0.1
    Signature Algorithm: sha256WithRSAEncryption
         07:64:9d:a1:56:8a:f1:3a:40:83:2a:e5:68:9a:15:2f:7a:c4:
         84:c2:4c:53:17:39:79:7e:7f:32:51:fd:27:15:f6:6d:aa:d1:
         f0:3d:35:3f:d9:92:8b:4e:27:b6:32:a9:4a:04:4d:10:2a:80:
         9f:68:36:9f:a2:80:e5:cc:ec:0d:13:89:5b:a0:80:2b:e0:58:
         3a:fc:53:02:5a:af:da:fc:58:97:d5:5c:0e:0d:b8:47:f4:54:
         ea:2b:88:15:57:fe:ed:4e:2d:21:17:47:82:3b:d5:dc:30:55:
         59:d8:bd:4a:52:0f:f7:fb:8a:3b:3e:2c:ef:a1:50:df:1b:c9:
         29:5b
-----BEGIN CERTIFICATE REQUEST-----
MIIB8zCCAVwCAQAwNTELMAkGA1UEBhMCRlIxEjAQBgNVBAoMCU5vZGVPUENVQTES
MBAGA1UEAwwJTm9kZU9QQ1VBMIGfMA0GCSqGSIb3DQEBAQUAA4GNADCBiQKBgQCm
hJoG3JzfS3tzq3vkzEGMY0pZ1n+beG70+Jn8Yy/N1C4uyrd9kc1lh+2BSt/+LZaK
+hoEUQ2rsl/hZcD/uh6pDXQn/tlRnODnTBLux0KazWQS9GcLNtQfaf6rP9vOkM5E
JIPlqhYNGwD29UXnWsL5YAaV1/Gsg4/TX88NB3zlzwIDAQABoH4wfAYJKoZIhvcN
AQkOMW8wbTAJBgNVHRMEAjAAMA4GA1UdDwEB/wQEAwIBBjBQBgNVHREESTBHhjF1
cm46YmM5NmQ3M2ZiM2I2Ok5vZGVPUENVQS1EaXNjb3ZlcnlTZXJ2ZXJSZXZva2Vk
ggxiYzk2ZDczZmIzYjaHBH8AAAEwDQYJKoZIhvcNAQELBQADgYEAB2SdoVaK8TpA
gyrlaJoVL3rEhMJMUxc5eX5/MlH9JxX2barR8D01P9mSi04ntjKpSgRNECqAn2g2
n6KA5czsDROJW6CAK+BYOvxTAlqv2vxYl9VcDg24R/RU6iuIFVf+7U4tIRdHgjvV
3DBVWdi9SlIP9/uKOz4s76FQ3xvJKVs=
-----END CERTIFICATE REQUEST-----
