Certificate:
    Data:
        Version: 3 (0x2)
        Serial Number: 4137 (0x1029)
        Signature Algorithm: sha256WithRSAEncryption
        Issuer: O=NodeOPCUA, CN=NodeOPCUA
        Validity
            Not Before: Oct  9 00:24:20 2022 GMT
            Not After : Oct  9 00:24:20 2023 GMT
        Subject: O=NodeOPCUA, CN=NodeOPCUA
        Subject Public Key Info:
            Public Key Algorithm: rsaEncryption
                RSA Public-Key: (1024 bit)
                Modulus:
                    00:a6:84:9a:06:dc:9c:df:4b:7b:73:ab:7b:e4:cc:
                    41:8c:63:4a:59:d6:7f:9b:78:6e:f4:f8:99:fc:63:
                    2f:cd:d4:2e:2e:ca:b7:7d:91:cd:65:87:ed:81:4a:
                    df:fe:2d:96:8a:fa:1a:04:51:0d:ab:b2:5f:e1:65:
                    c0:ff:ba:1e:a9:0d:74:27:fe:d9:51:9c:e0:e7:4c:
                    12:ee:c7:42:9a:cd:64:12:f4:67:0b:36:d4:1f:69:
                    fe:ab:3f:db:ce:90:ce:44:24:83:e5:aa:16:0d:1b:
                    00:f6:f5:45:e7:5a:c2:f9:60:06:95:d7:f1:ac:83:
                    8f:d3:5f:cf:0d:07:7c:e5:cf
                Exponent: 65537 (0x10001)
        X509v3 extensions:
            X509v3 Basic Constraints: critical
                CA:FALSE
            X509v3 Subject Key Identifier: 
                27:46:38:6C:97:E3:C4:59:9B:A4:8B:B8:CE:93:15:B7:AF:22:2F:29
            X509v3 Authority Key Identifier: 
                keyid:27:46:38:6C:97:E3:C4:59:9B:A4:8B:B8:CE:93:15:B7:AF:22:2F:29
                DirName:/O=NodeOPCUA/CN=NodeOPCUA
                serial:10:29

            X509v3 Subject Alternative Name: 
                URI:urn:bc96d73fb3b6:NodeOPCUA-DiscoveryServer, DNS:bc96d73fb3b6
            Netscape Comment: 
                OpenSSL Generated Certificate
            X509v3 Key Usage: critical
                Digital Signature, Non Repudiation, Key Encipherment, Data Encipherment, Key Agreement, Certificate Sign
            X509v3 Extended Key Usage: critical
                TLS Web Server Authentication, TLS Web Client Authentication
    Signature Algorithm: sha256WithRSAEncryption
         45:cb:c6:84:ce:55:60:eb:55:1f:c7:0b:6a:e7:42:20:d0:fd:
         b8:fa:58:15:f2:35:3f:7c:a9:86:44:a8:f1:8f:5b:ab:0e:39:
         d4:ff:a9:6a:71:68:8f:18:10:a5:c6:1b:fc:41:74:dc:0f:f7:
         02:f1:21:c6:58:d0:a7:a2:f2:d0:89:b4:76:f0:7f:6f:4f:96:
         75:ad:aa:6f:d6:30:e5:74:90:76:dc:a9:22:fb:b4:bd:95:cd:
         95:cd:1e:45:a3:6d:34:ea:99:ea:83:fe:45:de:88:58:b0:65:
         bf:9d:15:5d:52:d2:fc:d8:60:7a:1c:00:5c:22:da:3a:90:1c:
         43:a8
-----BEGIN CERTIFICATE-----
MIIC8jCCAlugAwIBAgICECkwDQYJKoZIhvcNAQELBQAwKDESMBAGA1UEChMJTm9k
ZU9QQ1VBMRIwEAYDVQQDEwlOb2RlT1BDVUEwHhcNMjIxMDA5MDAyNDIwWhcNMjMx
MDA5MDAyNDIwWjAoMRIwEAYDVQQKEwlOb2RlT1BDVUExEjAQBgNVBAMTCU5vZGVP
UENVQTCBnzANBgkqhkiG9w0BAQEFAAOBjQAwgYkCgYEApoSaBtyc30t7c6t75MxB
jGNKWdZ/m3hu9PiZ/GMvzdQuLsq3fZHNZYftgUrf/i2WivoaBFENq7Jf4WXA/7oe
qQ10J/7ZUZzg50wS7sdCms1kEvRnCzbUH2n+qz/bzpDORCSD5aoWDRsA9vVF51rC
+WAGldfxrIOP01/PDQd85c8CAwEAAaOCASkwggElMAwGA1UdEwEB/wQCMAAwHQYD
VR0OBBYEFCdGOGyX48RZm6SLuM6TFbevIi8pMFEGA1UdIwRKMEiAFCdGOGyX48RZ
m6SLuM6TFbevIi8poSykKjAoMRIwEAYDVQQKEwlOb2RlT1BDVUExEjAQBgNVBAMT
CU5vZGVPUENVQYICECkwQwYDVR0RBDwwOoYqdXJuOmJjOTZkNzNmYjNiNjpOb2Rl
T1BDVUEtRGlzY292ZXJ5U2VydmVyggxiYzk2ZDczZmIzYjYwLAYJYIZIAYb4QgEN
BB8WHU9wZW5TU0wgR2VuZXJhdGVkIENlcnRpZmljYXRlMA4GA1UdDwEB/wQEAwIC
/DAgBgNVHSUBAf8EFjAUBggrBgEFBQcDAQYIKwYBBQUHAwIwDQYJKoZIhvcNAQEL
BQADgYEARcvGhM5VYOtVH8cLaudCIND9uPpYFfI1P3yphkSo8Y9bqw451P+panFo
jxgQpcYb/EF03A/3AvEhxljQp6Ly0Im0dvB/b0+Wda2qb9Yw5XSQdtypIvu0vZXN
lc0eRaNtNOqZ6oP+Rd6IWLBlv50VXVLS/NhgehwAXCLaOpAcQ6g=
-----END CERTIFICATE-----
