Certificate Request:
    Data:
        Version: 1 (0x0)
        Subject: C = FR, O = NodeOPCUA, CN = NodeOPCUA
        Subject Public Key Info:
            Public Key Algorithm: rsaEncryption
                RSA Public-Key: (4096 bit)
                Modulus:
                    00:ce:ad:14:98:46:d7:fe:23:95:ac:3d:6c:82:c6:
                    3e:f6:43:33:f6:ec:5c:37:e5:4c:55:43:65:30:f8:
                    ea:4e:39:ad:cc:da:fe:93:19:76:c3:69:7e:df:91:
                    56:0b:08:1a:88:c2:e3:47:c7:5a:96:61:23:f2:4c:
                    87:8c:a2:60:89:d7:6b:a6:c9:ef:95:91:dd:64:cf:
                    d3:76:fd:d5:be:d4:b5:5d:2a:3c:80:2e:9a:84:4f:
                    ca:0f:24:c6:06:0d:d0:58:eb:d9:1c:00:a0:f3:c5:
                    a5:2a:d3:0b:05:7a:a5:56:86:a0:c6:97:ce:0b:c6:
                    ac:26:93:1c:9a:62:ca:d5:a9:ee:c8:ef:f9:7b:aa:
                    06:82:6a:d2:2f:a1:d9:ff:db:26:93:d2:c3:8f:b8:
                    c9:68:f1:e9:c6:02:40:7e:a8:ee:c8:99:b9:e9:a5:
                    ea:48:02:23:44:94:37:de:e4:c1:0e:2a:a6:d6:52:
                    43:5a:c8:9d:2e:35:23:88:b3:a8:1a:00:db:ee:e6:
                    40:56:c2:05:91:cd:55:98:58:e3:3e:2d:34:0e:cd:
                    20:23:cf:f2:fb:ad:ed:af:79:30:d5:b0:e4:81:00:
                    ac:0a:4c:8f:4e:97:2e:8f:af:2b:87:f8:8c:a2:4d:
                    72:5b:87:11:bf:36:74:ec:72:46:3b:88:4c:90:f4:
                    46:fe:b9:c9:e6:f5:60:c0:f1:82:14:15:26:63:e2:
                    ce:a9:e4:ba:a6:62:74:ad:90:33:72:6f:30:37:10:
                    81:62:3b:1b:d5:00:8b:4b:58:51:d1:3f:6a:eb:05:
                    40:21:b7:2d:79:91:32:c8:46:d7:dd:47:d3:c1:f0:
                    c9:42:3f:37:ba:d3:46:a0:55:3c:6b:97:81:ba:a4:
                    21:63:e5:7e:df:0b:29:95:35:05:9c:79:fc:65:8f:
                    c6:96:02:c9:7f:d1:ab:c7:49:82:d6:76:6a:02:49:
                    a6:28:f2:96:d6:8b:c2:f7:77:85:ba:5a:64:9d:cd:
                    4e:af:e7:9c:c1:ca:16:24:a9:fa:52:38:1c:9c:c0:
                    fb:a4:b8:41:7b:21:60:41:51:a5:40:a2:de:be:6f:
                    d9:7c:67:89:c8:6b:c0:cd:00:f9:71:e3:5c:4f:1b:
                    3e:b3:4f:8f:97:ef:23:1e:27:d4:9e:9c:8b:2f:31:
                    04:8c:1a:ff:b2:fa:c0:87:09:bf:35:8e:1e:44:61:
                    0e:ab:14:5a:80:f1:2a:0c:0a:db:de:74:33:f1:d4:
                    4c:c9:54:2c:c1:46:de:45:d6:34:77:77:a3:bd:d1:
                    e1:8c:a0:7e:40:89:83:d9:5e:b9:6b:c1:53:53:6c:
                    f5:89:20:64:42:aa:e1:05:5c:eb:d9:e1:c2:59:df:
                    0b:9b:13
                Exponent: 65537 (0x10001)
        Attributes:
        Requested Extensions:
            X509v3 Basic Constraints: 
                CA:FALSE
            X509v3 Key Usage: critical
                Certificate Sign, CRL Sign
            X509v3 Subject Alternative Name: 
                URI:urn:bc96d73fb3b6:NodeOPCUA-DiscoveryServerRevoked, DNS:bc96d73fb3b6, IP Address:127.0.0.1
    Signature Algorithm: sha256WithRSAEncryption
         1b:ec:d7:fb:13:23:96:77:3b:c7:0e:e0:bc:e2:71:3d:4f:84:
         b5:23:f3:c9:5a:c6:6f:28:c1:a2:d5:2b:7d:c8:00:dc:d3:5a:
         47:a2:33:e4:03:cc:30:ce:81:80:93:1b:96:66:a8:5c:4b:46:
         8f:71:2e:5e:65:e6:3f:b3:b5:e4:aa:61:82:e8:40:f8:3e:51:
         a6:d8:81:2c:a8:20:66:f4:3c:f1:a0:93:fa:c8:59:9a:1d:3c:
         c5:17:7c:5a:5b:06:fd:4a:5e:a3:12:5f:91:4f:e5:9b:d1:19:
         1d:7a:0b:7d:1a:08:d6:df:6b:38:00:ec:27:a9:0c:00:eb:1a:
         03:58:0e:67:45:80:ec:bd:c4:0e:9c:6d:46:d1:36:76:17:f5:
         f1:1e:ac:b3:28:90:3f:08:95:4d:36:ee:0d:99:27:26:dc:5f:
         e1:28:a6:19:f2:74:11:61:0f:f8:70:ce:f1:a3:50:73:35:c6:
         46:31:d7:90:de:b4:fc:42:b5:28:c0:36:21:88:40:54:a8:ad:
         51:c6:6f:20:7d:2e:fb:f4:bd:a4:83:70:67:4f:0c:8a:1d:61:
         9c:16:5c:8c:f7:34:54:64:c5:51:08:02:b5:d1:74:08:2c:06:
         b2:41:6e:32:86:e8:dc:43:96:62:ae:af:f4:46:af:c9:63:e8:
         31:09:d8:1b:7b:f3:32:f5:76:87:78:77:51:ad:50:7e:03:13:
         d7:e9:71:5d:dd:14:01:d3:f7:45:77:f0:8f:c3:36:b1:84:6a:
         b6:0a:b8:91:7f:83:a6:95:86:1a:23:36:fe:a1:c5:7f:b4:d2:
         79:39:a5:b5:6d:29:4f:df:55:7b:9b:0f:6d:7d:82:84:0b:d5:
         e3:d4:d8:25:20:ff:dc:89:b7:ab:a1:36:7b:c4:16:d4:df:ca:
         a3:d3:e5:7d:03:12:75:fa:44:f8:79:be:10:bf:98:38:e7:f1:
         a7:c3:82:35:6a:08:f3:45:42:98:44:8b:84:26:45:02:f2:57:
         cc:d8:a9:32:17:9e:6d:3e:f7:7a:f7:a6:4e:56:1e:36:46:37:
         d9:02:36:9e:72:56:91:a1:2a:97:5a:6b:f5:4e:91:ac:c7:2d:
         6c:c8:af:98:21:a1:28:ab:df:3e:8c:f6:0c:c6:d0:e4:0b:47:
         92:d5:74:d4:33:b3:50:c8:55:a4:ba:e4:f7:92:b4:00:3e:eb:
         32:fd:5b:22:64:ef:ac:63:70:23:db:5d:d5:ca:a6:69:86:8e:
         d4:82:8c:78:f9:a5:df:f4:ee:20:ec:d1:b0:0c:23:72:4c:1f:
         01:0f:b4:ee:84:40:0a:43:59:67:04:f1:2b:3d:ec:36:54:b1:
         4b:60:d0:cb:6f:9a:c8:9a
-----BEGIN CERTIFICATE REQUEST-----
MIIE+DCCAuACAQAwNTELMAkGA1UEBhMCRlIxEjAQBgNVBAoMCU5vZGVPUENVQTES
MBAGA1UEAwwJTm9kZU9QQ1VBMIICIjANBgkqhkiG9w0BAQEFAAOCAg8AMIICCgKC
AgEAzq0UmEbX/iOVrD1sgsY+9kMz9uxcN+VMVUNlMPjqTjmtzNr+kxl2w2l+35FW
CwgaiMLjR8dalmEj8kyHjKJgiddrpsnvlZHdZM/Tdv3VvtS1XSo8gC6ahE/KDyTG
Bg3QWOvZHACg88WlKtMLBXqlVoagxpfOC8asJpMcmmLK1anuyO/5e6oGgmrSL6HZ
/9smk9LDj7jJaPHpxgJAfqjuyJm56aXqSAIjRJQ33uTBDiqm1lJDWsidLjUjiLOo
GgDb7uZAVsIFkc1VmFjjPi00Ds0gI8/y+63tr3kw1bDkgQCsCkyPTpcuj68rh/iM
ok1yW4cRvzZ07HJGO4hMkPRG/rnJ5vVgwPGCFBUmY+LOqeS6pmJ0rZAzcm8wNxCB
Yjsb1QCLS1hR0T9q6wVAIbcteZEyyEbX3UfTwfDJQj83utNGoFU8a5eBuqQhY+V+
3wsplTUFnHn8ZY/GlgLJf9Grx0mC1nZqAkmmKPKW1ovC93eFulpknc1Or+ecwcoW
JKn6UjgcnMD7pLhBeyFgQVGlQKLevm/ZfGeJyGvAzQD5ceNcTxs+s0+Pl+8jHifU
npyLLzEEjBr/svrAhwm/NY4eRGEOqxRagPEqDArb3nQz8dRMyVQswUbeRdY0d3ej
vdHhjKB+QImD2V65a8FTU2z1iSBkQqrhBVzr2eHCWd8LmxMCAwEAAaB+MHwGCSqG
SIb3DQEJDjFvMG0wCQYDVR0TBAIwADAOBgNVHQ8BAf8EBAMCAQYwUAYDVR0RBEkw
R4YxdXJuOmJjOTZkNzNmYjNiNjpOb2RlT1BDVUEtRGlzY292ZXJ5U2VydmVyUmV2
b2tlZIIMYmM5NmQ3M2ZiM2I2hwR/AAABMA0GCSqGSIb3DQEBCwUAA4ICAQAb7Nf7
EyOWdzvHDuC84nE9T4S1I/PJWsZvKMGi1St9yADc01pHojPkA8wwzoGAkxuWZqhc
S0aPcS5eZeY/s7XkqmGC6ED4PlGm2IEsqCBm9DzxoJP6yFmaHTzFF3xaWwb9Sl6j
El+RT+Wb0Rkdegt9GgjW32s4AOwnqQwA6xoDWA5nRYDsvcQOnG1G0TZ2F/XxHqyz
KJA/CJVNNu4NmScm3F/hKKYZ8nQRYQ/4cM7xo1BzNcZGMdeQ3rT8QrUowDYhiEBU
qK1Rxm8gfS779L2kg3BnTwyKHWGcFlyM9zRUZMVRCAK10XQILAayQW4yhujcQ5Zi
rq/0Rq/JY+gxCdgbe/My9XaHeHdRrVB+AxPX6XFd3RQB0/dFd/CPwzaxhGq2CriR
f4OmlYYaIzb+ocV/tNJ5OaW1bSlP31V7mw9tfYKEC9Xj1NglIP/ciberoTZ7xBbU
38qj0+V9AxJ1+kT4eb4Qv5g45/Gnw4I1agjzRUKYRIuEJkUC8lfM2KkyF55tPvd6
96ZOVh42RjfZAjaeclaRoSqXWmv1TpGsxy1syK+YIaEoq98+jPYMxtDkC0eS1XTU
M7NQyFWkuuT3krQAPusy/VsiZO+sY3Aj213VyqZpho7Ugox4+aXf9O4g7NGwDCNy
TB8BD7TuhEAKQ1lnBPErPew2VLFLYNDLb5rImg==
-----END CERTIFICATE REQUEST-----
