Certificate Request:
    Data:
        Version: 1 (0x0)
        Subject: C = FR, O = NodeOPCUA, CN = NodeOPCUA
        Subject Public Key Info:
            Public Key Algorithm: rsaEncryption
                RSA Public-Key: (2048 bit)
                Modulus:
                    00:f1:61:cf:e4:4d:fc:61:50:0e:9e:31:ac:f4:22:
                    66:60:df:3b:b5:77:b4:bc:55:5d:39:f3:83:06:19:
                    59:2e:cb:cf:38:6f:01:24:a5:eb:59:d1:9d:41:d2:
                    65:9d:62:ff:6e:91:d1:d1:3d:17:a0:39:bd:8d:a5:
                    bf:32:e2:61:db:8c:99:c5:e7:94:8e:6c:15:66:63:
                    c9:ff:ed:20:2d:70:c7:5f:f4:95:1f:76:f8:72:12:
                    5c:e5:b4:ea:5b:c7:89:d2:72:c4:dc:e7:f9:b7:6b:
                    e6:c2:c2:e2:09:07:31:a4:7d:88:75:0b:8a:80:74:
                    8e:e6:2d:fe:20:1b:bc:55:60:1b:8f:64:da:ce:e6:
                    d4:78:f1:d2:31:ba:a0:a9:cc:fe:1b:8a:e5:46:98:
                    f5:ac:65:65:20:1c:4a:00:65:e6:b3:c6:26:c9:9b:
                    99:1a:dc:96:ce:e1:b6:9c:28:10:ad:ad:e1:b7:92:
                    cd:0e:09:33:24:76:43:ec:b4:47:77:5e:e4:ea:67:
                    39:b8:dd:06:29:08:3a:71:8f:34:66:47:f4:fe:7e:
                    b8:78:04:da:a3:b2:2d:5c:b2:55:eb:9d:d8:91:31:
                    7a:7d:8e:7e:aa:15:6d:1e:b8:a2:42:07:b9:3a:b6:
                    b5:7d:d5:6b:06:3d:f2:4e:9e:fb:4c:ff:e8:06:77:
                    42:57
                Exponent: 65537 (0x10001)
        Attributes:
        Requested Extensions:
            X509v3 Basic Constraints: 
                CA:FALSE
            X509v3 Key Usage: critical
                Certificate Sign, CRL Sign
            X509v3 Subject Alternative Name: 
                URI:urn:bc96d73fb3b6:NodeOPCUA-DiscoveryServer, DNS:bc96d73fb3b6, IP Address:127.0.0.1
    Signature Algorithm: sha256WithRSAEncryption
         4d:d0:0f:b9:a5:b2:9b:3e:e4:f7:54:c3:91:6c:99:d1:09:c3:
         e2:44:05:2b:fe:e5:0b:ba:c2:51:34:3d:96:d0:91:b3:2c:0c:
         dc:90:2b:13:bb:b2:7c:00:92:fd:c9:09:9f:e7:86:ae:fa:b9:
         cd:74:62:92:c9:49:ab:57:e9:ce:50:0e:d4:32:76:d6:5a:58:
         8e:4d:01:b1:0a:97:15:78:74:ac:b8:99:55:1e:a0:27:eb:fb:
         be:5d:bf:29:0c:c3:a8:3e:42:67:2a:53:e5:39:d5:27:dd:30:
         e7:81:2e:52:e2:98:6b:cb:2b:72:a4:32:45:c4:04:6b:52:e3:
         39:09:fc:91:ba:46:07:17:d3:a6:7b:14:0d:ab:dc:73:4e:ee:
         8c:46:d0:45:30:f8:63:38:cd:9d:b3:82:9a:0a:99:99:7f:4c:
         85:67:57:cd:b6:b2:8a:6f:1d:43:69:2c:6c:d2:34:03:ac:89:
         f5:4d:cf:bb:1c:4a:4e:3c:52:eb:6f:21:7c:7b:73:e6:27:b6:
         5b:5f:73:e2:88:f6:43:fe:b4:5d:a6:f7:79:f6:43:27:53:28:
         19:fd:06:4a:95:a7:33:d7:da:90:6f:e2:4e:9b:d5:d5:57:c4:
         5b:ea:f8:55:8b:ea:d0:e4:a8:b9:3e:b5:10:52:6f:50:3b:88:
         6e:00:6c:54
-----BEGIN CERTIFICATE REQUEST-----
MIIC8TCCAdkCAQAwNTELMAkGA1UEBhMCRlIxEjAQBgNVBAoMCU5vZGVPUENVQTES
MBAGA1UEAwwJTm9kZU9QQ1VBMIIBIjANBgkqhkiG9w0BAQEFAAOCAQ8AMIIBCgKC
AQEA8WHP5E38YVAOnjGs9CJmYN87tXe0vFVdOfODBhlZLsvPOG8BJKXrWdGdQdJl
nWL/bpHR0T0XoDm9jaW/MuJh24yZxeeUjmwVZmPJ/+0gLXDHX/SVH3b4chJc5bTq
W8eJ0nLE3Of5t2vmwsLiCQcxpH2IdQuKgHSO5i3+IBu8VWAbj2TazubUePHSMbqg
qcz+G4rlRpj1rGVlIBxKAGXms8YmyZuZGtyWzuG2nCgQra3ht5LNDgkzJHZD7LRH
d17k6mc5uN0GKQg6cY80Zkf0/n64eATao7ItXLJV653YkTF6fY5+qhVtHriiQge5
Ora1fdVrBj3yTp77TP/oBndCVwIDAQABoHcwdQYJKoZIhvcNAQkOMWgwZjAJBgNV
HRMEAjAAMA4GA1UdDwEB/wQEAwIBBjBJBgNVHREEQjBAhip1cm46YmM5NmQ3M2Zi
M2I2Ok5vZGVPUENVQS1EaXNjb3ZlcnlTZXJ2ZXKCDGJjOTZkNzNmYjNiNocEfwAA
ATANBgkqhkiG9w0BAQsFAAOCAQEATdAPuaWymz7k91TDkWyZ0QnD4kQFK/7lC7rC
UTQ9ltCRsywM3JArE7uyfACS/ckJn+eGrvq5zXRikslJq1fpzlAO1DJ21lpYjk0B
sQqXFXh0rLiZVR6gJ+v7vl2/KQzDqD5CZypT5TnVJ90w54EuUuKYa8srcqQyRcQE
a1LjOQn8kbpGBxfTpnsUDavcc07ujEbQRTD4YzjNnbOCmgqZmX9MhWdXzbayim8d
Q2ksbNI0A6yJ9U3PuxxKTjxS628hfHtz5ie2W19z4oj2Q/60Xab3efZDJ1MoGf0G
SpWnM9fakG/iTpvV1VfEW+r4VYvq0OSouT61EFJvUDuIbgBsVA==
-----END CERTIFICATE REQUEST-----
