Certificate Request:
    Data:
        Version: 1 (0x0)
        Subject: C = FR, O = NodeOPCUA, CN = NodeOPCUA
        Subject Public Key Info:
            Public Key Algorithm: rsaEncryption
                RSA Public-Key: (3072 bit)
                Modulus:
                    00:c6:6f:33:41:01:74:8b:ed:dd:51:ad:53:aa:08:
                    bb:89:4a:a8:42:75:53:69:be:23:fd:8e:9b:19:79:
                    fe:79:70:95:8b:fd:2b:50:1b:7e:49:29:6b:de:42:
                    d4:5d:8d:1b:25:0f:dc:c6:4d:c7:47:2f:88:7e:da:
                    4d:fd:33:b7:bc:89:d6:52:3f:cd:5b:b9:53:e5:8d:
                    91:d0:54:c2:77:c0:27:a2:78:7a:cf:3c:11:df:28:
                    ad:a2:d0:5e:7d:89:dc:ba:6c:f7:d0:c6:ab:ba:90:
                    b2:c1:c8:15:b5:00:04:cf:10:b8:33:89:a0:67:f8:
                    d1:c7:a3:dc:ba:fd:fb:54:1d:53:32:70:08:8f:af:
                    8e:1e:e8:86:b5:9c:92:02:28:79:4a:3b:37:26:bc:
                    bb:69:12:d9:40:83:e0:dd:72:af:ba:a9:a7:b8:ad:
                    d8:70:34:8c:e0:08:87:86:4b:dd:4b:b5:29:f3:5c:
                    e9:98:ce:e5:48:87:bb:e6:4c:ea:e2:b3:33:dc:49:
                    93:11:dc:79:4c:88:db:78:36:27:90:89:fc:5d:31:
                    60:fd:e9:d1:45:cb:bb:dd:e1:ed:a9:c0:70:b5:61:
                    ef:71:7e:84:b1:1b:43:2c:4b:a4:c1:17:43:64:f9:
                    5c:ab:c7:b9:ec:d7:77:2c:78:49:4e:0a:c9:8b:b8:
                    06:16:a4:8e:e5:2c:74:42:48:40:61:2c:01:e6:8d:
                    f6:89:05:bb:07:0e:6c:7b:ad:3f:09:7c:55:8d:15:
                    77:e2:21:42:c0:cb:83:24:74:d9:31:12:bf:14:5a:
                    e4:f1:97:2b:9e:7d:7d:04:03:44:5f:1c:e1:20:fa:
                    2c:70:20:f8:fe:9b:a1:f0:0e:f3:64:8b:85:8c:10:
                    98:27:05:ee:ae:b5:86:b9:d4:d3:fc:b3:c0:5a:3a:
                    1c:06:36:d7:94:29:22:99:3d:33:8d:4f:05:98:8a:
                    d6:08:85:6f:1b:d0:3f:5f:15:e2:f7:dd:d5:2d:55:
                    49:7c:11:90:57:20:8a:ef:21:6f
                Exponent: 65537 (0x10001)
        Attributes:
        Requested Extensions:
            X509v3 Basic Constraints: 
                CA:FALSE
            X509v3 Key Usage: critical
                Certificate Sign, CRL Sign
            X509v3 Subject Alternative Name: 
                URI:urn:bc96d73fb3b6:NodeOPCUA-DiscoveryServer, DNS:bc96d73fb3b6, IP Address:127.0.0.1
    Signature Algorithm: sha256WithRSAEncryption
         96:51:ab:5d:a7:08:f7:b0:b2:90:84:5b:0e:91:69:d4:a1:eb:
         36:52:57:0e:3c:fe:ea:33:c6:88:7d:59:88:2d:19:36:da:95:
         12:33:03:6d:24:d7:d7:d6:b6:3e:5c:ce:52:23:33:bc:4a:7b:
         6e:8b:5e:67:88:5f:ac:53:0d:fb:98:45:39:62:45:d6:38:82:
         01:71:af:82:29:04:06:f4:06:a1:11:9d:44:ea:88:5c:92:2b:
         e7:47:1d:4b:76:11:00:3e:86:08:40:e3:9f:1f:92:b6:83:a2:
         cb:d6:36:3b:1c:00:21:30:df:03:33:7b:0f:b4:c0:43:bb:4c:
         b7:66:32:bb:e8:97:72:b5:7b:85:64:57:8f:91:9a:19:2a:78:
         62:74:17:25:e0:bb:80:5c:dc:9a:62:bb:11:c9:20:fd:18:c2:
         80:13:56:5d:f5:89:fe:47:60:73:b2:b9:02:14:52:4e:19:8c:
         d0:f9:15:8f:82:8c:e3:34:ef:13:5f:9e:6a:32:02:3f:57:c1:
         10:ce:67:42:d8:41:02:45:b9:6b:56:ad:5e:38:58:e2:0a:ff:
         be:6f:a1:4c:f5:88:e4:cf:c4:71:8c:ef:72:de:1d:3a:ec:ee:
         ae:ad:e6:25:77:f7:7e:7a:aa:be:fb:59:6d:85:90:cc:b9:ec:
         4a:30:12:60:8d:09:cd:76:a5:b8:b5:42:d1:58:29:b6:19:23:
         aa:07:d2:b0:a1:01:a7:cf:6e:69:75:c2:9f:64:57:92:e0:97:
         2e:08:99:59:bc:3b:e6:88:f3:16:76:a5:03:ca:0b:26:c2:2d:
         a3:4b:6e:ee:cf:ca:be:57:f5:f0:52:91:0f:01:b4:d4:4f:b7:
         26:5b:53:57:aa:41:56:09:b5:bc:d2:ce:eb:e0:75:94:55:d7:
         c6:73:2c:30:be:f6:b3:c5:66:21:9a:67:fa:f9:56:af:ef:df:
         1f:7c:1b:df:ed:3c:7a:6c:01:16:aa:0f:c6:74:14:38:65:2c:
         4a:80:97:4f:da:59
-----BEGIN CERTIFICATE REQUEST-----
MIID8TCCAlkCAQAwNTELMAkGA1UEBhMCRlIxEjAQBgNVBAoMCU5vZGVPUENVQTES
MBAGA1UEAwwJTm9kZU9QQ1VBMIIBojANBgkqhkiG9w0BAQEFAAOCAY8AMIIBigKC
AYEAxm8zQQF0i+3dUa1Tqgi7iUqoQnVTab4j/Y6bGXn+eXCVi/0rUBt+SSlr3kLU
XY0bJQ/cxk3HRy+IftpN/TO3vInWUj/NW7lT5Y2R0FTCd8Anonh6zzwR3yitotBe
fYncumz30MarupCywcgVtQAEzxC4M4mgZ/jRx6Pcuv37VB1TMnAIj6+OHuiGtZyS
Aih5Sjs3Jry7aRLZQIPg3XKvuqmnuK3YcDSM4AiHhkvdS7Up81zpmM7lSIe75kzq
4rMz3EmTEdx5TIjbeDYnkIn8XTFg/enRRcu73eHtqcBwtWHvcX6EsRtDLEukwRdD
ZPlcq8e57Nd3LHhJTgrJi7gGFqSO5Sx0QkhAYSwB5o32iQW7Bw5se60/CXxVjRV3
4iFCwMuDJHTZMRK/FFrk8Zcrnn19BANEXxzhIPoscCD4/puh8A7zZIuFjBCYJwXu
rrWGudTT/LPAWjocBjbXlCkimT0zjU8FmIrWCIVvG9A/XxXi993VLVVJfBGQVyCK
7yFvAgMBAAGgdzB1BgkqhkiG9w0BCQ4xaDBmMAkGA1UdEwQCMAAwDgYDVR0PAQH/
BAQDAgEGMEkGA1UdEQRCMECGKnVybjpiYzk2ZDczZmIzYjY6Tm9kZU9QQ1VBLURp
c2NvdmVyeVNlcnZlcoIMYmM5NmQ3M2ZiM2I2hwR/AAABMA0GCSqGSIb3DQEBCwUA
A4IBgQCWUatdpwj3sLKQhFsOkWnUoes2UlcOPP7qM8aIfVmILRk22pUSMwNtJNfX
1rY+XM5SIzO8Sntui15niF+sUw37mEU5YkXWOIIBca+CKQQG9AahEZ1E6ohckivn
Rx1LdhEAPoYIQOOfH5K2g6LL1jY7HAAhMN8DM3sPtMBDu0y3ZjK76JdytXuFZFeP
kZoZKnhidBcl4LuAXNyaYrsRySD9GMKAE1Zd9Yn+R2BzsrkCFFJOGYzQ+RWPgozj
NO8TX55qMgI/V8EQzmdC2EECRblrVq1eOFjiCv++b6FM9Yjkz8RxjO9y3h067O6u
reYld/d+eqq++1lthZDMuexKMBJgjQnNdqW4tULRWCm2GSOqB9KwoQGnz25pdcKf
ZFeS4JcuCJlZvDvmiPMWdqUDygsmwi2jS27uz8q+V/XwUpEPAbTUT7cmW1NXqkFW
CbW80s7r4HWUVdfGcywwvvazxWYhmmf6+Vav798ffBvf7Tx6bAEWqg/GdBQ4ZSxK
gJdP2lk=
-----END CERTIFICATE REQUEST-----
