Certificate:
    Data:
        Version: 3 (0x2)
        Serial Number: 4147 (0x1033)
        Signature Algorithm: sha256WithRSAEncryption
        Issuer: O=NodeOPCUA, CN=NodeOPCUA
        Validity
            Not Before: Oct  9 00:24:20 2022 GMT
            Not After : Oct  9 00:24:20 2023 GMT
        Subject: O=NodeOPCUA, CN=NodeOPCUA
        Subject Public Key Info:
            Public Key Algorithm: rsaEncryption
                RSA Public-Key: (3072 bit)
                Modulus:
                    00:c6:6f:33:41:01:74:8b:ed:dd:51:ad:53:aa:08:
                    bb:89:4a:a8:42:75:53:69:be:23:fd:8e:9b:19:79:
                    fe:79:70:95:8b:fd:2b:50:1b:7e:49:29:6b:de:42:
                    d4:5d:8d:1b:25:0f:dc:c6:4d:c7:47:2f:88:7e:da:
                    4d:fd:33:b7:bc:89:d6:52:3f:cd:5b:b9:53:e5:8d:
                    91:d0:54:c2:77:c0:27:a2:78:7a:cf:3c:11:df:28:
                    ad:a2:d0:5e:7d:89:dc:ba:6c:f7:d0:c6:ab:ba:90:
                    b2:c1:c8:15:b5:00:04:cf:10:b8:33:89:a0:67:f8:
                    d1:c7:a3:dc:ba:fd:fb:54:1d:53:32:70:08:8f:af:
                    8e:1e:e8:86:b5:9c:92:02:28:79:4a:3b:37:26:bc:
                    bb:69:12:d9:40:83:e0:dd:72:af:ba:a9:a7:b8:ad:
                    d8:70:34:8c:e0:08:87:86:4b:dd:4b:b5:29:f3:5c:
                    e9:98:ce:e5:48:87:bb:e6:4c:ea:e2:b3:33:dc:49:
                    93:11:dc:79:4c:88:db:78:36:27:90:89:fc:5d:31:
                    60:fd:e9:d1:45:cb:bb:dd:e1:ed:a9:c0:70:b5:61:
                    ef:71:7e:84:b1:1b:43:2c:4b:a4:c1:17:43:64:f9:
                    5c:ab:c7:b9:ec:d7:77:2c:78:49:4e:0a:c9:8b:b8:
                    06:16:a4:8e:e5:2c:74:42:48:40:61:2c:01:e6:8d:
                    f6:89:05:bb:07:0e:6c:7b:ad:3f:09:7c:55:8d:15:
                    77:e2:21:42:c0:cb:83:24:74:d9:31:12:bf:14:5a:
                    e4:f1:97:2b:9e:7d:7d:04:03:44:5f:1c:e1:20:fa:
                    2c:70:20:f8:fe:9b:a1:f0:0e:f3:64:8b:85:8c:10:
                    98:27:05:ee:ae:b5:86:b9:d4:d3:fc:b3:c0:5a:3a:
                    1c:06:36:d7:94:29:22:99:3d:33:8d:4f:05:98:8a:
                    d6:08:85:6f:1b:d0:3f:5f:15:e2:f7:dd:d5:2d:55:
                    49:7c:11:90:57:20:8a:ef:21:6f
                Exponent: 65537 (0x10001)
        X509v3 extensions:
            X509v3 Basic Constraints: critical
                CA:FALSE
            X509v3 Subject Key Identifier: 
                8E:70:0D:51:FC:87:9E:C7:79:A7:82:00:C6:C3:2C:EC:5C:65:F8:49
            X509v3 Authority Key Identifier: 
                keyid:8E:70:0D:51:FC:87:9E:C7:79:A7:82:00:C6:C3:2C:EC:5C:65:F8:49
                DirName:/O=NodeOPCUA/CN=NodeOPCUA
                serial:10:33

            X509v3 Subject Alternative Name: 
                URI:urn:bc96d73fb3b6:NodeOPCUA-DiscoveryServer, DNS:bc96d73fb3b6
            Netscape Comment: 
                OpenSSL Generated Certificate
            X509v3 Key Usage: critical
                Digital Signature, Non Repudiation, Key Encipherment, Data Encipherment, Key Agreement, Certificate Sign
            X509v3 Extended Key Usage: critical
                TLS Web Server Authentication, TLS Web Client Authentication
    Signature Algorithm: sha256WithRSAEncryption
         6e:50:89:6c:8f:08:20:dd:65:e8:36:90:bd:70:42:a0:91:a1:
         13:98:04:50:24:81:27:37:78:98:70:88:cc:93:bc:1e:91:c9:
         82:cc:84:81:5b:71:32:14:c2:19:14:3f:46:82:9a:20:d8:4e:
         52:a9:89:d3:a0:cc:f0:92:68:fd:72:0f:69:02:2a:b8:60:52:
         06:67:a3:aa:5b:4c:7f:b6:6f:e9:0e:88:2f:b5:5e:33:cd:39:
         21:46:3d:6c:34:6d:d7:c1:d9:8f:af:19:26:bd:4d:25:be:a3:
         79:20:bf:8a:8c:27:68:b2:1e:92:25:b7:c7:8f:7d:da:e9:17:
         ad:30:1d:c4:0f:c0:f5:7f:c0:9d:c9:1f:e2:48:2f:78:2f:2c:
         ba:e4:18:ea:6b:73:a1:c9:6b:9c:09:6d:a2:11:dd:af:c2:ea:
         7c:77:47:f3:01:86:72:00:8a:05:6c:10:98:9b:34:83:72:31:
         87:53:42:dd:f4:da:39:16:0f:c0:8a:ea:ac:29:84:d1:8d:35:
         ca:d4:8f:c0:e3:f0:5e:c1:e3:87:cf:e7:30:5d:ab:64:84:bd:
         a9:e3:4c:3c:88:76:d0:1b:bf:01:5a:3b:45:ae:15:00:aa:78:
         e9:32:b8:4d:21:fe:5c:53:41:0d:6a:e4:12:a7:b7:3a:49:0b:
         8c:c5:06:f6:d9:d8:a9:84:86:86:42:92:6c:36:db:e8:8f:81:
         be:fb:e7:7e:6f:2e:3e:70:1e:d6:a3:7b:f3:b6:80:ec:ad:ae:
         83:9c:0c:da:eb:15:48:9f:cf:5e:49:cd:67:5b:ee:7b:42:d7:
         d9:59:a6:74:19:47:c0:61:e1:1a:8d:0f:49:47:c2:37:28:c3:
         59:4d:06:17:16:83:7c:4d:8c:7a:61:09:60:f9:89:fe:99:b8:
         da:71:2f:92:c2:68:ff:45:a0:8a:a4:6e:47:f6:31:bb:d8:64:
         42:bb:c8:80:a1:7d:19:ee:92:18:20:9e:fb:ee:f0:04:7c:0a:
         4e:34:6e:bb:c3:1e
-----BEGIN CERTIFICATE-----
MIIE9zCCA1+gAwIBAgICEDMwDQYJKoZIhvcNAQELBQAwKDESMBAGA1UEChMJTm9k
ZU9QQ1VBMRIwEAYDVQQDEwlOb2RlT1BDVUEwHhcNMjIxMDA5MDAyNDIwWhcNMjMx
MDA5MDAyNDIwWjAoMRIwEAYDVQQKEwlOb2RlT1BDVUExEjAQBgNVBAMTCU5vZGVP
UENVQTCCAaIwDQYJKoZIhvcNAQEBBQADggGPADCCAYoCggGBAMZvM0EBdIvt3VGt
U6oIu4lKqEJ1U2m+I/2Omxl5/nlwlYv9K1Abfkkpa95C1F2NGyUP3MZNx0cviH7a
Tf0zt7yJ1lI/zVu5U+WNkdBUwnfAJ6J4es88Ed8oraLQXn2J3Lps99DGq7qQssHI
FbUABM8QuDOJoGf40cej3Lr9+1QdUzJwCI+vjh7ohrWckgIoeUo7Nya8u2kS2UCD
4N1yr7qpp7it2HA0jOAIh4ZL3Uu1KfNc6ZjO5UiHu+ZM6uKzM9xJkxHceUyI23g2
J5CJ/F0xYP3p0UXLu93h7anAcLVh73F+hLEbQyxLpMEXQ2T5XKvHuezXdyx4SU4K
yYu4BhakjuUsdEJIQGEsAeaN9okFuwcObHutPwl8VY0Vd+IhQsDLgyR02TESvxRa
5PGXK559fQQDRF8c4SD6LHAg+P6bofAO82SLhYwQmCcF7q61hrnU0/yzwFo6HAY2
15QpIpk9M41PBZiK1giFbxvQP18V4vfd1S1VSXwRkFcgiu8hbwIDAQABo4IBKTCC
ASUwDAYDVR0TAQH/BAIwADAdBgNVHQ4EFgQUjnANUfyHnsd5p4IAxsMs7Fxl+Ekw
UQYDVR0jBEowSIAUjnANUfyHnsd5p4IAxsMs7Fxl+EmhLKQqMCgxEjAQBgNVBAoT
CU5vZGVPUENVQTESMBAGA1UEAxMJTm9kZU9QQ1VBggIQMzBDBgNVHREEPDA6hip1
cm46YmM5NmQ3M2ZiM2I2Ok5vZGVPUENVQS1EaXNjb3ZlcnlTZXJ2ZXKCDGJjOTZk
NzNmYjNiNjAsBglghkgBhvhCAQ0EHxYdT3BlblNTTCBHZW5lcmF0ZWQgQ2VydGlm
aWNhdGUwDgYDVR0PAQH/BAQDAgL8MCAGA1UdJQEB/wQWMBQGCCsGAQUFBwMBBggr
BgEFBQcDAjANBgkqhkiG9w0BAQsFAAOCAYEAblCJbI8IIN1l6DaQvXBCoJGhE5gE
UCSBJzd4mHCIzJO8HpHJgsyEgVtxMhTCGRQ/RoKaINhOUqmJ06DM8JJo/XIPaQIq
uGBSBmejqltMf7Zv6Q6IL7VeM805IUY9bDRt18HZj68ZJr1NJb6jeSC/iownaLIe
kiW3x4992ukXrTAdxA/A9X/Anckf4kgveC8suuQY6mtzoclrnAltohHdr8LqfHdH
8wGGcgCKBWwQmJs0g3Ixh1NC3fTaORYPwIrqrCmE0Y01ytSPwOPwXsHjh8/nMF2r
ZIS9qeNMPIh20Bu/AVo7Ra4VAKp46TK4TSH+XFNBDWrkEqe3OkkLjMUG9tnYqYSG
hkKSbDbb6I+Bvvvnfm8uPnAe1qN787aA7K2ug5wM2usVSJ/PXknNZ1vue0LX2Vmm
dBlHwGHhGo0PSUfCNyjDWU0GFxaDfE2MemEJYPmJ/pm42nEvksJo/0WgiqRuR/Yx
u9hkQrvIgKF9Ge6SGCCe++7wBHwKTjRuu8Me
-----END CERTIFICATE-----
