Certificate Request:
    Data:
        Version: 1 (0x0)
        Subject: C = FR, O = NodeOPCUA, CN = NodeOPCUA
        Subject Public Key Info:
            Public Key Algorithm: rsaEncryption
                RSA Public-Key: (4096 bit)
                Modulus:
                    00:ce:ad:14:98:46:d7:fe:23:95:ac:3d:6c:82:c6:
                    3e:f6:43:33:f6:ec:5c:37:e5:4c:55:43:65:30:f8:
                    ea:4e:39:ad:cc:da:fe:93:19:76:c3:69:7e:df:91:
                    56:0b:08:1a:88:c2:e3:47:c7:5a:96:61:23:f2:4c:
                    87:8c:a2:60:89:d7:6b:a6:c9:ef:95:91:dd:64:cf:
                    d3:76:fd:d5:be:d4:b5:5d:2a:3c:80:2e:9a:84:4f:
                    ca:0f:24:c6:06:0d:d0:58:eb:d9:1c:00:a0:f3:c5:
                    a5:2a:d3:0b:05:7a:a5:56:86:a0:c6:97:ce:0b:c6:
                    ac:26:93:1c:9a:62:ca:d5:a9:ee:c8:ef:f9:7b:aa:
                    06:82:6a:d2:2f:a1:d9:ff:db:26:93:d2:c3:8f:b8:
                    c9:68:f1:e9:c6:02:40:7e:a8:ee:c8:99:b9:e9:a5:
                    ea:48:02:23:44:94:37:de:e4:c1:0e:2a:a6:d6:52:
                    43:5a:c8:9d:2e:35:23:88:b3:a8:1a:00:db:ee:e6:
                    40:56:c2:05:91:cd:55:98:58:e3:3e:2d:34:0e:cd:
                    20:23:cf:f2:fb:ad:ed:af:79:30:d5:b0:e4:81:00:
                    ac:0a:4c:8f:4e:97:2e:8f:af:2b:87:f8:8c:a2:4d:
                    72:5b:87:11:bf:36:74:ec:72:46:3b:88:4c:90:f4:
                    46:fe:b9:c9:e6:f5:60:c0:f1:82:14:15:26:63:e2:
                    ce:a9:e4:ba:a6:62:74:ad:90:33:72:6f:30:37:10:
                    81:62:3b:1b:d5:00:8b:4b:58:51:d1:3f:6a:eb:05:
                    40:21:b7:2d:79:91:32:c8:46:d7:dd:47:d3:c1:f0:
                    c9:42:3f:37:ba:d3:46:a0:55:3c:6b:97:81:ba:a4:
                    21:63:e5:7e:df:0b:29:95:35:05:9c:79:fc:65:8f:
                    c6:96:02:c9:7f:d1:ab:c7:49:82:d6:76:6a:02:49:
                    a6:28:f2:96:d6:8b:c2:f7:77:85:ba:5a:64:9d:cd:
                    4e:af:e7:9c:c1:ca:16:24:a9:fa:52:38:1c:9c:c0:
                    fb:a4:b8:41:7b:21:60:41:51:a5:40:a2:de:be:6f:
                    d9:7c:67:89:c8:6b:c0:cd:00:f9:71:e3:5c:4f:1b:
                    3e:b3:4f:8f:97:ef:23:1e:27:d4:9e:9c:8b:2f:31:
                    04:8c:1a:ff:b2:fa:c0:87:09:bf:35:8e:1e:44:61:
                    0e:ab:14:5a:80:f1:2a:0c:0a:db:de:74:33:f1:d4:
                    4c:c9:54:2c:c1:46:de:45:d6:34:77:77:a3:bd:d1:
                    e1:8c:a0:7e:40:89:83:d9:5e:b9:6b:c1:53:53:6c:
                    f5:89:20:64:42:aa:e1:05:5c:eb:d9:e1:c2:59:df:
                    0b:9b:13
                Exponent: 65537 (0x10001)
        Attributes:
        Requested Extensions:
            X509v3 Basic Constraints: 
                CA:FALSE
            X509v3 Key Usage: critical
                Certificate Sign, CRL Sign
            X509v3 Subject Alternative Name: 
                URI:urn:bc96d73fb3b6:NodeOPCUA-DiscoveryServer, DNS:bc96d73fb3b6, IP Address:127.0.0.1
    Signature Algorithm: sha256WithRSAEncryption
         1e:15:2b:b3:ad:32:38:1d:23:fa:f1:da:52:76:20:d0:0d:ae:
         47:f7:cc:f0:80:52:33:4a:77:94:4b:cd:74:ef:a9:9f:41:71:
         88:73:69:fd:1f:e4:27:5f:c1:f8:97:05:e3:d9:27:c0:88:14:
         09:81:ab:0f:ca:3e:c8:ea:19:0c:06:3b:55:2d:9e:66:8b:6f:
         af:d7:f3:65:50:b4:3e:e7:3a:67:63:2d:9d:6d:70:12:5e:23:
         63:9a:d1:27:fa:c3:82:ff:4c:a7:bf:74:58:39:a8:b2:a8:32:
         86:11:cf:05:de:2b:82:a5:47:1e:8f:29:d8:79:21:7a:c7:49:
         7b:a8:f4:25:a0:86:b8:6d:9d:09:4b:ee:c2:0a:07:aa:5d:f5:
         12:3b:87:e1:cc:5b:7b:4f:7c:0a:e2:57:d3:9c:36:94:84:18:
         9c:bd:c2:97:ee:36:33:8c:c5:83:1d:c9:12:89:e4:8d:79:ea:
         2b:32:84:a4:3b:92:bc:e4:6f:3e:0d:ba:44:41:7f:c7:1b:e5:
         9f:50:5f:a7:13:7a:f0:54:d6:7e:8b:7e:bb:57:9e:ba:78:a9:
         52:83:10:f5:5c:21:9d:2d:45:14:35:1a:be:8d:37:5c:05:3b:
         d8:42:56:15:90:0f:2e:4e:80:e6:50:4f:9b:85:a4:88:54:83:
         f6:32:10:b8:3c:df:08:4e:79:b9:17:08:a5:72:c1:2c:66:1d:
         6c:e5:5d:da:0c:30:02:47:0b:55:df:91:94:8e:58:b5:fb:fc:
         71:eb:77:3d:a7:19:ae:15:49:18:dc:ee:96:34:cb:0c:f3:e7:
         5c:23:22:b8:b3:72:83:90:17:ef:38:90:be:f2:3c:4d:25:87:
         5a:92:89:57:78:c8:2b:d0:9e:0f:40:a7:a8:e4:4c:d1:ff:da:
         96:42:8f:d6:b9:ed:11:ac:a4:b4:2f:c1:ad:41:90:03:91:5d:
         b5:c2:96:78:92:37:55:9b:14:d9:0b:f4:ee:76:e0:c3:4f:d8:
         f9:f7:39:d5:86:8b:51:3c:88:8b:2f:30:8d:09:72:44:cc:47:
         9d:1d:ad:7e:ff:99:af:a2:06:25:15:56:b7:ea:09:39:cc:28:
         70:fe:73:ad:87:5f:fe:5f:6b:05:d1:ba:4e:52:46:0c:3c:96:
         44:e9:96:ae:35:f8:8d:70:6e:4e:3c:25:fa:24:b8:2c:09:3f:
         ec:94:94:69:b7:8a:d4:0e:27:1f:d6:ee:57:1e:20:96:cc:02:
         0c:45:9e:85:4f:40:ee:a5:05:d5:da:17:10:42:84:e0:c1:2b:
         ef:f0:d5:48:8d:01:e1:5f:9b:a0:0d:e9:a1:07:ac:9c:e1:59:
         14:e0:7d:9d:57:29:63:50
-----BEGIN CERTIFICATE REQUEST-----
MIIE8TCCAtkCAQAwNTELMAkGA1UEBhMCRlIxEjAQBgNVBAoMCU5vZGVPUENVQTES
MBAGA1UEAwwJTm9kZU9QQ1VBMIICIjANBgkqhkiG9w0BAQEFAAOCAg8AMIICCgKC
AgEAzq0UmEbX/iOVrD1sgsY+9kMz9uxcN+VMVUNlMPjqTjmtzNr+kxl2w2l+35FW
CwgaiMLjR8dalmEj8kyHjKJgiddrpsnvlZHdZM/Tdv3VvtS1XSo8gC6ahE/KDyTG
Bg3QWOvZHACg88WlKtMLBXqlVoagxpfOC8asJpMcmmLK1anuyO/5e6oGgmrSL6HZ
/9smk9LDj7jJaPHpxgJAfqjuyJm56aXqSAIjRJQ33uTBDiqm1lJDWsidLjUjiLOo
GgDb7uZAVsIFkc1VmFjjPi00Ds0gI8/y+63tr3kw1bDkgQCsCkyPTpcuj68rh/iM
ok1yW4cRvzZ07HJGO4hMkPRG/rnJ5vVgwPGCFBUmY+LOqeS6pmJ0rZAzcm8wNxCB
Yjsb1QCLS1hR0T9q6wVAIbcteZEyyEbX3UfTwfDJQj83utNGoFU8a5eBuqQhY+V+
3wsplTUFnHn8ZY/GlgLJf9Grx0mC1nZqAkmmKPKW1ovC93eFulpknc1Or+ecwcoW
JKn6UjgcnMD7pLhBeyFgQVGlQKLevm/ZfGeJyGvAzQD5ceNcTxs+s0+Pl+8jHifU
npyLLzEEjBr/svrAhwm/NY4eRGEOqxRagPEqDArb3nQz8dRMyVQswUbeRdY0d3ej
vdHhjKB+QImD2V65a8FTU2z1iSBkQqrhBVzr2eHCWd8LmxMCAwEAAaB3MHUGCSqG
SIb3DQEJDjFoMGYwCQYDVR0TBAIwADAOBgNVHQ8BAf8EBAMCAQYwSQYDVR0RBEIw
QIYqdXJuOmJjOTZkNzNmYjNiNjpOb2RlT1BDVUEtRGlzY292ZXJ5U2VydmVyggxi
Yzk2ZDczZmIzYjaHBH8AAAEwDQYJKoZIhvcNAQELBQADggIBAB4VK7OtMjgdI/rx
2lJ2INANrkf3zPCAUjNKd5RLzXTvqZ9BcYhzaf0f5CdfwfiXBePZJ8CIFAmBqw/K
PsjqGQwGO1UtnmaLb6/X82VQtD7nOmdjLZ1tcBJeI2Oa0Sf6w4L/TKe/dFg5qLKo
MoYRzwXeK4KlRx6PKdh5IXrHSXuo9CWghrhtnQlL7sIKB6pd9RI7h+HMW3tPfAri
V9OcNpSEGJy9wpfuNjOMxYMdyRKJ5I156isyhKQ7krzkbz4NukRBf8cb5Z9QX6cT
evBU1n6LfrtXnrp4qVKDEPVcIZ0tRRQ1Gr6NN1wFO9hCVhWQDy5OgOZQT5uFpIhU
g/YyELg83whOebkXCKVywSxmHWzlXdoMMAJHC1XfkZSOWLX7/HHrdz2nGa4VSRjc
7pY0ywzz51wjIrizcoOQF+84kL7yPE0lh1qSiVd4yCvQng9Ap6jkTNH/2pZCj9a5
7RGspLQvwa1BkAORXbXClniSN1WbFNkL9O524MNP2Pn3OdWGi1E8iIsvMI0JckTM
R50drX7/ma+iBiUVVrfqCTnMKHD+c62HX/5fawXRuk5SRgw8lkTplq41+I1wbk48
JfokuCwJP+yUlGm3itQOJx/W7lceIJbMAgxFnoVPQO6lBdXaFxBChODBK+/w1UiN
AeFfm6AN6aEHrJzhWRTgfZ1XKWNQ
-----END CERTIFICATE REQUEST-----
