Certificate Request:
    Data:
        Version: 1 (0x0)
        Subject: C = FR, O = NodeOPCUA, CN = NodeOPCUA
        Subject Public Key Info:
            Public Key Algorithm: rsaEncryption
                RSA Public-Key: (1024 bit)
                Modulus:
                    00:a6:84:9a:06:dc:9c:df:4b:7b:73:ab:7b:e4:cc:
                    41:8c:63:4a:59:d6:7f:9b:78:6e:f4:f8:99:fc:63:
                    2f:cd:d4:2e:2e:ca:b7:7d:91:cd:65:87:ed:81:4a:
                    df:fe:2d:96:8a:fa:1a:04:51:0d:ab:b2:5f:e1:65:
                    c0:ff:ba:1e:a9:0d:74:27:fe:d9:51:9c:e0:e7:4c:
                    12:ee:c7:42:9a:cd:64:12:f4:67:0b:36:d4:1f:69:
                    fe:ab:3f:db:ce:90:ce:44:24:83:e5:aa:16:0d:1b:
                    00:f6:f5:45:e7:5a:c2:f9:60:06:95:d7:f1:ac:83:
                    8f:d3:5f:cf:0d:07:7c:e5:cf
                Exponent: 65537 (0x10001)
        Attributes:
        Requested Extensions:
            X509v3 Basic Constraints: 
                CA:FALSE
            X509v3 Key Usage: critical
                Certificate Sign, CRL Sign
            X509v3 Subject Alternative Name: 
                URI:urn:bc96d73fb3b6:NodeOPCUA-DiscoveryServer, DNS:bc96d73fb3b6, IP Address:127.0.0.1
    Signature Algorithm: sha256WithRSAEncryption
         40:b8:17:11:6a:a7:9e:19:87:9d:e5:f6:f4:07:d1:9b:a6:81:
         71:01:78:ef:af:98:df:3b:62:c1:8c:19:97:c0:a3:76:10:d0:
         b5:8b:91:13:af:7d:7c:4d:db:8f:c0:86:9b:aa:c7:54:fb:15:
         2f:ff:f8:26:da:27:34:dd:20:60:24:84:84:0c:e7:e6:74:b0:
         33:6d:ed:63:8a:32:16:ce:3b:58:59:45:5f:24:c3:7e:24:96:
         5b:40:80:e7:23:74:69:91:19:1e:c1:68:20:38:6f:ba:e5:9c:
         81:cb:33:86:ec:ff:8b:10:6e:f4:ea:af:57:83:66:50:08:a1:
         38:58
-----BEGIN CERTIFICATE REQUEST-----
MIIB7DCCAVUCAQAwNTELMAkGA1UEBhMCRlIxEjAQBgNVBAoMCU5vZGVPUENVQTES
MBAGA1UEAwwJTm9kZU9QQ1VBMIGfMA0GCSqGSIb3DQEBAQUAA4GNADCBiQKBgQCm
hJoG3JzfS3tzq3vkzEGMY0pZ1n+beG70+Jn8Yy/N1C4uyrd9kc1lh+2BSt/+LZaK
+hoEUQ2rsl/hZcD/uh6pDXQn/tlRnODnTBLux0KazWQS9GcLNtQfaf6rP9vOkM5E
JIPlqhYNGwD29UXnWsL5YAaV1/Gsg4/TX88NB3zlzwIDAQABoHcwdQYJKoZIhvcN
AQkOMWgwZjAJBgNVHRMEAjAAMA4GA1UdDwEB/wQEAwIBBjBJBgNVHREEQjBAhip1
cm46YmM5NmQ3M2ZiM2I2Ok5vZGVPUENVQS1EaXNjb3ZlcnlTZXJ2ZXKCDGJjOTZk
NzNmYjNiNocEfwAAATANBgkqhkiG9w0BAQsFAAOBgQBAuBcRaqeeGYed5fb0B9Gb
poFxAXjvr5jfO2LBjBmXwKN2ENC1i5ETr318TduPwIabqsdU+xUv//gm2ic03SBg
JISEDOfmdLAzbe1jijIWzjtYWUVfJMN+JJZbQIDnI3RpkRkewWggOG+65ZyByzOG
7P+LEG706q9Xg2ZQCKE4WA==
-----END CERTIFICATE REQUEST-----
