Certificate Request:
    Data:
        Version: 1 (0x0)
        Subject: C = FR, O = NodeOPCUA, CN = NodeOPCUA
        Subject Public Key Info:
            Public Key Algorithm: rsaEncryption
                RSA Public-Key: (3072 bit)
                Modulus:
                    00:d1:04:f7:c8:3a:0d:85:d0:41:c7:5b:1e:ee:3b:
                    af:36:54:db:2e:31:a9:c4:d7:06:4c:98:50:c1:2c:
                    40:26:03:f1:4d:9e:47:0c:3b:3a:a6:3b:bb:71:a2:
                    59:89:0e:a1:79:00:15:42:7e:0a:1d:09:a1:e6:01:
                    49:a3:0e:bf:c3:b9:ef:73:b0:b8:76:a2:55:8b:c5:
                    f0:6d:db:a4:09:f3:da:33:48:0e:ca:4c:f9:e3:77:
                    e4:be:9c:f5:09:ca:05:18:91:15:a8:86:08:09:8b:
                    73:40:18:24:88:55:10:38:f9:13:33:eb:01:d8:59:
                    68:db:1f:54:00:6b:26:37:83:d0:85:39:f2:a5:c6:
                    ff:00:84:56:60:6b:86:5c:b0:65:3c:ac:97:7d:61:
                    72:b8:2f:8c:4e:ad:56:a9:21:45:59:1a:06:5a:ed:
                    90:3e:c0:ce:21:e5:7c:e5:3d:2e:2e:45:e9:b7:84:
                    3b:fb:ba:c4:88:53:8a:6a:f9:87:4d:9a:9a:3d:46:
                    54:b8:53:d1:4e:c9:5b:1d:0f:a0:b4:38:29:14:00:
                    ad:17:68:47:df:fb:70:17:41:f0:85:3b:02:22:01:
                    f1:15:6f:72:39:75:c2:97:16:9f:df:84:6f:0d:28:
                    49:7c:4a:6b:36:39:c3:13:c4:fd:16:ce:7a:96:8f:
                    2a:ca:a2:31:a2:0e:9d:bd:f4:4a:af:10:e3:66:fe:
                    3d:89:4d:50:03:32:97:fb:e4:49:98:35:0e:e1:e9:
                    c7:45:fd:3a:2d:10:fa:76:6b:c8:21:a9:ff:a0:ac:
                    b2:0b:a1:cf:4b:53:84:15:e3:98:11:0a:e4:1f:6e:
                    73:64:af:d2:a4:b8:f3:86:de:44:33:6c:1f:7d:49:
                    dc:e5:f0:b2:34:a3:5f:04:65:42:c9:74:e7:3f:92:
                    6f:19:8e:11:58:d8:2f:cc:4f:d2:a9:fa:bd:61:01:
                    74:3e:fd:87:bc:d2:6f:01:5b:3c:b9:87:31:61:88:
                    f5:40:bf:0f:25:39:8b:6f:f7:8d
                Exponent: 65537 (0x10001)
        Attributes:
        Requested Extensions:
            X509v3 Basic Constraints: 
                CA:FALSE
            X509v3 Key Usage: critical
                Certificate Sign, CRL Sign
            X509v3 Subject Alternative Name: 
                URI:urn:bc96d73fb3b6:NodeOPCUA-ServerRevoked, DNS:bc96d73fb3b6, IP Address:127.0.0.1
    Signature Algorithm: sha256WithRSAEncryption
         59:0c:52:0a:62:5d:e5:89:0d:4a:3d:19:b2:bb:a8:13:29:a2:
         67:c9:09:72:fe:84:c1:11:05:d6:e8:68:5e:73:b6:ec:8a:78:
         ee:0e:55:52:e9:3b:4f:f1:74:67:47:30:9c:ea:5e:4a:4e:c6:
         ff:22:20:00:cc:9a:7d:71:8a:d7:98:e3:d6:3d:05:ef:8a:16:
         36:73:47:c0:63:b7:a5:41:db:14:43:e1:eb:06:0e:6b:7a:26:
         5b:67:c4:06:d3:bc:9a:40:1f:80:8c:35:7a:e8:29:dc:c3:6d:
         1b:3c:a3:55:9e:63:8a:e4:ca:d7:d1:12:39:79:cb:c9:b3:16:
         a8:a2:36:37:e1:87:6b:8f:d1:e8:9c:a0:9e:a2:82:9c:f8:a1:
         0b:df:c6:eb:90:f1:e2:53:f4:68:13:ff:26:3a:bf:74:82:96:
         66:ad:9e:9b:17:a2:b4:df:91:a9:90:aa:08:80:1c:88:8a:27:
         7b:1f:dc:b2:99:3d:6d:69:79:40:4a:a6:18:62:b4:7a:00:5d:
         61:21:c2:44:2a:cf:ea:66:81:89:62:08:f2:63:64:36:d1:42:
         92:d2:ea:a7:61:1d:22:c8:5b:ac:2f:51:50:61:25:1a:59:04:
         f9:3d:9e:f9:18:97:6e:1b:fe:2e:db:3d:b0:a1:d8:3e:a4:6c:
         75:5b:d7:70:cb:8e:3e:ce:5a:4e:30:dd:bb:76:5d:28:9e:4c:
         18:a0:97:d5:2b:c5:6a:b8:49:a3:b7:38:8b:56:8c:6a:d8:a7:
         17:e7:7d:f9:af:bf:99:45:d9:b3:84:c6:95:60:d2:e4:ab:37:
         44:b2:1f:44:f0:69:bd:62:7f:c7:9c:18:5d:2b:86:74:dc:04:
         4c:e0:42:ba:78:fc:fb:50:1d:2f:75:68:b1:1f:56:cc:5d:b2:
         e2:71:c1:10:1e:5d:dd:1b:25:93:b1:18:65:41:9f:f4:51:d9:
         e2:cc:ad:73:55:27:79:28:c6:5f:d5:a9:e5:c2:bc:33:70:14:
         be:19:9f:72:b3:65
-----BEGIN CERTIFICATE REQUEST-----
MIID7zCCAlcCAQAwNTELMAkGA1UEBhMCRlIxEjAQBgNVBAoMCU5vZGVPUENVQTES
MBAGA1UEAwwJTm9kZU9QQ1VBMIIBojANBgkqhkiG9w0BAQEFAAOCAY8AMIIBigKC
AYEA0QT3yDoNhdBBx1se7juvNlTbLjGpxNcGTJhQwSxAJgPxTZ5HDDs6pju7caJZ
iQ6heQAVQn4KHQmh5gFJow6/w7nvc7C4dqJVi8XwbdukCfPaM0gOykz543fkvpz1
CcoFGJEVqIYICYtzQBgkiFUQOPkTM+sB2Flo2x9UAGsmN4PQhTnypcb/AIRWYGuG
XLBlPKyXfWFyuC+MTq1WqSFFWRoGWu2QPsDOIeV85T0uLkXpt4Q7+7rEiFOKavmH
TZqaPUZUuFPRTslbHQ+gtDgpFACtF2hH3/twF0HwhTsCIgHxFW9yOXXClxaf34Rv
DShJfEprNjnDE8T9Fs56lo8qyqIxog6dvfRKrxDjZv49iU1QAzKX++RJmDUO4enH
Rf06LRD6dmvIIan/oKyyC6HPS1OEFeOYEQrkH25zZK/SpLjzht5EM2wffUnc5fCy
NKNfBGVCyXTnP5JvGY4RWNgvzE/Sqfq9YQF0Pv2HvNJvAVs8uYcxYYj1QL8PJTmL
b/eNAgMBAAGgdTBzBgkqhkiG9w0BCQ4xZjBkMAkGA1UdEwQCMAAwDgYDVR0PAQH/
BAQDAgEGMEcGA1UdEQRAMD6GKHVybjpiYzk2ZDczZmIzYjY6Tm9kZU9QQ1VBLVNl
cnZlclJldm9rZWSCDGJjOTZkNzNmYjNiNocEfwAAATANBgkqhkiG9w0BAQsFAAOC
AYEAWQxSCmJd5YkNSj0ZsruoEymiZ8kJcv6EwREF1uhoXnO27Ip47g5VUuk7T/F0
Z0cwnOpeSk7G/yIgAMyafXGK15jj1j0F74oWNnNHwGO3pUHbFEPh6wYOa3omW2fE
BtO8mkAfgIw1eugp3MNtGzyjVZ5jiuTK19ESOXnLybMWqKI2N+GHa4/R6JygnqKC
nPihC9/G65Dx4lP0aBP/Jjq/dIKWZq2emxeitN+RqZCqCIAciIonex/cspk9bWl5
QEqmGGK0egBdYSHCRCrP6maBiWII8mNkNtFCktLqp2EdIshbrC9RUGElGlkE+T2e
+RiXbhv+Lts9sKHYPqRsdVvXcMuOPs5aTjDdu3ZdKJ5MGKCX1SvFarhJo7c4i1aM
atinF+d9+a+/mUXZs4TGlWDS5Ks3RLIfRPBpvWJ/x5wYXSuGdNwETOBCunj8+1Ad
L3VosR9WzF2y4nHBEB5d3Rslk7EYZUGf9FHZ4sytc1UneSjGX9Wp5cK8M3AUvhmf
crNl
-----END CERTIFICATE REQUEST-----
