Certificate Request:
    Data:
        Version: 1 (0x0)
        Subject: C = FR, O = NodeOPCUA, CN = NodeOPCUA
        Subject Public Key Info:
            Public Key Algorithm: rsaEncryption
                RSA Public-Key: (4096 bit)
                Modulus:
                    00:ac:f4:43:7d:69:0e:a7:16:e4:9a:63:f5:ed:1d:
                    ed:d7:52:70:2a:43:ee:2b:3f:9f:35:fa:72:db:b8:
                    cf:e1:2a:63:81:6c:cf:ad:67:b3:75:19:c9:63:59:
                    57:b1:a0:be:05:b8:0e:f5:8b:ac:56:bc:73:30:8a:
                    54:fd:13:39:c8:c2:51:9d:e0:a6:28:c8:c0:61:7a:
                    ba:bc:66:26:c1:a2:47:f7:45:e6:9f:86:2e:d6:28:
                    75:d9:31:b2:ea:4c:1e:1f:8a:55:01:61:e1:2d:10:
                    ec:3a:65:b7:49:d6:6c:2b:26:23:41:05:a0:dc:a6:
                    1b:a5:d4:05:e0:3b:eb:b9:be:a9:03:45:18:03:be:
                    52:83:c8:f4:ea:23:4b:f7:4f:6c:b9:af:3f:80:b1:
                    36:6c:4e:78:9a:0c:73:61:04:0e:6a:62:f5:68:3d:
                    a3:08:70:d5:4a:e5:2f:05:cd:8b:41:ea:71:11:31:
                    5b:ea:6c:a7:6e:87:25:c0:59:8b:27:cc:a6:fb:26:
                    fe:1e:d6:b3:44:89:42:e7:a1:d0:fa:0a:bc:c2:4a:
                    3a:17:b1:1b:74:60:3f:50:4b:8f:06:4d:79:b9:e8:
                    a1:aa:41:e5:f3:d0:b2:95:70:8f:39:14:11:7d:9d:
                    52:84:32:63:61:7b:12:74:36:d8:4e:83:32:06:d8:
                    8d:34:6c:23:d7:5a:08:27:9e:a8:4b:12:26:ed:db:
                    c2:5d:5e:ca:b7:e4:0c:b6:2c:e3:c7:b1:a7:9a:f5:
                    30:25:9c:9a:37:5a:8e:52:8b:ae:72:4b:66:0a:26:
                    1a:67:6f:df:8e:2f:c4:25:08:e4:2b:0d:07:2d:7e:
                    a3:a5:c9:58:c8:62:4c:01:07:31:1c:45:e4:0d:1c:
                    be:09:8d:69:3d:f5:68:24:4a:35:02:b3:d3:d8:f3:
                    76:b6:e6:cc:01:d3:37:52:c1:d6:69:5c:6f:e6:80:
                    fa:6b:08:25:19:3f:2b:73:28:2e:a4:f2:38:db:bb:
                    f6:43:95:3b:85:ed:23:d6:b5:10:18:56:26:7c:02:
                    ae:b4:cd:d4:b5:57:1b:b7:6a:09:c0:13:5e:fe:05:
                    72:e2:92:bb:de:5c:c0:ac:6b:4c:5d:52:fa:9d:f5:
                    5e:94:04:34:6e:11:58:96:43:29:7b:e7:d8:a4:0b:
                    35:69:83:e3:8b:ac:81:e6:ea:2d:82:2d:42:50:78:
                    81:ea:36:c4:3e:55:d3:42:eb:66:cb:d0:be:d0:71:
                    85:93:f8:c2:d5:99:ea:e3:f5:90:0d:91:87:6f:74:
                    75:ff:f6:31:bd:7c:f4:5f:5c:8f:0b:f3:15:40:db:
                    f6:0d:45:83:f4:06:04:34:da:b6:3f:f6:ed:7f:81:
                    3b:21:a3
                Exponent: 65537 (0x10001)
        Attributes:
        Requested Extensions:
            X509v3 Basic Constraints: 
                CA:FALSE
            X509v3 Key Usage: critical
                Certificate Sign, CRL Sign
            X509v3 Subject Alternative Name: 
                URI:urn:bc96d73fb3b6:NodeOPCUA-ServerRevoked, DNS:bc96d73fb3b6, IP Address:127.0.0.1
    Signature Algorithm: sha256WithRSAEncryption
         76:72:d7:0b:c0:3e:df:2b:0c:2c:6c:d6:04:a5:4c:08:76:e5:
         82:c1:7d:84:9f:83:1e:82:a8:c7:49:15:76:a1:23:6c:3b:cd:
         4f:a3:13:25:cd:fa:35:ae:7d:f5:20:cd:f3:c3:ff:72:1c:b6:
         eb:ca:6b:72:2b:b8:46:ea:46:93:2a:73:83:ed:38:3e:b4:3d:
         51:9b:b1:22:d8:d4:a1:cf:6d:9c:b8:1e:e1:6f:72:9e:93:60:
         0d:bf:a8:d8:f8:1f:e2:10:2b:98:e9:06:9c:fb:f5:c2:0f:ac:
         10:73:75:4d:64:5a:8f:1f:98:5b:bb:b0:2e:9e:88:31:3d:25:
         33:23:c7:ec:82:e0:df:d0:20:6a:38:82:80:da:9d:c2:16:79:
         00:da:9f:fa:38:d4:2e:67:13:36:4f:cc:9a:45:28:7c:3a:37:
         57:a0:c5:3b:c1:4c:de:cd:f6:34:34:ee:e9:88:3b:66:e5:57:
         68:e8:1b:f2:e2:84:8f:7b:e2:e0:2d:04:c4:a6:83:26:66:bd:
         3c:97:5c:b1:69:1e:b0:50:3a:3b:f7:70:2b:0a:86:7e:f7:da:
         de:79:a1:91:73:04:77:e0:0a:8d:d4:f0:aa:e0:5d:c7:4f:76:
         65:09:c1:e2:00:37:21:71:ff:a4:9c:48:dc:7f:26:9c:b6:59:
         36:7c:36:be:74:e2:6f:9f:5e:f1:c4:31:43:aa:d1:32:1e:f7:
         8b:a4:0b:4b:ff:5a:aa:d1:92:e2:de:51:33:56:ab:9b:1a:f9:
         28:ee:ea:b8:db:a6:61:83:55:3e:08:f9:e8:f1:9c:56:94:5b:
         fb:01:ff:e7:61:a9:95:29:ff:8a:f8:bd:23:52:04:61:ef:95:
         da:19:be:1d:77:3f:66:33:0e:f7:d7:34:a7:37:b0:c5:b6:4c:
         d5:0c:d3:12:82:96:9a:39:df:78:f7:93:2c:90:43:35:b2:f6:
         37:99:32:d2:35:0b:08:5b:02:9e:cd:c7:fd:9d:ff:49:04:e6:
         82:20:ae:66:c3:e4:f7:a5:81:86:3d:e1:11:57:38:dc:16:4f:
         53:54:0c:08:c3:2a:82:62:ae:0c:3d:01:24:60:2a:b8:08:47:
         16:5d:78:4b:33:5c:4f:7b:f9:60:87:74:e2:28:3a:ab:58:36:
         bf:63:0f:98:97:1c:b7:90:65:1c:82:ef:bb:52:55:92:eb:6b:
         28:c7:dd:f7:4a:fe:ec:63:d3:4a:12:75:4e:1e:1c:58:9b:c8:
         b7:3a:6d:27:85:9d:76:7a:f6:c1:80:24:1a:d7:a2:c1:16:25:
         3b:19:7c:ec:c7:f0:68:e6:e8:56:43:97:e1:16:52:38:9c:58:
         89:ca:a7:fa:42:3b:2c:b7
-----BEGIN CERTIFICATE REQUEST-----
MIIE7zCCAtcCAQAwNTELMAkGA1UEBhMCRlIxEjAQBgNVBAoMCU5vZGVPUENVQTES
MBAGA1UEAwwJTm9kZU9QQ1VBMIICIjANBgkqhkiG9w0BAQEFAAOCAg8AMIICCgKC
AgEArPRDfWkOpxbkmmP17R3t11JwKkPuKz+fNfpy27jP4SpjgWzPrWezdRnJY1lX
saC+BbgO9YusVrxzMIpU/RM5yMJRneCmKMjAYXq6vGYmwaJH90Xmn4Yu1ih12TGy
6kweH4pVAWHhLRDsOmW3SdZsKyYjQQWg3KYbpdQF4Dvrub6pA0UYA75Sg8j06iNL
909sua8/gLE2bE54mgxzYQQOamL1aD2jCHDVSuUvBc2LQepxETFb6mynboclwFmL
J8ym+yb+HtazRIlC56HQ+gq8wko6F7EbdGA/UEuPBk15ueihqkHl89CylXCPORQR
fZ1ShDJjYXsSdDbYToMyBtiNNGwj11oIJ56oSxIm7dvCXV7Kt+QMtizjx7GnmvUw
JZyaN1qOUouucktmCiYaZ2/fji/EJQjkKw0HLX6jpclYyGJMAQcxHEXkDRy+CY1p
PfVoJEo1ArPT2PN2tubMAdM3UsHWaVxv5oD6awglGT8rcygupPI427v2Q5U7he0j
1rUQGFYmfAKutM3UtVcbt2oJwBNe/gVy4pK73lzArGtMXVL6nfVelAQ0bhFYlkMp
e+fYpAs1aYPji6yB5uotgi1CUHiB6jbEPlXTQutmy9C+0HGFk/jC1Znq4/WQDZGH
b3R1//YxvXz0X1yPC/MVQNv2DUWD9AYENNq2P/btf4E7IaMCAwEAAaB1MHMGCSqG
SIb3DQEJDjFmMGQwCQYDVR0TBAIwADAOBgNVHQ8BAf8EBAMCAQYwRwYDVR0RBEAw
PoYodXJuOmJjOTZkNzNmYjNiNjpOb2RlT1BDVUEtU2VydmVyUmV2b2tlZIIMYmM5
NmQ3M2ZiM2I2hwR/AAABMA0GCSqGSIb3DQEBCwUAA4ICAQB2ctcLwD7fKwwsbNYE
pUwIduWCwX2En4MegqjHSRV2oSNsO81PoxMlzfo1rn31IM3zw/9yHLbrymtyK7hG
6kaTKnOD7Tg+tD1Rm7Ei2NShz22cuB7hb3Kek2ANv6jY+B/iECuY6Qac+/XCD6wQ
c3VNZFqPH5hbu7AunogxPSUzI8fsguDf0CBqOIKA2p3CFnkA2p/6ONQuZxM2T8ya
RSh8OjdXoMU7wUzezfY0NO7piDtm5Vdo6Bvy4oSPe+LgLQTEpoMmZr08l1yxaR6w
UDo793ArCoZ+99reeaGRcwR34AqN1PCq4F3HT3ZlCcHiADchcf+knEjcfyactlk2
fDa+dOJvn17xxDFDqtEyHveLpAtL/1qq0ZLi3lEzVqubGvko7uq426Zhg1U+CPno
8ZxWlFv7Af/nYamVKf+K+L0jUgRh75XaGb4ddz9mMw731zSnN7DFtkzVDNMSgpaa
Od9495MskEM1svY3mTLSNQsIWwKezcf9nf9JBOaCIK5mw+T3pYGGPeERVzjcFk9T
VAwIwyqCYq4MPQEkYCq4CEcWXXhLM1xPe/lgh3TiKDqrWDa/Yw+Ylxy3kGUcgu+7
UlWS62sox933Sv7sY9NKEnVOHhxYm8i3Om0nhZ12evbBgCQa16LBFiU7GXzsx/Bo
5uhWQ5fhFlI4nFiJyqf6Qjsstw==
-----END CERTIFICATE REQUEST-----
