Certificate:
    Data:
        Version: 3 (0x2)
        Serial Number: 4122 (0x101a)
        Signature Algorithm: sha256WithRSAEncryption
        Issuer: O=NodeOPCUA, CN=NodeOPCUA
        Validity
            Not Before: Oct  9 00:24:20 2022 GMT
            Not After : Oct  9 00:24:20 2023 GMT
        Subject: O=NodeOPCUA, CN=NodeOPCUA
        Subject Public Key Info:
            Public Key Algorithm: rsaEncryption
                RSA Public-Key: (2048 bit)
                Modulus:
                    00:d8:1e:47:ae:b2:80:ec:27:25:e0:98:ab:f5:27:
                    e7:2d:8c:13:d6:66:e7:f8:e6:f9:8a:63:a8:2b:cf:
                    16:74:49:ac:f6:e0:ea:dc:9c:4e:f0:9b:2a:a4:5d:
                    76:1a:42:f4:dc:4a:b8:f5:99:24:c2:96:fe:a7:ab:
                    1c:af:09:15:d9:38:f7:78:f6:4c:7e:66:94:c5:4f:
                    0b:86:a8:43:84:d7:d0:c5:4d:6a:3b:ad:d1:4e:39:
                    d6:58:64:6d:50:1a:f2:ec:9d:b5:a8:b7:51:f4:d6:
                    ac:ad:aa:20:c8:50:ec:d9:3f:5e:b1:69:65:ee:44:
                    52:56:b3:43:3f:67:18:ce:c6:a8:9d:93:4f:f8:44:
                    02:0b:7f:25:21:30:8e:3a:46:84:ae:34:08:a5:dd:
                    de:5a:d0:30:07:04:43:4d:74:dd:0c:d8:1a:7d:7d:
                    b9:85:65:ab:f6:db:a9:d1:a2:7d:17:56:4f:3a:44:
                    76:19:1e:46:d2:e6:72:0b:c0:1b:0a:e9:d6:43:74:
                    f1:a5:bd:e9:12:36:4b:b3:50:0c:10:c8:c0:9c:a2:
                    6d:2d:89:4d:ba:b1:6a:01:12:70:13:d6:22:bc:30:
                    70:e0:2a:03:0d:b7:e5:1d:b5:a9:df:3c:3c:4a:db:
                    72:cb:c9:06:42:4a:09:a5:1b:75:88:b5:2b:c3:fe:
                    aa:ad
                Exponent: 65537 (0x10001)
        X509v3 extensions:
            X509v3 Basic Constraints: critical
                CA:FALSE
            X509v3 Subject Key Identifier: 
                F2:CB:3A:3E:73:57:32:A8:2F:5C:63:43:57:36:50:E5:DB:56:89:48
            X509v3 Authority Key Identifier: 
                keyid:F2:CB:3A:3E:73:57:32:A8:2F:5C:63:43:57:36:50:E5:DB:56:89:48
                DirName:/O=NodeOPCUA/CN=NodeOPCUA
                serial:10:1A

            X509v3 Subject Alternative Name: 
                URI:urn:bc96d73fb3b6:NodeOPCUA-Server, DNS:bc96d73fb3b6
            Netscape Comment: 
                OpenSSL Generated Certificate
            X509v3 Key Usage: critical
                Digital Signature, Non Repudiation, Key Encipherment, Data Encipherment, Key Agreement, Certificate Sign
            X509v3 Extended Key Usage: critical
                TLS Web Server Authentication, TLS Web Client Authentication
    Signature Algorithm: sha256WithRSAEncryption
         77:a3:9d:ea:38:a5:15:a4:69:d9:00:9d:2c:ce:39:46:e3:ca:
         85:70:e8:75:9b:4c:38:3e:f9:1c:da:58:bc:63:f6:08:78:de:
         fa:c7:1a:0c:81:23:d0:9d:ed:a1:f5:34:3d:c9:a1:63:40:72:
         22:0e:74:3c:79:f5:55:4a:39:2d:7b:09:a4:2f:85:85:cb:ba:
         19:dd:68:2e:99:bd:9b:59:16:6b:db:ef:15:2f:ed:5a:ff:d3:
         e8:7e:d1:43:90:e3:d3:38:f2:1e:41:2d:a2:eb:29:b4:f9:9e:
         de:41:31:6a:a5:65:b1:20:54:32:59:68:e6:0d:40:d8:75:ae:
         49:ae:11:e2:f7:04:dc:3e:29:42:52:08:86:c1:a2:c8:a6:1e:
         da:60:83:07:f2:8f:e4:5a:c1:90:e2:50:46:41:3b:ba:a7:f4:
         60:87:90:8b:dd:6d:6d:80:73:07:e3:31:3d:48:e5:8b:75:74:
         ee:4b:a1:ea:30:af:1f:20:da:3f:b4:7a:dc:38:da:25:7b:86:
         74:95:98:c9:8d:89:27:94:47:7f:43:d2:1c:c5:c8:25:ac:0a:
         6f:be:e1:a9:d4:bc:7f:16:18:f7:e3:19:ca:5d:4c:6c:d0:46:
         10:b0:21:38:d6:2f:74:3b:6d:4a:d0:5a:d4:14:91:43:89:33:
         70:12:2e:9f
-----BEGIN CERTIFICATE-----
MIID7jCCAtagAwIBAgICEBowDQYJKoZIhvcNAQELBQAwKDESMBAGA1UEChMJTm9k
ZU9QQ1VBMRIwEAYDVQQDEwlOb2RlT1BDVUEwHhcNMjIxMDA5MDAyNDIwWhcNMjMx
MDA5MDAyNDIwWjAoMRIwEAYDVQQKEwlOb2RlT1BDVUExEjAQBgNVBAMTCU5vZGVP
UENVQTCCASIwDQYJKoZIhvcNAQEBBQADggEPADCCAQoCggEBANgeR66ygOwnJeCY
q/Un5y2ME9Zm5/jm+YpjqCvPFnRJrPbg6tycTvCbKqRddhpC9NxKuPWZJMKW/qer
HK8JFdk493j2TH5mlMVPC4aoQ4TX0MVNajut0U451lhkbVAa8uydtai3UfTWrK2q
IMhQ7Nk/XrFpZe5EUlazQz9nGM7GqJ2TT/hEAgt/JSEwjjpGhK40CKXd3lrQMAcE
Q0103QzYGn19uYVlq/bbqdGifRdWTzpEdhkeRtLmcgvAGwrp1kN08aW96RI2S7NQ
DBDIwJyibS2JTbqxagEScBPWIrwwcOAqAw235R21qd88PErbcsvJBkJKCaUbdYi1
K8P+qq0CAwEAAaOCASAwggEcMAwGA1UdEwEB/wQCMAAwHQYDVR0OBBYEFPLLOj5z
VzKoL1xjQ1c2UOXbVolIMFEGA1UdIwRKMEiAFPLLOj5zVzKoL1xjQ1c2UOXbVolI
oSykKjAoMRIwEAYDVQQKEwlOb2RlT1BDVUExEjAQBgNVBAMTCU5vZGVPUENVQYIC
EBowOgYDVR0RBDMwMYYhdXJuOmJjOTZkNzNmYjNiNjpOb2RlT1BDVUEtU2VydmVy
ggxiYzk2ZDczZmIzYjYwLAYJYIZIAYb4QgENBB8WHU9wZW5TU0wgR2VuZXJhdGVk
IENlcnRpZmljYXRlMA4GA1UdDwEB/wQEAwIC/DAgBgNVHSUBAf8EFjAUBggrBgEF
BQcDAQYIKwYBBQUHAwIwDQYJKoZIhvcNAQELBQADggEBAHejneo4pRWkadkAnSzO
OUbjyoVw6HWbTDg++RzaWLxj9gh43vrHGgyBI9Cd7aH1ND3JoWNAciIOdDx59VVK
OS17CaQvhYXLuhndaC6ZvZtZFmvb7xUv7Vr/0+h+0UOQ49M48h5BLaLrKbT5nt5B
MWqlZbEgVDJZaOYNQNh1rkmuEeL3BNw+KUJSCIbBosimHtpggwfyj+RawZDiUEZB
O7qn9GCHkIvdbW2AcwfjMT1I5Yt1dO5Loeowrx8g2j+0etw42iV7hnSVmMmNiSeU
R39D0hzFyCWsCm++4anUvH8WGPfjGcpdTGzQRhCwITjWL3Q7bUrQWtQUkUOJM3AS
Lp8=
-----END CERTIFICATE-----
