Certificate:
    Data:
        Version: 3 (0x2)
        Serial Number: 4135 (0x1027)
        Signature Algorithm: sha256WithRSAEncryption
        Issuer: C=FR, ST=IDF, L=Paris, O=Local NODE-OPCUA Certificate Authority, CN=NodeOPCUA-CA
        Validity
            Not Before: Oct  9 00:24:20 2022 GMT
            Not After : Oct  9 00:24:20 2023 GMT
        Subject: C=FR, O=NodeOPCUA, CN=NodeOPCUA
        Subject Public Key Info:
            Public Key Algorithm: rsaEncryption
                RSA Public-Key: (4096 bit)
                Modulus:
                    00:ac:f4:43:7d:69:0e:a7:16:e4:9a:63:f5:ed:1d:
                    ed:d7:52:70:2a:43:ee:2b:3f:9f:35:fa:72:db:b8:
                    cf:e1:2a:63:81:6c:cf:ad:67:b3:75:19:c9:63:59:
                    57:b1:a0:be:05:b8:0e:f5:8b:ac:56:bc:73:30:8a:
                    54:fd:13:39:c8:c2:51:9d:e0:a6:28:c8:c0:61:7a:
                    ba:bc:66:26:c1:a2:47:f7:45:e6:9f:86:2e:d6:28:
                    75:d9:31:b2:ea:4c:1e:1f:8a:55:01:61:e1:2d:10:
                    ec:3a:65:b7:49:d6:6c:2b:26:23:41:05:a0:dc:a6:
                    1b:a5:d4:05:e0:3b:eb:b9:be:a9:03:45:18:03:be:
                    52:83:c8:f4:ea:23:4b:f7:4f:6c:b9:af:3f:80:b1:
                    36:6c:4e:78:9a:0c:73:61:04:0e:6a:62:f5:68:3d:
                    a3:08:70:d5:4a:e5:2f:05:cd:8b:41:ea:71:11:31:
                    5b:ea:6c:a7:6e:87:25:c0:59:8b:27:cc:a6:fb:26:
                    fe:1e:d6:b3:44:89:42:e7:a1:d0:fa:0a:bc:c2:4a:
                    3a:17:b1:1b:74:60:3f:50:4b:8f:06:4d:79:b9:e8:
                    a1:aa:41:e5:f3:d0:b2:95:70:8f:39:14:11:7d:9d:
                    52:84:32:63:61:7b:12:74:36:d8:4e:83:32:06:d8:
                    8d:34:6c:23:d7:5a:08:27:9e:a8:4b:12:26:ed:db:
                    c2:5d:5e:ca:b7:e4:0c:b6:2c:e3:c7:b1:a7:9a:f5:
                    30:25:9c:9a:37:5a:8e:52:8b:ae:72:4b:66:0a:26:
                    1a:67:6f:df:8e:2f:c4:25:08:e4:2b:0d:07:2d:7e:
                    a3:a5:c9:58:c8:62:4c:01:07:31:1c:45:e4:0d:1c:
                    be:09:8d:69:3d:f5:68:24:4a:35:02:b3:d3:d8:f3:
                    76:b6:e6:cc:01:d3:37:52:c1:d6:69:5c:6f:e6:80:
                    fa:6b:08:25:19:3f:2b:73:28:2e:a4:f2:38:db:bb:
                    f6:43:95:3b:85:ed:23:d6:b5:10:18:56:26:7c:02:
                    ae:b4:cd:d4:b5:57:1b:b7:6a:09:c0:13:5e:fe:05:
                    72:e2:92:bb:de:5c:c0:ac:6b:4c:5d:52:fa:9d:f5:
                    5e:94:04:34:6e:11:58:96:43:29:7b:e7:d8:a4:0b:
                    35:69:83:e3:8b:ac:81:e6:ea:2d:82:2d:42:50:78:
                    81:ea:36:c4:3e:55:d3:42:eb:66:cb:d0:be:d0:71:
                    85:93:f8:c2:d5:99:ea:e3:f5:90:0d:91:87:6f:74:
                    75:ff:f6:31:bd:7c:f4:5f:5c:8f:0b:f3:15:40:db:
                    f6:0d:45:83:f4:06:04:34:da:b6:3f:f6:ed:7f:81:
                    3b:21:a3
                Exponent: 65537 (0x10001)
        X509v3 extensions:
            X509v3 Basic Constraints: critical
                CA:FALSE
            X509v3 Subject Key Identifier: 
                E0:7A:83:CE:F0:7E:C8:25:58:C1:05:65:59:DC:A0:34:05:98:72:68
            X509v3 Authority Key Identifier: 
                keyid:A7:15:61:9A:B5:81:C7:F7:D0:76:65:0D:DA:7F:EC:DE:F2:4F:C8:EB
                DirName:/C=FR/ST=IDF/L=Paris/O=Local NODE-OPCUA Certificate Authority/CN=NodeOPCUA-CA
                serial:25:A1:CC:A0:A1:DA:94:52:52:1D:E7:E0:B7:E7:30:D9:7D:F8:10:DD

            X509v3 Subject Alternative Name: 
                URI:urn:bc96d73fb3b6:NodeOPCUA-ServerRevoked, DNS:bc96d73fb3b6, IP Address:127.0.0.1
            Netscape Comment: 
                OpenSSL Generated Certificate
            X509v3 Key Usage: critical
                Digital Signature, Non Repudiation, Key Encipherment, Data Encipherment, Key Agreement, Certificate Sign
            X509v3 Extended Key Usage: critical
                TLS Web Server Authentication, TLS Web Client Authentication
    Signature Algorithm: sha256WithRSAEncryption
         31:1f:7d:54:48:0c:73:16:4d:64:70:45:da:f2:76:14:b6:88:
         57:6a:03:b8:a6:8b:36:ef:57:54:94:ad:10:b0:91:da:3b:12:
         24:cd:34:31:3f:a6:ed:56:e8:6b:99:94:cf:e0:47:60:06:a5:
         c5:b8:8c:fb:39:af:40:c6:40:84:20:f1:78:c3:7b:48:bc:05:
         bb:29:99:eb:80:0c:fe:58:c1:76:8d:2e:d7:1c:28:60:99:8d:
         9c:58:ce:c5:29:a9:91:e3:cf:66:8e:e7:2e:0c:ba:2b:48:82:
         a1:c9:3d:1b:e6:b2:3f:4b:d0:01:ed:c4:89:5c:5d:35:bb:b1:
         7f:ff:4c:9f:db:02:bb:ed:d0:e7:92:29:7e:ef:1b:ba:09:c9:
         dc:75:18:68:0e:08:9f:e5:f0:0c:37:e6:f5:81:91:18:f3:99:
         e2:dd:13:a5:24:33:0b:02:5c:8d:6e:16:52:71:66:1b:ae:fa:
         13:f1:76:21:25:28:d6:d5:bb:3a:ee:21:93:8d:62:14:27:fd:
         1c:47:b7:fc:5c:58:19:7b:c3:49:2e:18:e3:40:52:dd:0d:39:
         9c:93:6e:02:5e:43:6d:e7:a9:50:1d:20:34:a7:91:4d:66:84:
         d7:43:84:70:a9:37:44:88:59:52:8d:0e:a7:05:60:12:83:01:
         c3:21:27:d1
-----BEGIN CERTIFICATE-----
MIIFszCCBJugAwIBAgICECcwDQYJKoZIhvcNAQELBQAwczELMAkGA1UEBhMCRlIx
DDAKBgNVBAgTA0lERjEOMAwGA1UEBxMFUGFyaXMxLzAtBgNVBAoTJkxvY2FsIE5P
REUtT1BDVUEgQ2VydGlmaWNhdGUgQXV0aG9yaXR5MRUwEwYDVQQDEwxOb2RlT1BD
VUEtQ0EwHhcNMjIxMDA5MDAyNDIwWhcNMjMxMDA5MDAyNDIwWjA1MQswCQYDVQQG
EwJGUjESMBAGA1UECgwJTm9kZU9QQ1VBMRIwEAYDVQQDDAlOb2RlT1BDVUEwggIi
MA0GCSqGSIb3DQEBAQUAA4ICDwAwggIKAoICAQCs9EN9aQ6nFuSaY/XtHe3XUnAq
Q+4rP581+nLbuM/hKmOBbM+tZ7N1GcljWVexoL4FuA71i6xWvHMwilT9EznIwlGd
4KYoyMBherq8ZibBokf3Reafhi7WKHXZMbLqTB4filUBYeEtEOw6ZbdJ1mwrJiNB
BaDcphul1AXgO+u5vqkDRRgDvlKDyPTqI0v3T2y5rz+AsTZsTniaDHNhBA5qYvVo
PaMIcNVK5S8FzYtB6nERMVvqbKduhyXAWYsnzKb7Jv4e1rNEiULnodD6CrzCSjoX
sRt0YD9QS48GTXm56KGqQeXz0LKVcI85FBF9nVKEMmNhexJ0NthOgzIG2I00bCPX
WggnnqhLEibt28JdXsq35Ay2LOPHsaea9TAlnJo3Wo5Si65yS2YKJhpnb9+OL8Ql
COQrDQctfqOlyVjIYkwBBzEcReQNHL4JjWk99WgkSjUCs9PY83a25swB0zdSwdZp
XG/mgPprCCUZPytzKC6k8jjbu/ZDlTuF7SPWtRAYViZ8Aq60zdS1Vxu3agnAE17+
BXLikrveXMCsa0xdUvqd9V6UBDRuEViWQyl759ikCzVpg+OLrIHm6i2CLUJQeIHq
NsQ+VdNC62bL0L7QcYWT+MLVmerj9ZANkYdvdHX/9jG9fPRfXI8L8xVA2/YNRYP0
BgQ02rY/9u1/gTshowIDAQABo4IBjTCCAYkwDAYDVR0TAQH/BAIwADAdBgNVHQ4E
FgQU4HqDzvB+yCVYwQVlWdygNAWYcmgwgbAGA1UdIwSBqDCBpYAUpxVhmrWBx/fQ
dmUN2n/s3vJPyOuhd6R1MHMxCzAJBgNVBAYTAkZSMQwwCgYDVQQIEwNJREYxDjAM
BgNVBAcTBVBhcmlzMS8wLQYDVQQKEyZMb2NhbCBOT0RFLU9QQ1VBIENlcnRpZmlj
YXRlIEF1dGhvcml0eTEVMBMGA1UEAxMMTm9kZU9QQ1VBLUNBghQlocygodqUUlId
5+C35zDZffgQ3TBHBgNVHREEQDA+hih1cm46YmM5NmQ3M2ZiM2I2Ok5vZGVPUENV
QS1TZXJ2ZXJSZXZva2VkggxiYzk2ZDczZmIzYjaHBH8AAAEwLAYJYIZIAYb4QgEN
BB8WHU9wZW5TU0wgR2VuZXJhdGVkIENlcnRpZmljYXRlMA4GA1UdDwEB/wQEAwIC
/DAgBgNVHSUBAf8EFjAUBggrBgEFBQcDAQYIKwYBBQUHAwIwDQYJKoZIhvcNAQEL
BQADggEBADEffVRIDHMWTWRwRdrydhS2iFdqA7imizbvV1SUrRCwkdo7EiTNNDE/
pu1W6GuZlM/gR2AGpcW4jPs5r0DGQIQg8XjDe0i8BbspmeuADP5YwXaNLtccKGCZ
jZxYzsUpqZHjz2aO5y4MuitIgqHJPRvmsj9L0AHtxIlcXTW7sX//TJ/bArvt0OeS
KX7vG7oJydx1GGgOCJ/l8Aw35vWBkRjzmeLdE6UkMwsCXI1uFlJxZhuu+hPxdiEl
KNbVuzruIZONYhQn/RxHt/xcWBl7w0kuGONAUt0NOZyTbgJeQ23nqVAdIDSnkU1m
hNdDhHCpN0SIWVKNDqcFYBKDAcMhJ9E=
-----END CERTIFICATE-----
Certificate:
    Data:
        Version: 1 (0x0)
        Serial Number:
            25:a1:cc:a0:a1:da:94:52:52:1d:e7:e0:b7:e7:30:d9:7d:f8:10:dd
        Signature Algorithm: NULL
        Issuer: C = FR, ST = IDF, L = Paris, O = Local NODE-OPCUA Certificate Authority, CN = NodeOPCUA-CA
        Validity
            Not Before: Oct 10 00:24:20 2022 GMT
            Not After : Oct  7 00:24:20 2032 GMT
        Subject: C = FR, ST = IDF, L = Paris, O = Local NODE-OPCUA Certificate Authority, CN = NodeOPCUA-CA
        Subject Public Key Info:
            Public Key Algorithm: rsaEncryption
                RSA Public-Key: (2048 bit)
                Modulus:
                    00:b1:93:34:5c:80:c9:a5:84:47:93:3b:85:00:4c:
                    54:2a:8c:d3:fb:1c:4d:4d:6a:47:0f:5f:ea:97:60:
                    96:b3:85:89:1c:b3:22:44:ee:52:54:c2:f5:a3:9b:
                    7c:34:56:f7:06:5c:da:6d:55:a8:ca:5f:88:79:d8:
                    a5:4c:fe:37:ab:04:cf:54:69:6c:da:1f:75:a9:8c:
                    e2:5e:35:b9:cc:10:e3:26:5b:c1:c4:08:d2:b0:0e:
                    11:b4:0a:6e:ac:a8:36:de:b2:d2:c9:1e:a2:7f:d6:
                    79:83:0d:de:33:d1:dd:54:d7:3d:c9:da:ed:0c:c4:
                    64:57:1d:27:46:74:0a:d9:17:8d:19:03:e6:21:0b:
                    27:21:20:83:fc:12:85:32:92:27:53:0a:47:d9:57:
                    b8:e9:ea:9f:5f:58:1a:8b:de:3e:1e:e2:1e:f0:06:
                    d4:5c:6d:96:ca:96:f8:18:6d:4b:38:4d:d0:99:a8:
                    0a:5d:d0:41:1d:09:62:24:f0:7c:ef:e1:dd:39:f3:
                    20:f7:57:ea:05:aa:2a:92:c6:f4:3d:7e:ba:7c:67:
                    8a:e6:56:c0:e3:9f:5b:3e:75:b9:5e:5e:92:58:f5:
                    af:99:5f:54:e9:9c:ff:07:2b:89:79:92:e1:9e:d6:
                    5e:05:7a:ce:a5:2b:36:07:f3:9c:cc:ca:c6:fa:15:
                    17:59
                Exponent: 65537 (0x10001)
    Signature Algorithm: NULL
-----BEGIN CERTIFICATE-----
MIIE8zCCA9ugAwIBAgIUJaHMoKHalFJSHefgt+cw2X34EN0wDQYJKoZIhvcNAQEL
BQAwczELMAkGA1UEBhMCRlIxDDAKBgNVBAgTA0lERjEOMAwGA1UEBxMFUGFyaXMx
LzAtBgNVBAoTJkxvY2FsIE5PREUtT1BDVUEgQ2VydGlmaWNhdGUgQXV0aG9yaXR5
MRUwEwYDVQQDEwxOb2RlT1BDVUEtQ0EwHhcNMjIxMDEwMDAyNDIwWhcNMzIxMDA3
MDAyNDIwWjBzMQswCQYDVQQGEwJGUjEMMAoGA1UECBMDSURGMQ4wDAYDVQQHEwVQ
YXJpczEvMC0GA1UEChMmTG9jYWwgTk9ERS1PUENVQSBDZXJ0aWZpY2F0ZSBBdXRo
b3JpdHkxFTATBgNVBAMTDE5vZGVPUENVQS1DQTCCASIwDQYJKoZIhvcNAQEBBQAD
ggEPADCCAQoCggEBALGTNFyAyaWER5M7hQBMVCqM0/scTU1qRw9f6pdglrOFiRyz
IkTuUlTC9aObfDRW9wZc2m1VqMpfiHnYpUz+N6sEz1RpbNofdamM4l41ucwQ4yZb
wcQI0rAOEbQKbqyoNt6y0skeon/WeYMN3jPR3VTXPcna7QzEZFcdJ0Z0CtkXjRkD
5iELJyEgg/wShTKSJ1MKR9lXuOnqn19YGovePh7iHvAG1FxtlsqW+BhtSzhN0Jmo
Cl3QQR0JYiTwfO/h3TnzIPdX6gWqKpLG9D1+unxniuZWwOOfWz51uV5eklj1r5lf
VOmc/wcriXmS4Z7WXgV6zqUrNgfznMzKxvoVF1kCAwEAAaOCAX0wggF5MB0GA1Ud
DgQWBBSnFWGatYHH99B2ZQ3af+ze8k/I6zCBsAYDVR0jBIGoMIGlgBSnFWGatYHH
99B2ZQ3af+ze8k/I66F3pHUwczELMAkGA1UEBhMCRlIxDDAKBgNVBAgTA0lERjEO
MAwGA1UEBxMFUGFyaXMxLzAtBgNVBAoTJkxvY2FsIE5PREUtT1BDVUEgQ2VydGlm
aWNhdGUgQXV0aG9yaXR5MRUwEwYDVQQDEwxOb2RlT1BDVUEtQ0GCFCWhzKCh2pRS
Uh3n4LfnMNl9+BDdMAwGA1UdEwQFMAMBAf8wDgYDVR0PAQH/BAQDAgEGMFcGCWCG
SAGG+EIBDQRKFkhDQSBDZXJ0aWZpY2F0ZSBnZW5lcmF0ZWQgYnkgTm9kZS1PUENV
QSBDZXJ0aWZpY2F0ZSB1dGlsaXR5IHVzaW5nIG9wZW5zc2wwLgYDVR0fBCcwJTAj
oCGgH4YdaHR0cDovL2xvY2FsaG9zdDo4OTAwL2NybC5wZW0wDQYJKoZIhvcNAQEL
BQADggEBABkX6R3TgC0r+xYWU2euItmht2l1Ux0JYBmLmMsNUyr+aFCqEcQ/CPU5
J9s9OetGIeiBF6RwJwv8t6eaV8LLpGEFKZYSOIwqQ0psuA4+/spo+edLaRraLsX4
3S6XNzViXfLHIoEGQm2c243P0jVdmASPkg5NwfvtzCaMlcUFcwMAyhJqh5NjHtLz
WoJLtQrBonm9totUDdcvL2m5/3uFaDsrDc8YB4GRECUwbhjvNv60wyi1qa9EGFeh
T6V15FqQPWNs2oWbqaBMFdkidXRjF4MYU/XCIW9nTfaCV6aT1U2Ox/vjQjdC1xsq
XV46vayJH4kVdNzfDgedlp5614mu1Mc=
-----END CERTIFICATE-----
