Certificate Request:
    Data:
        Version: 1 (0x0)
        Subject: C = FR, O = NodeOPCUA, CN = NodeOPCUA
        Subject Public Key Info:
            Public Key Algorithm: rsaEncryption
                RSA Public-Key: (1024 bit)
                Modulus:
                    00:dc:6b:53:ca:df:41:64:62:f1:c7:83:e9:3d:53:
                    0a:eb:dd:44:54:90:35:33:6d:a6:df:2b:60:a0:42:
                    6e:da:e2:50:f2:ce:b6:a1:36:9b:7f:f2:8e:21:7e:
                    01:c1:2d:30:3a:f8:e4:53:fb:34:64:bf:ea:bf:73:
                    cb:88:25:4e:08:8d:60:1c:d5:cd:3d:d0:56:b3:53:
                    5b:a9:79:9c:30:89:a0:92:ac:ac:12:6e:a9:bf:87:
                    be:a7:30:d1:9f:b4:48:46:8b:3e:a5:8b:37:54:a0:
                    fa:87:6c:db:59:13:f3:bf:6a:cb:d9:ae:da:67:01:
                    c5:f3:07:2d:0a:90:1b:20:e1
                Exponent: 65537 (0x10001)
        Attributes:
        Requested Extensions:
            X509v3 Basic Constraints: 
                CA:FALSE
            X509v3 Key Usage: critical
                Certificate Sign, CRL Sign
            X509v3 Subject Alternative Name: 
                URI:urn:bc96d73fb3b6:NodeOPCUA-Server, DNS:bc96d73fb3b6, IP Address:127.0.0.1
    Signature Algorithm: sha256WithRSAEncryption
         57:c5:4b:8a:b5:af:4f:ff:a2:00:4f:38:c9:b4:99:59:70:ec:
         e8:8d:81:9c:6f:64:7e:0e:72:93:05:9b:9d:29:aa:ca:87:bd:
         f1:98:f6:13:f9:43:4e:f8:8e:56:d5:c8:07:22:3b:cf:02:7e:
         7c:e9:98:a3:8f:66:3d:f7:db:80:e6:f0:a5:ab:e4:06:6d:19:
         80:d1:45:87:b3:ec:8e:93:99:1f:7f:ac:b4:4f:e8:af:61:96:
         c1:0f:6a:1f:99:87:d8:16:03:c5:33:ef:2e:20:8b:e5:cd:11:
         b2:0f:3a:15:84:20:2d:fe:70:83:a7:a6:89:3e:b2:e3:14:fe:
         a9:96
-----BEGIN CERTIFICATE REQUEST-----
MIIB4zCCAUwCAQAwNTELMAkGA1UEBhMCRlIxEjAQBgNVBAoMCU5vZGVPUENVQTES
MBAGA1UEAwwJTm9kZU9QQ1VBMIGfMA0GCSqGSIb3DQEBAQUAA4GNADCBiQKBgQDc
a1PK30FkYvHHg+k9Uwrr3URUkDUzbabfK2CgQm7a4lDyzrahNpt/8o4hfgHBLTA6
+ORT+zRkv+q/c8uIJU4IjWAc1c090FazU1upeZwwiaCSrKwSbqm/h76nMNGftEhG
iz6lizdUoPqHbNtZE/O/asvZrtpnAcXzBy0KkBsg4QIDAQABoG4wbAYJKoZIhvcN
AQkOMV8wXTAJBgNVHRMEAjAAMA4GA1UdDwEB/wQEAwIBBjBABgNVHREEOTA3hiF1
cm46YmM5NmQ3M2ZiM2I2Ok5vZGVPUENVQS1TZXJ2ZXKCDGJjOTZkNzNmYjNiNocE
fwAAATANBgkqhkiG9w0BAQsFAAOBgQBXxUuKta9P/6IATzjJtJlZcOzojYGcb2R+
DnKTBZudKarKh73xmPYT+UNO+I5W1cgHIjvPAn586Zijj2Y999uA5vClq+QGbRmA
0UWHs+yOk5kff6y0T+ivYZbBD2ofmYfYFgPFM+8uIIvlzRGyDzoVhCAt/nCDp6aJ
PrLjFP6plg==
-----END CERTIFICATE REQUEST-----
