Certificate Request:
    Data:
        Version: 1 (0x0)
        Subject: C = FR, O = NodeOPCUA, CN = NodeOPCUA
        Subject Public Key Info:
            Public Key Algorithm: rsaEncryption
                RSA Public-Key: (2048 bit)
                Modulus:
                    00:d8:1e:47:ae:b2:80:ec:27:25:e0:98:ab:f5:27:
                    e7:2d:8c:13:d6:66:e7:f8:e6:f9:8a:63:a8:2b:cf:
                    16:74:49:ac:f6:e0:ea:dc:9c:4e:f0:9b:2a:a4:5d:
                    76:1a:42:f4:dc:4a:b8:f5:99:24:c2:96:fe:a7:ab:
                    1c:af:09:15:d9:38:f7:78:f6:4c:7e:66:94:c5:4f:
                    0b:86:a8:43:84:d7:d0:c5:4d:6a:3b:ad:d1:4e:39:
                    d6:58:64:6d:50:1a:f2:ec:9d:b5:a8:b7:51:f4:d6:
                    ac:ad:aa:20:c8:50:ec:d9:3f:5e:b1:69:65:ee:44:
                    52:56:b3:43:3f:67:18:ce:c6:a8:9d:93:4f:f8:44:
                    02:0b:7f:25:21:30:8e:3a:46:84:ae:34:08:a5:dd:
                    de:5a:d0:30:07:04:43:4d:74:dd:0c:d8:1a:7d:7d:
                    b9:85:65:ab:f6:db:a9:d1:a2:7d:17:56:4f:3a:44:
                    76:19:1e:46:d2:e6:72:0b:c0:1b:0a:e9:d6:43:74:
                    f1:a5:bd:e9:12:36:4b:b3:50:0c:10:c8:c0:9c:a2:
                    6d:2d:89:4d:ba:b1:6a:01:12:70:13:d6:22:bc:30:
                    70:e0:2a:03:0d:b7:e5:1d:b5:a9:df:3c:3c:4a:db:
                    72:cb:c9:06:42:4a:09:a5:1b:75:88:b5:2b:c3:fe:
                    aa:ad
                Exponent: 65537 (0x10001)
        Attributes:
        Requested Extensions:
            X509v3 Basic Constraints: 
                CA:FALSE
            X509v3 Key Usage: critical
                Certificate Sign, CRL Sign
            X509v3 Subject Alternative Name: 
                URI:urn:bc96d73fb3b6:NodeOPCUA-Server, DNS:bc96d73fb3b6, IP Address:127.0.0.1
    Signature Algorithm: sha256WithRSAEncryption
         2b:dc:3c:a9:0a:b0:a1:07:fe:49:15:f8:6f:72:47:89:39:ca:
         e7:ba:d0:e8:fd:7d:7d:b0:2f:a4:e2:bb:13:d9:60:20:9a:e0:
         a7:e2:73:5e:00:b2:66:43:2a:f3:8a:72:86:ef:e1:0f:80:7f:
         dd:d0:15:2f:48:0b:2b:a3:e8:c3:d0:b7:19:b3:bc:73:43:43:
         e8:83:f2:79:ec:1b:41:af:1e:01:be:9a:72:ed:9d:67:f5:71:
         22:c4:5c:69:76:25:ef:df:75:ae:22:fd:cb:ac:f7:9c:9f:22:
         49:9b:d0:bc:bb:26:8f:54:f9:2c:59:a7:d9:2a:30:74:7d:41:
         f6:b2:a7:ec:20:a7:18:ff:d3:ff:0a:a3:d9:f1:12:eb:36:6a:
         dc:10:a3:fe:2b:ed:a8:ae:c9:ae:67:ea:20:b1:df:1d:34:bf:
         ce:a9:6e:fd:a5:8c:e0:33:c1:a0:c1:dd:dc:ca:d5:8f:94:21:
         61:e9:14:8e:6a:4b:68:c8:37:c1:24:01:95:e4:52:30:db:f8:
         1c:2e:c2:d0:35:e0:d6:80:50:bd:fa:eb:57:5e:0a:07:fe:93:
         99:ee:f2:3c:85:b9:9b:31:b4:9b:7d:fa:da:af:58:ae:ce:bc:
         d9:f4:cd:aa:6e:e3:be:a0:76:04:e7:ca:91:a7:2f:2e:ef:20:
         2a:a2:ba:60
-----BEGIN CERTIFICATE REQUEST-----
MIIC6DCCAdACAQAwNTELMAkGA1UEBhMCRlIxEjAQBgNVBAoMCU5vZGVPUENVQTES
MBAGA1UEAwwJTm9kZU9QQ1VBMIIBIjANBgkqhkiG9w0BAQEFAAOCAQ8AMIIBCgKC
AQEA2B5HrrKA7Ccl4Jir9SfnLYwT1mbn+Ob5imOoK88WdEms9uDq3JxO8JsqpF12
GkL03Eq49Zkkwpb+p6scrwkV2Tj3ePZMfmaUxU8LhqhDhNfQxU1qO63RTjnWWGRt
UBry7J21qLdR9NasraogyFDs2T9esWll7kRSVrNDP2cYzsaonZNP+EQCC38lITCO
OkaErjQIpd3eWtAwBwRDTXTdDNgafX25hWWr9tup0aJ9F1ZPOkR2GR5G0uZyC8Ab
CunWQ3Txpb3pEjZLs1AMEMjAnKJtLYlNurFqARJwE9YivDBw4CoDDbflHbWp3zw8
Sttyy8kGQkoJpRt1iLUrw/6qrQIDAQABoG4wbAYJKoZIhvcNAQkOMV8wXTAJBgNV
HRMEAjAAMA4GA1UdDwEB/wQEAwIBBjBABgNVHREEOTA3hiF1cm46YmM5NmQ3M2Zi
M2I2Ok5vZGVPUENVQS1TZXJ2ZXKCDGJjOTZkNzNmYjNiNocEfwAAATANBgkqhkiG
9w0BAQsFAAOCAQEAK9w8qQqwoQf+SRX4b3JHiTnK57rQ6P19fbAvpOK7E9lgIJrg
p+JzXgCyZkMq84pyhu/hD4B/3dAVL0gLK6Pow9C3GbO8c0ND6IPyeewbQa8eAb6a
cu2dZ/VxIsRcaXYl7991riL9y6z3nJ8iSZvQvLsmj1T5LFmn2SowdH1B9rKn7CCn
GP/T/wqj2fES6zZq3BCj/ivtqK7JrmfqILHfHTS/zqlu/aWM4DPBoMHd3MrVj5Qh
YekUjmpLaMg3wSQBleRSMNv4HC7C0DXg1oBQvfrrV14KB/6Tme7yPIW5mzG0m336
2q9Yrs682fTNqm7jvqB2BOfKkacvLu8gKqK6YA==
-----END CERTIFICATE REQUEST-----
