Certificate Request:
    Data:
        Version: 1 (0x0)
        Subject: C = FR, O = NodeOPCUA, CN = NodeOPCUA
        Subject Public Key Info:
            Public Key Algorithm: rsaEncryption
                RSA Public-Key: (1024 bit)
                Modulus:
                    00:dc:6b:53:ca:df:41:64:62:f1:c7:83:e9:3d:53:
                    0a:eb:dd:44:54:90:35:33:6d:a6:df:2b:60:a0:42:
                    6e:da:e2:50:f2:ce:b6:a1:36:9b:7f:f2:8e:21:7e:
                    01:c1:2d:30:3a:f8:e4:53:fb:34:64:bf:ea:bf:73:
                    cb:88:25:4e:08:8d:60:1c:d5:cd:3d:d0:56:b3:53:
                    5b:a9:79:9c:30:89:a0:92:ac:ac:12:6e:a9:bf:87:
                    be:a7:30:d1:9f:b4:48:46:8b:3e:a5:8b:37:54:a0:
                    fa:87:6c:db:59:13:f3:bf:6a:cb:d9:ae:da:67:01:
                    c5:f3:07:2d:0a:90:1b:20:e1
                Exponent: 65537 (0x10001)
        Attributes:
        Requested Extensions:
            X509v3 Basic Constraints: 
                CA:FALSE
            X509v3 Key Usage: critical
                Certificate Sign, CRL Sign
            X509v3 Subject Alternative Name: 
                URI:urn:bc96d73fb3b6:NodeOPCUA-ServerRevoked, DNS:bc96d73fb3b6, IP Address:127.0.0.1
    Signature Algorithm: sha256WithRSAEncryption
         9f:e1:51:3e:e4:f2:d1:f6:ac:92:55:23:92:39:f0:64:1a:6c:
         15:67:a9:e6:73:ff:a6:9e:63:1d:e5:0e:9c:e8:5c:c4:e4:ce:
         03:17:34:a2:81:d2:01:fd:51:10:2a:48:a4:ee:25:69:89:50:
         92:1f:8c:ff:39:93:11:04:7a:b2:87:a0:2c:d4:f6:9f:8f:9f:
         2c:2b:2c:25:a7:c8:1f:d4:1f:1f:71:88:f0:f4:a9:dd:08:d8:
         4b:63:fa:be:34:f7:43:f7:4f:d7:52:b1:ed:1f:15:0b:4b:b9:
         cb:c1:60:bb:eb:f1:13:5b:47:aa:47:a7:c9:3b:4c:36:f1:d7:
         10:0e
-----BEGIN CERTIFICATE REQUEST-----
MIIB6jCCAVMCAQAwNTELMAkGA1UEBhMCRlIxEjAQBgNVBAoMCU5vZGVPUENVQTES
MBAGA1UEAwwJTm9kZU9QQ1VBMIGfMA0GCSqGSIb3DQEBAQUAA4GNADCBiQKBgQDc
a1PK30FkYvHHg+k9Uwrr3URUkDUzbabfK2CgQm7a4lDyzrahNpt/8o4hfgHBLTA6
+ORT+zRkv+q/c8uIJU4IjWAc1c090FazU1upeZwwiaCSrKwSbqm/h76nMNGftEhG
iz6lizdUoPqHbNtZE/O/asvZrtpnAcXzBy0KkBsg4QIDAQABoHUwcwYJKoZIhvcN
AQkOMWYwZDAJBgNVHRMEAjAAMA4GA1UdDwEB/wQEAwIBBjBHBgNVHREEQDA+hih1
cm46YmM5NmQ3M2ZiM2I2Ok5vZGVPUENVQS1TZXJ2ZXJSZXZva2VkggxiYzk2ZDcz
ZmIzYjaHBH8AAAEwDQYJKoZIhvcNAQELBQADgYEAn+FRPuTy0fasklUjkjnwZBps
FWep5nP/pp5jHeUOnOhcxOTOAxc0ooHSAf1RECpIpO4laYlQkh+M/zmTEQR6soeg
LNT2n4+fLCssJafIH9QfH3GI8PSp3QjYS2P6vjT3Q/dP11Kx7R8VC0u5y8Fgu+vx
E1tHqkenyTtMNvHXEA4=
-----END CERTIFICATE REQUEST-----
