Certificate:
    Data:
        Version: 3 (0x2)
        Serial Number: 4117 (0x1015)
        Signature Algorithm: sha256WithRSAEncryption
        Issuer: O=NodeOPCUA, CN=NodeOPCUA
        Validity
            Not Before: Oct  9 00:24:20 2022 GMT
            Not After : Oct  9 00:24:20 2023 GMT
        Subject: O=NodeOPCUA, CN=NodeOPCUA
        Subject Public Key Info:
            Public Key Algorithm: rsaEncryption
                RSA Public-Key: (1024 bit)
                Modulus:
                    00:dc:6b:53:ca:df:41:64:62:f1:c7:83:e9:3d:53:
                    0a:eb:dd:44:54:90:35:33:6d:a6:df:2b:60:a0:42:
                    6e:da:e2:50:f2:ce:b6:a1:36:9b:7f:f2:8e:21:7e:
                    01:c1:2d:30:3a:f8:e4:53:fb:34:64:bf:ea:bf:73:
                    cb:88:25:4e:08:8d:60:1c:d5:cd:3d:d0:56:b3:53:
                    5b:a9:79:9c:30:89:a0:92:ac:ac:12:6e:a9:bf:87:
                    be:a7:30:d1:9f:b4:48:46:8b:3e:a5:8b:37:54:a0:
                    fa:87:6c:db:59:13:f3:bf:6a:cb:d9:ae:da:67:01:
                    c5:f3:07:2d:0a:90:1b:20:e1
                Exponent: 65537 (0x10001)
        X509v3 extensions:
            X509v3 Basic Constraints: critical
                CA:FALSE
            X509v3 Subject Key Identifier: 
                8A:B4:81:BC:9E:4A:1E:9B:0A:DE:A6:A0:EE:9E:1C:FD:F8:28:C2:84
            X509v3 Authority Key Identifier: 
                keyid:8A:B4:81:BC:9E:4A:1E:9B:0A:DE:A6:A0:EE:9E:1C:FD:F8:28:C2:84
                DirName:/O=NodeOPCUA/CN=NodeOPCUA
                serial:10:15

            X509v3 Subject Alternative Name: 
                URI:urn:bc96d73fb3b6:NodeOPCUA-Server, DNS:bc96d73fb3b6
            Netscape Comment: 
                OpenSSL Generated Certificate
            X509v3 Key Usage: critical
                Digital Signature, Non Repudiation, Key Encipherment, Data Encipherment, Key Agreement, Certificate Sign
            X509v3 Extended Key Usage: critical
                TLS Web Server Authentication, TLS Web Client Authentication
    Signature Algorithm: sha256WithRSAEncryption
         23:72:ed:ed:60:2d:ea:18:57:5a:0b:20:3f:27:56:40:cc:24:
         ae:5e:6f:b9:be:a1:6f:cf:16:b0:09:19:00:6f:62:3a:cb:29:
         d0:94:25:e9:77:59:3b:53:61:4b:1f:74:a8:dc:2f:e2:74:6d:
         17:28:3b:ad:03:5d:65:c6:3a:f2:6e:38:79:b7:2d:cd:a5:9b:
         ab:61:cf:71:b0:94:b4:05:a4:4d:fe:9e:3e:d3:df:9d:46:a4:
         1e:75:2f:cd:37:29:41:8a:3b:42:62:51:30:74:f5:5f:0b:4f:
         3b:2d:fc:1a:d2:1c:62:08:0d:4a:12:ae:4d:a7:77:7c:b8:18:
         78:d7
-----BEGIN CERTIFICATE-----
MIIC6TCCAlKgAwIBAgICEBUwDQYJKoZIhvcNAQELBQAwKDESMBAGA1UEChMJTm9k
ZU9QQ1VBMRIwEAYDVQQDEwlOb2RlT1BDVUEwHhcNMjIxMDA5MDAyNDIwWhcNMjMx
MDA5MDAyNDIwWjAoMRIwEAYDVQQKEwlOb2RlT1BDVUExEjAQBgNVBAMTCU5vZGVP
UENVQTCBnzANBgkqhkiG9w0BAQEFAAOBjQAwgYkCgYEA3GtTyt9BZGLxx4PpPVMK
691EVJA1M22m3ytgoEJu2uJQ8s62oTabf/KOIX4BwS0wOvjkU/s0ZL/qv3PLiCVO
CI1gHNXNPdBWs1NbqXmcMImgkqysEm6pv4e+pzDRn7RIRos+pYs3VKD6h2zbWRPz
v2rL2a7aZwHF8wctCpAbIOECAwEAAaOCASAwggEcMAwGA1UdEwEB/wQCMAAwHQYD
VR0OBBYEFIq0gbyeSh6bCt6moO6eHP34KMKEMFEGA1UdIwRKMEiAFIq0gbyeSh6b
Ct6moO6eHP34KMKEoSykKjAoMRIwEAYDVQQKEwlOb2RlT1BDVUExEjAQBgNVBAMT
CU5vZGVPUENVQYICEBUwOgYDVR0RBDMwMYYhdXJuOmJjOTZkNzNmYjNiNjpOb2Rl
T1BDVUEtU2VydmVyggxiYzk2ZDczZmIzYjYwLAYJYIZIAYb4QgENBB8WHU9wZW5T
U0wgR2VuZXJhdGVkIENlcnRpZmljYXRlMA4GA1UdDwEB/wQEAwIC/DAgBgNVHSUB
Af8EFjAUBggrBgEFBQcDAQYIKwYBBQUHAwIwDQYJKoZIhvcNAQELBQADgYEAI3Lt
7WAt6hhXWgsgPydWQMwkrl5vub6hb88WsAkZAG9iOssp0JQl6XdZO1NhSx90qNwv
4nRtFyg7rQNdZcY68m44ebctzaWbq2HPcbCUtAWkTf6ePtPfnUakHnUvzTcpQYo7
QmJRMHT1XwtPOy38GtIcYggNShKuTad3fLgYeNc=
-----END CERTIFICATE-----
