Certificate Request:
    Data:
        Version: 1 (0x0)
        Subject: C = FR, O = NodeOPCUA, CN = NodeOPCUA
        Subject Public Key Info:
            Public Key Algorithm: rsaEncryption
                RSA Public-Key: (3072 bit)
                Modulus:
                    00:d1:04:f7:c8:3a:0d:85:d0:41:c7:5b:1e:ee:3b:
                    af:36:54:db:2e:31:a9:c4:d7:06:4c:98:50:c1:2c:
                    40:26:03:f1:4d:9e:47:0c:3b:3a:a6:3b:bb:71:a2:
                    59:89:0e:a1:79:00:15:42:7e:0a:1d:09:a1:e6:01:
                    49:a3:0e:bf:c3:b9:ef:73:b0:b8:76:a2:55:8b:c5:
                    f0:6d:db:a4:09:f3:da:33:48:0e:ca:4c:f9:e3:77:
                    e4:be:9c:f5:09:ca:05:18:91:15:a8:86:08:09:8b:
                    73:40:18:24:88:55:10:38:f9:13:33:eb:01:d8:59:
                    68:db:1f:54:00:6b:26:37:83:d0:85:39:f2:a5:c6:
                    ff:00:84:56:60:6b:86:5c:b0:65:3c:ac:97:7d:61:
                    72:b8:2f:8c:4e:ad:56:a9:21:45:59:1a:06:5a:ed:
                    90:3e:c0:ce:21:e5:7c:e5:3d:2e:2e:45:e9:b7:84:
                    3b:fb:ba:c4:88:53:8a:6a:f9:87:4d:9a:9a:3d:46:
                    54:b8:53:d1:4e:c9:5b:1d:0f:a0:b4:38:29:14:00:
                    ad:17:68:47:df:fb:70:17:41:f0:85:3b:02:22:01:
                    f1:15:6f:72:39:75:c2:97:16:9f:df:84:6f:0d:28:
                    49:7c:4a:6b:36:39:c3:13:c4:fd:16:ce:7a:96:8f:
                    2a:ca:a2:31:a2:0e:9d:bd:f4:4a:af:10:e3:66:fe:
                    3d:89:4d:50:03:32:97:fb:e4:49:98:35:0e:e1:e9:
                    c7:45:fd:3a:2d:10:fa:76:6b:c8:21:a9:ff:a0:ac:
                    b2:0b:a1:cf:4b:53:84:15:e3:98:11:0a:e4:1f:6e:
                    73:64:af:d2:a4:b8:f3:86:de:44:33:6c:1f:7d:49:
                    dc:e5:f0:b2:34:a3:5f:04:65:42:c9:74:e7:3f:92:
                    6f:19:8e:11:58:d8:2f:cc:4f:d2:a9:fa:bd:61:01:
                    74:3e:fd:87:bc:d2:6f:01:5b:3c:b9:87:31:61:88:
                    f5:40:bf:0f:25:39:8b:6f:f7:8d
                Exponent: 65537 (0x10001)
        Attributes:
        Requested Extensions:
            X509v3 Basic Constraints: 
                CA:FALSE
            X509v3 Key Usage: critical
                Certificate Sign, CRL Sign
            X509v3 Subject Alternative Name: 
                URI:urn:bc96d73fb3b6:NodeOPCUA-Server, DNS:bc96d73fb3b6, IP Address:127.0.0.1
    Signature Algorithm: sha256WithRSAEncryption
         7c:7c:f3:6f:d2:7d:77:f0:ff:38:a3:f1:95:22:93:00:ed:de:
         55:cf:64:c1:5f:d7:6e:d3:96:b9:43:8b:aa:a1:77:39:47:2b:
         f9:8f:9d:b3:47:44:bb:5c:2b:cd:a2:59:f0:86:40:90:6c:cf:
         17:11:b5:50:ec:e6:3d:94:9f:77:67:db:71:c0:9b:94:61:af:
         55:d2:f8:73:32:31:d9:31:75:f7:0e:4e:96:b0:9d:5e:a1:d7:
         f1:39:d0:84:4f:61:1f:c4:b5:53:18:ca:83:3c:6d:6f:43:ec:
         14:e7:95:1e:5a:ac:ce:d3:6d:37:cd:d3:28:7c:9f:02:06:94:
         6d:3f:de:4d:e5:fd:ef:b6:ca:9e:2a:f7:58:43:af:9e:e7:b3:
         da:97:5c:6f:99:c5:7b:0a:77:51:a0:1e:48:c1:99:0e:cf:f9:
         f5:64:23:8a:20:2f:20:ef:4d:a2:7b:34:af:61:56:af:da:3a:
         19:e1:da:ea:45:b6:4f:b3:c5:55:7f:db:9f:a3:27:d4:f3:3f:
         6b:e6:f9:db:01:3a:0d:09:c8:9f:38:5a:85:0e:39:3c:ed:94:
         f3:fd:6a:ac:4f:cc:21:f1:ff:52:71:33:b2:d7:14:a5:4c:0e:
         a5:43:9a:6b:32:45:1f:7f:35:7f:c7:1f:94:5b:a6:f0:cd:2b:
         23:a4:8b:26:de:77:e3:53:5b:d2:57:40:61:57:2b:7b:c1:07:
         13:cc:d9:7b:b3:61:f7:64:14:a6:59:01:1f:ee:50:19:1e:36:
         b4:48:0f:49:f9:f7:1f:6b:8d:2c:f1:f0:6a:29:8d:42:eb:14:
         c4:49:95:68:82:96:be:62:57:0b:22:fd:9d:ee:c2:52:9b:10:
         37:f8:1d:ff:95:f7:b5:f3:00:88:2d:8e:0d:5e:8b:30:74:ad:
         34:df:50:5f:8a:09:1b:69:49:46:97:e5:a7:8e:2f:e4:10:50:
         eb:69:eb:7b:a4:73:ff:8d:f2:3e:f9:b4:0c:7d:6f:0e:9b:b7:
         44:99:96:f8:bc:34
-----BEGIN CERTIFICATE REQUEST-----
MIID6DCCAlACAQAwNTELMAkGA1UEBhMCRlIxEjAQBgNVBAoMCU5vZGVPUENVQTES
MBAGA1UEAwwJTm9kZU9QQ1VBMIIBojANBgkqhkiG9w0BAQEFAAOCAY8AMIIBigKC
AYEA0QT3yDoNhdBBx1se7juvNlTbLjGpxNcGTJhQwSxAJgPxTZ5HDDs6pju7caJZ
iQ6heQAVQn4KHQmh5gFJow6/w7nvc7C4dqJVi8XwbdukCfPaM0gOykz543fkvpz1
CcoFGJEVqIYICYtzQBgkiFUQOPkTM+sB2Flo2x9UAGsmN4PQhTnypcb/AIRWYGuG
XLBlPKyXfWFyuC+MTq1WqSFFWRoGWu2QPsDOIeV85T0uLkXpt4Q7+7rEiFOKavmH
TZqaPUZUuFPRTslbHQ+gtDgpFACtF2hH3/twF0HwhTsCIgHxFW9yOXXClxaf34Rv
DShJfEprNjnDE8T9Fs56lo8qyqIxog6dvfRKrxDjZv49iU1QAzKX++RJmDUO4enH
Rf06LRD6dmvIIan/oKyyC6HPS1OEFeOYEQrkH25zZK/SpLjzht5EM2wffUnc5fCy
NKNfBGVCyXTnP5JvGY4RWNgvzE/Sqfq9YQF0Pv2HvNJvAVs8uYcxYYj1QL8PJTmL
b/eNAgMBAAGgbjBsBgkqhkiG9w0BCQ4xXzBdMAkGA1UdEwQCMAAwDgYDVR0PAQH/
BAQDAgEGMEAGA1UdEQQ5MDeGIXVybjpiYzk2ZDczZmIzYjY6Tm9kZU9QQ1VBLVNl
cnZlcoIMYmM5NmQ3M2ZiM2I2hwR/AAABMA0GCSqGSIb3DQEBCwUAA4IBgQB8fPNv
0n138P84o/GVIpMA7d5Vz2TBX9du05a5Q4uqoXc5Ryv5j52zR0S7XCvNolnwhkCQ
bM8XEbVQ7OY9lJ93Z9txwJuUYa9V0vhzMjHZMXX3Dk6WsJ1eodfxOdCET2EfxLVT
GMqDPG1vQ+wU55UeWqzO0203zdMofJ8CBpRtP95N5f3vtsqeKvdYQ6+e57Pal1xv
mcV7CndRoB5IwZkOz/n1ZCOKIC8g702iezSvYVav2joZ4drqRbZPs8VVf9ufoyfU
8z9r5vnbAToNCcifOFqFDjk87ZTz/WqsT8wh8f9ScTOy1xSlTA6lQ5prMkUffzV/
xx+UW6bwzSsjpIsm3nfjU1vSV0BhVyt7wQcTzNl7s2H3ZBSmWQEf7lAZHja0SA9J
+fcfa40s8fBqKY1C6xTESZVogpa+YlcLIv2d7sJSmxA3+B3/lfe18wCILY4NXosw
dK0031BfigkbaUlGl+Wnji/kEFDraet7pHP/jfI++bQMfW8Om7dEmZb4vDQ=
-----END CERTIFICATE REQUEST-----
