Certificate Request:
    Data:
        Version: 1 (0x0)
        Subject: C = FR, O = NodeOPCUA, CN = NodeOPCUA
        Subject Public Key Info:
            Public Key Algorithm: rsaEncryption
                RSA Public-Key: (4096 bit)
                Modulus:
                    00:ac:f4:43:7d:69:0e:a7:16:e4:9a:63:f5:ed:1d:
                    ed:d7:52:70:2a:43:ee:2b:3f:9f:35:fa:72:db:b8:
                    cf:e1:2a:63:81:6c:cf:ad:67:b3:75:19:c9:63:59:
                    57:b1:a0:be:05:b8:0e:f5:8b:ac:56:bc:73:30:8a:
                    54:fd:13:39:c8:c2:51:9d:e0:a6:28:c8:c0:61:7a:
                    ba:bc:66:26:c1:a2:47:f7:45:e6:9f:86:2e:d6:28:
                    75:d9:31:b2:ea:4c:1e:1f:8a:55:01:61:e1:2d:10:
                    ec:3a:65:b7:49:d6:6c:2b:26:23:41:05:a0:dc:a6:
                    1b:a5:d4:05:e0:3b:eb:b9:be:a9:03:45:18:03:be:
                    52:83:c8:f4:ea:23:4b:f7:4f:6c:b9:af:3f:80:b1:
                    36:6c:4e:78:9a:0c:73:61:04:0e:6a:62:f5:68:3d:
                    a3:08:70:d5:4a:e5:2f:05:cd:8b:41:ea:71:11:31:
                    5b:ea:6c:a7:6e:87:25:c0:59:8b:27:cc:a6:fb:26:
                    fe:1e:d6:b3:44:89:42:e7:a1:d0:fa:0a:bc:c2:4a:
                    3a:17:b1:1b:74:60:3f:50:4b:8f:06:4d:79:b9:e8:
                    a1:aa:41:e5:f3:d0:b2:95:70:8f:39:14:11:7d:9d:
                    52:84:32:63:61:7b:12:74:36:d8:4e:83:32:06:d8:
                    8d:34:6c:23:d7:5a:08:27:9e:a8:4b:12:26:ed:db:
                    c2:5d:5e:ca:b7:e4:0c:b6:2c:e3:c7:b1:a7:9a:f5:
                    30:25:9c:9a:37:5a:8e:52:8b:ae:72:4b:66:0a:26:
                    1a:67:6f:df:8e:2f:c4:25:08:e4:2b:0d:07:2d:7e:
                    a3:a5:c9:58:c8:62:4c:01:07:31:1c:45:e4:0d:1c:
                    be:09:8d:69:3d:f5:68:24:4a:35:02:b3:d3:d8:f3:
                    76:b6:e6:cc:01:d3:37:52:c1:d6:69:5c:6f:e6:80:
                    fa:6b:08:25:19:3f:2b:73:28:2e:a4:f2:38:db:bb:
                    f6:43:95:3b:85:ed:23:d6:b5:10:18:56:26:7c:02:
                    ae:b4:cd:d4:b5:57:1b:b7:6a:09:c0:13:5e:fe:05:
                    72:e2:92:bb:de:5c:c0:ac:6b:4c:5d:52:fa:9d:f5:
                    5e:94:04:34:6e:11:58:96:43:29:7b:e7:d8:a4:0b:
                    35:69:83:e3:8b:ac:81:e6:ea:2d:82:2d:42:50:78:
                    81:ea:36:c4:3e:55:d3:42:eb:66:cb:d0:be:d0:71:
                    85:93:f8:c2:d5:99:ea:e3:f5:90:0d:91:87:6f:74:
                    75:ff:f6:31:bd:7c:f4:5f:5c:8f:0b:f3:15:40:db:
                    f6:0d:45:83:f4:06:04:34:da:b6:3f:f6:ed:7f:81:
                    3b:21:a3
                Exponent: 65537 (0x10001)
        Attributes:
        Requested Extensions:
            X509v3 Basic Constraints: 
                CA:FALSE
            X509v3 Key Usage: critical
                Certificate Sign, CRL Sign
            X509v3 Subject Alternative Name: 
                URI:urn:bc96d73fb3b6:NodeOPCUA-Server, DNS:bc96d73fb3b6, IP Address:127.0.0.1
    Signature Algorithm: sha256WithRSAEncryption
         26:45:ff:54:2c:6c:b1:25:74:38:9e:8a:47:30:83:08:c5:92:
         9c:fc:4b:54:b5:c8:b6:ac:3f:2b:80:07:f5:20:6e:75:da:3f:
         92:db:dc:96:90:80:e2:65:33:3d:f1:54:40:8f:11:80:0d:61:
         4a:e8:c7:e4:1b:18:f7:27:b2:d9:f9:35:14:54:7f:46:a9:48:
         35:9a:50:81:62:d9:60:06:20:87:ab:fc:67:b0:f1:16:bb:59:
         01:0b:9a:e3:56:1d:7b:74:36:aa:63:c6:f4:10:fe:41:a0:bb:
         ed:73:cb:3a:bc:74:20:58:d5:0e:da:14:e9:74:65:54:a0:df:
         2d:e7:a7:8a:76:ad:31:38:99:d8:d4:c6:99:d3:90:bb:2d:29:
         40:6c:f3:ae:d2:f7:39:31:1a:89:ad:80:48:fd:fe:28:5b:b5:
         25:50:c1:a8:e4:cc:ba:1a:58:6d:9b:6a:7d:69:c5:70:dd:17:
         b4:7a:4b:56:07:c2:99:ab:90:5d:57:a0:d5:1a:2e:56:a3:0d:
         b9:7b:18:50:94:82:e3:fc:ba:d2:22:12:9e:06:f8:5d:a1:fb:
         2b:b7:36:f4:47:bb:70:84:16:82:ce:71:14:b8:09:a6:b5:5f:
         85:81:86:4b:f0:c8:a6:5a:de:5d:54:88:4b:ba:b2:9a:6d:f5:
         80:ef:7e:a8:97:0f:b3:ae:1b:46:fd:94:5e:35:20:5c:d9:35:
         b9:9c:d4:db:70:4f:1f:73:28:68:25:e6:a5:4a:e5:15:7c:85:
         54:eb:f7:f7:33:68:0d:54:27:7c:4f:6c:6f:f6:2a:53:17:48:
         c1:ca:8b:f5:5d:70:0d:5f:6d:64:99:e4:f7:df:55:a0:02:d3:
         49:80:54:57:6e:a9:98:3e:56:38:1d:e6:a0:c5:72:36:e6:0a:
         89:13:35:93:84:3e:1d:e3:3a:42:05:11:32:38:d9:3a:8e:8b:
         06:32:c4:f8:c3:fe:74:f4:bb:af:04:e8:b4:f3:0b:ee:83:97:
         2a:9a:7b:37:ec:de:d3:58:b3:78:0e:6b:a2:d1:4d:f4:e4:9e:
         b5:2a:07:06:24:1b:25:90:b5:54:53:e6:d2:37:be:99:f4:7b:
         18:71:94:45:58:ce:0f:8b:63:60:2c:19:76:0f:d9:d2:46:a7:
         34:17:6e:fc:55:84:19:fd:c3:a5:79:9e:a1:cd:8a:f6:83:65:
         ff:b2:f1:93:ed:7e:0f:e0:13:91:52:f3:6d:89:c3:4a:99:b0:
         6e:ef:a9:9a:8c:ed:7e:3c:75:49:99:16:cb:f1:80:18:f2:b7:
         40:d0:f3:11:a7:47:b9:c0:dd:a0:87:e6:83:65:d4:54:02:15:
         9a:27:46:a0:1e:0d:da:e1
-----BEGIN CERTIFICATE REQUEST-----
MIIE6DCCAtACAQAwNTELMAkGA1UEBhMCRlIxEjAQBgNVBAoMCU5vZGVPUENVQTES
MBAGA1UEAwwJTm9kZU9QQ1VBMIICIjANBgkqhkiG9w0BAQEFAAOCAg8AMIICCgKC
AgEArPRDfWkOpxbkmmP17R3t11JwKkPuKz+fNfpy27jP4SpjgWzPrWezdRnJY1lX
saC+BbgO9YusVrxzMIpU/RM5yMJRneCmKMjAYXq6vGYmwaJH90Xmn4Yu1ih12TGy
6kweH4pVAWHhLRDsOmW3SdZsKyYjQQWg3KYbpdQF4Dvrub6pA0UYA75Sg8j06iNL
909sua8/gLE2bE54mgxzYQQOamL1aD2jCHDVSuUvBc2LQepxETFb6mynboclwFmL
J8ym+yb+HtazRIlC56HQ+gq8wko6F7EbdGA/UEuPBk15ueihqkHl89CylXCPORQR
fZ1ShDJjYXsSdDbYToMyBtiNNGwj11oIJ56oSxIm7dvCXV7Kt+QMtizjx7GnmvUw
JZyaN1qOUouucktmCiYaZ2/fji/EJQjkKw0HLX6jpclYyGJMAQcxHEXkDRy+CY1p
PfVoJEo1ArPT2PN2tubMAdM3UsHWaVxv5oD6awglGT8rcygupPI427v2Q5U7he0j
1rUQGFYmfAKutM3UtVcbt2oJwBNe/gVy4pK73lzArGtMXVL6nfVelAQ0bhFYlkMp
e+fYpAs1aYPji6yB5uotgi1CUHiB6jbEPlXTQutmy9C+0HGFk/jC1Znq4/WQDZGH
b3R1//YxvXz0X1yPC/MVQNv2DUWD9AYENNq2P/btf4E7IaMCAwEAAaBuMGwGCSqG
SIb3DQEJDjFfMF0wCQYDVR0TBAIwADAOBgNVHQ8BAf8EBAMCAQYwQAYDVR0RBDkw
N4YhdXJuOmJjOTZkNzNmYjNiNjpOb2RlT1BDVUEtU2VydmVyggxiYzk2ZDczZmIz
YjaHBH8AAAEwDQYJKoZIhvcNAQELBQADggIBACZF/1QsbLEldDieikcwgwjFkpz8
S1S1yLasPyuAB/UgbnXaP5Lb3JaQgOJlMz3xVECPEYANYUrox+QbGPcnstn5NRRU
f0apSDWaUIFi2WAGIIer/Gew8Ra7WQELmuNWHXt0NqpjxvQQ/kGgu+1zyzq8dCBY
1Q7aFOl0ZVSg3y3np4p2rTE4mdjUxpnTkLstKUBs867S9zkxGomtgEj9/ihbtSVQ
wajkzLoaWG2ban1pxXDdF7R6S1YHwpmrkF1XoNUaLlajDbl7GFCUguP8utIiEp4G
+F2h+yu3NvRHu3CEFoLOcRS4Caa1X4WBhkvwyKZa3l1UiEu6sppt9YDvfqiXD7Ou
G0b9lF41IFzZNbmc1NtwTx9zKGgl5qVK5RV8hVTr9/czaA1UJ3xPbG/2KlMXSMHK
i/VdcA1fbWSZ5PffVaAC00mAVFduqZg+Vjgd5qDFcjbmCokTNZOEPh3jOkIFETI4
2TqOiwYyxPjD/nT0u68E6LTzC+6Dlyqaezfs3tNYs3gOa6LRTfTknrUqBwYkGyWQ
tVRT5tI3vpn0exhxlEVYzg+LY2AsGXYP2dJGpzQXbvxVhBn9w6V5nqHNivaDZf+y
8ZPtfg/gE5FS822Jw0qZsG7vqZqM7X48dUmZFsvxgBjyt0DQ8xGnR7nA3aCH5oNl
1FQCFZonRqAeDdrh
-----END CERTIFICATE REQUEST-----
