Certificate:
    Data:
        Version: 3 (0x2)
        Serial Number: 4132 (0x1024)
        Signature Algorithm: sha256WithRSAEncryption
        Issuer: O=NodeOPCUA, CN=NodeOPCUA
        Validity
            Not Before: Oct  9 00:24:20 2022 GMT
            Not After : Oct  9 00:24:20 2023 GMT
        Subject: O=NodeOPCUA, CN=NodeOPCUA
        Subject Public Key Info:
            Public Key Algorithm: rsaEncryption
                RSA Public-Key: (4096 bit)
                Modulus:
                    00:ac:f4:43:7d:69:0e:a7:16:e4:9a:63:f5:ed:1d:
                    ed:d7:52:70:2a:43:ee:2b:3f:9f:35:fa:72:db:b8:
                    cf:e1:2a:63:81:6c:cf:ad:67:b3:75:19:c9:63:59:
                    57:b1:a0:be:05:b8:0e:f5:8b:ac:56:bc:73:30:8a:
                    54:fd:13:39:c8:c2:51:9d:e0:a6:28:c8:c0:61:7a:
                    ba:bc:66:26:c1:a2:47:f7:45:e6:9f:86:2e:d6:28:
                    75:d9:31:b2:ea:4c:1e:1f:8a:55:01:61:e1:2d:10:
                    ec:3a:65:b7:49:d6:6c:2b:26:23:41:05:a0:dc:a6:
                    1b:a5:d4:05:e0:3b:eb:b9:be:a9:03:45:18:03:be:
                    52:83:c8:f4:ea:23:4b:f7:4f:6c:b9:af:3f:80:b1:
                    36:6c:4e:78:9a:0c:73:61:04:0e:6a:62:f5:68:3d:
                    a3:08:70:d5:4a:e5:2f:05:cd:8b:41:ea:71:11:31:
                    5b:ea:6c:a7:6e:87:25:c0:59:8b:27:cc:a6:fb:26:
                    fe:1e:d6:b3:44:89:42:e7:a1:d0:fa:0a:bc:c2:4a:
                    3a:17:b1:1b:74:60:3f:50:4b:8f:06:4d:79:b9:e8:
                    a1:aa:41:e5:f3:d0:b2:95:70:8f:39:14:11:7d:9d:
                    52:84:32:63:61:7b:12:74:36:d8:4e:83:32:06:d8:
                    8d:34:6c:23:d7:5a:08:27:9e:a8:4b:12:26:ed:db:
                    c2:5d:5e:ca:b7:e4:0c:b6:2c:e3:c7:b1:a7:9a:f5:
                    30:25:9c:9a:37:5a:8e:52:8b:ae:72:4b:66:0a:26:
                    1a:67:6f:df:8e:2f:c4:25:08:e4:2b:0d:07:2d:7e:
                    a3:a5:c9:58:c8:62:4c:01:07:31:1c:45:e4:0d:1c:
                    be:09:8d:69:3d:f5:68:24:4a:35:02:b3:d3:d8:f3:
                    76:b6:e6:cc:01:d3:37:52:c1:d6:69:5c:6f:e6:80:
                    fa:6b:08:25:19:3f:2b:73:28:2e:a4:f2:38:db:bb:
                    f6:43:95:3b:85:ed:23:d6:b5:10:18:56:26:7c:02:
                    ae:b4:cd:d4:b5:57:1b:b7:6a:09:c0:13:5e:fe:05:
                    72:e2:92:bb:de:5c:c0:ac:6b:4c:5d:52:fa:9d:f5:
                    5e:94:04:34:6e:11:58:96:43:29:7b:e7:d8:a4:0b:
                    35:69:83:e3:8b:ac:81:e6:ea:2d:82:2d:42:50:78:
                    81:ea:36:c4:3e:55:d3:42:eb:66:cb:d0:be:d0:71:
                    85:93:f8:c2:d5:99:ea:e3:f5:90:0d:91:87:6f:74:
                    75:ff:f6:31:bd:7c:f4:5f:5c:8f:0b:f3:15:40:db:
                    f6:0d:45:83:f4:06:04:34:da:b6:3f:f6:ed:7f:81:
                    3b:21:a3
                Exponent: 65537 (0x10001)
        X509v3 extensions:
            X509v3 Basic Constraints: critical
                CA:FALSE
            X509v3 Subject Key Identifier: 
                E0:7A:83:CE:F0:7E:C8:25:58:C1:05:65:59:DC:A0:34:05:98:72:68
            X509v3 Authority Key Identifier: 
                keyid:E0:7A:83:CE:F0:7E:C8:25:58:C1:05:65:59:DC:A0:34:05:98:72:68
                DirName:/O=NodeOPCUA/CN=NodeOPCUA
                serial:10:24

            X509v3 Subject Alternative Name: 
                URI:urn:bc96d73fb3b6:NodeOPCUA-Server, DNS:bc96d73fb3b6
            Netscape Comment: 
                OpenSSL Generated Certificate
            X509v3 Key Usage: critical
                Digital Signature, Non Repudiation, Key Encipherment, Data Encipherment, Key Agreement, Certificate Sign
            X509v3 Extended Key Usage: critical
                TLS Web Server Authentication, TLS Web Client Authentication
    Signature Algorithm: sha256WithRSAEncryption
         a7:01:39:fc:e0:68:66:50:c3:47:be:48:07:28:5a:c9:d2:4d:
         87:9b:b0:13:d0:07:9e:c9:ab:ef:db:62:12:c4:84:48:ba:37:
         49:83:84:d1:23:a2:6a:f3:94:99:a5:c3:c4:5c:9a:d7:f5:a0:
         4f:00:3e:c6:ce:5a:92:d8:d1:ab:66:bf:41:74:e8:f8:9f:4f:
         46:19:e0:b7:c0:45:50:61:7b:95:72:b8:33:7c:61:31:16:a3:
         fe:4c:7f:a4:53:01:e6:a6:d9:88:c1:5e:34:3c:ab:8e:14:be:
         76:ef:82:6c:32:05:e7:b4:03:5f:c7:a4:a1:c1:f4:08:75:dc:
         2a:0e:8c:65:75:e6:7a:e4:2f:12:8a:20:3e:f1:1c:74:c8:de:
         95:25:cb:50:72:9f:7d:5d:c5:d3:37:37:c5:43:fb:c2:88:c6:
         12:a2:8d:52:5c:99:78:2c:6d:f2:14:51:fe:9b:3d:5a:0a:39:
         76:dd:9e:ad:63:16:15:2c:d7:15:10:b9:08:d5:32:46:b2:66:
         80:47:d1:4e:b0:67:d8:ca:94:93:dc:58:27:a7:ac:29:50:ae:
         77:b1:d0:c3:72:84:02:43:66:c8:e8:8c:30:19:fa:01:f8:c8:
         bf:39:b3:6c:48:cf:a4:1c:43:bb:2e:5f:09:ed:26:8b:1f:28:
         b3:47:44:ee:ee:23:ce:f3:76:b5:6d:19:64:a4:3e:3c:8e:f7:
         83:c5:00:18:e1:c3:a7:eb:4b:ae:01:48:2b:cd:ca:1a:97:8b:
         ff:13:e2:42:81:69:4c:78:04:16:a2:ef:6f:03:a3:62:8d:f8:
         37:f1:24:eb:30:6b:47:7c:31:03:ef:e8:50:c9:c5:81:4a:fb:
         28:33:28:fa:f5:ec:ae:ed:98:4e:17:1a:8f:25:94:82:5f:1c:
         4a:e9:b6:bc:8a:d0:cd:97:ec:e1:cc:6d:94:ef:9e:9d:42:4d:
         43:af:62:ad:1b:20:7a:3e:53:06:ef:b9:f7:14:c7:db:92:fe:
         d1:9f:0a:ca:e1:1f:32:17:2d:8a:d2:5c:51:02:eb:b7:1f:6a:
         5d:29:db:89:55:7f:85:1c:c7:8c:0e:3f:9d:c7:fb:fd:d8:da:
         74:22:4a:d9:69:68:a5:7c:13:f9:0e:88:c9:90:95:9f:77:88:
         aa:59:f7:cb:b0:4a:bc:05:f0:db:c6:bd:2b:31:ea:80:a0:a6:
         ee:b7:38:6d:3e:0f:4f:06:13:26:42:f8:c0:d3:cb:2a:9f:24:
         dd:1c:90:cb:12:f5:e2:4c:9b:e7:4f:6e:37:ef:6c:c7:87:15:
         f4:a4:04:5a:38:e5:02:63:fc:80:4f:1b:a0:39:69:45:54:05:
         e4:e1:e3:19:92:f8:bc:94
-----BEGIN CERTIFICATE-----
MIIF7jCCA9agAwIBAgICECQwDQYJKoZIhvcNAQELBQAwKDESMBAGA1UEChMJTm9k
ZU9QQ1VBMRIwEAYDVQQDEwlOb2RlT1BDVUEwHhcNMjIxMDA5MDAyNDIwWhcNMjMx
MDA5MDAyNDIwWjAoMRIwEAYDVQQKEwlOb2RlT1BDVUExEjAQBgNVBAMTCU5vZGVP
UENVQTCCAiIwDQYJKoZIhvcNAQEBBQADggIPADCCAgoCggIBAKz0Q31pDqcW5Jpj
9e0d7ddScCpD7is/nzX6ctu4z+EqY4Fsz61ns3UZyWNZV7GgvgW4DvWLrFa8czCK
VP0TOcjCUZ3gpijIwGF6urxmJsGiR/dF5p+GLtYoddkxsupMHh+KVQFh4S0Q7Dpl
t0nWbCsmI0EFoNymG6XUBeA767m+qQNFGAO+UoPI9OojS/dPbLmvP4CxNmxOeJoM
c2EEDmpi9Wg9owhw1UrlLwXNi0HqcRExW+psp26HJcBZiyfMpvsm/h7Ws0SJQueh
0PoKvMJKOhexG3RgP1BLjwZNebnooapB5fPQspVwjzkUEX2dUoQyY2F7EnQ22E6D
MgbYjTRsI9daCCeeqEsSJu3bwl1eyrfkDLYs48exp5r1MCWcmjdajlKLrnJLZgom
Gmdv344vxCUI5CsNBy1+o6XJWMhiTAEHMRxF5A0cvgmNaT31aCRKNQKz09jzdrbm
zAHTN1LB1mlcb+aA+msIJRk/K3MoLqTyONu79kOVO4XtI9a1EBhWJnwCrrTN1LVX
G7dqCcATXv4FcuKSu95cwKxrTF1S+p31XpQENG4RWJZDKXvn2KQLNWmD44usgebq
LYItQlB4geo2xD5V00LrZsvQvtBxhZP4wtWZ6uP1kA2Rh290df/2Mb189F9cjwvz
FUDb9g1Fg/QGBDTatj/27X+BOyGjAgMBAAGjggEgMIIBHDAMBgNVHRMBAf8EAjAA
MB0GA1UdDgQWBBTgeoPO8H7IJVjBBWVZ3KA0BZhyaDBRBgNVHSMESjBIgBTgeoPO
8H7IJVjBBWVZ3KA0BZhyaKEspCowKDESMBAGA1UEChMJTm9kZU9QQ1VBMRIwEAYD
VQQDEwlOb2RlT1BDVUGCAhAkMDoGA1UdEQQzMDGGIXVybjpiYzk2ZDczZmIzYjY6
Tm9kZU9QQ1VBLVNlcnZlcoIMYmM5NmQ3M2ZiM2I2MCwGCWCGSAGG+EIBDQQfFh1P
cGVuU1NMIEdlbmVyYXRlZCBDZXJ0aWZpY2F0ZTAOBgNVHQ8BAf8EBAMCAvwwIAYD
VR0lAQH/BBYwFAYIKwYBBQUHAwEGCCsGAQUFBwMCMA0GCSqGSIb3DQEBCwUAA4IC
AQCnATn84GhmUMNHvkgHKFrJ0k2Hm7AT0Aeeyavv22ISxIRIujdJg4TRI6Jq85SZ
pcPEXJrX9aBPAD7GzlqS2NGrZr9BdOj4n09GGeC3wEVQYXuVcrgzfGExFqP+TH+k
UwHmptmIwV40PKuOFL5274JsMgXntANfx6ShwfQIddwqDoxldeZ65C8SiiA+8Rx0
yN6VJctQcp99XcXTNzfFQ/vCiMYSoo1SXJl4LG3yFFH+mz1aCjl23Z6tYxYVLNcV
ELkI1TJGsmaAR9FOsGfYypST3Fgnp6wpUK53sdDDcoQCQ2bI6IwwGfoB+Mi/ObNs
SM+kHEO7Ll8J7SaLHyizR0Tu7iPO83a1bRlkpD48jveDxQAY4cOn60uuAUgrzcoa
l4v/E+JCgWlMeAQWou9vA6Nijfg38STrMGtHfDED7+hQycWBSvsoMyj69eyu7ZhO
FxqPJZSCXxxK6ba8itDNl+zhzG2U756dQk1Dr2KtGyB6PlMG77n3FMfbkv7RnwrK
4R8yFy2K0lxRAuu3H2pdKduJVX+FHMeMDj+dx/v92Np0IkrZaWilfBP5DojJkJWf
d4iqWffLsEq8BfDbxr0rMeqAoKbutzhtPg9PBhMmQvjA08sqnyTdHJDLEvXiTJvn
T24372zHhxX0pARaOOUCY/yATxugOWlFVAXk4eMZkvi8lA==
-----END CERTIFICATE-----
