Certificate Request:
    Data:
        Version: 1 (0x0)
        Subject: C = FR, O = NodeOPCUA, CN = NodeOPCUA
        Subject Public Key Info:
            Public Key Algorithm: rsaEncryption
                RSA Public-Key: (2048 bit)
                Modulus:
                    00:d8:1e:47:ae:b2:80:ec:27:25:e0:98:ab:f5:27:
                    e7:2d:8c:13:d6:66:e7:f8:e6:f9:8a:63:a8:2b:cf:
                    16:74:49:ac:f6:e0:ea:dc:9c:4e:f0:9b:2a:a4:5d:
                    76:1a:42:f4:dc:4a:b8:f5:99:24:c2:96:fe:a7:ab:
                    1c:af:09:15:d9:38:f7:78:f6:4c:7e:66:94:c5:4f:
                    0b:86:a8:43:84:d7:d0:c5:4d:6a:3b:ad:d1:4e:39:
                    d6:58:64:6d:50:1a:f2:ec:9d:b5:a8:b7:51:f4:d6:
                    ac:ad:aa:20:c8:50:ec:d9:3f:5e:b1:69:65:ee:44:
                    52:56:b3:43:3f:67:18:ce:c6:a8:9d:93:4f:f8:44:
                    02:0b:7f:25:21:30:8e:3a:46:84:ae:34:08:a5:dd:
                    de:5a:d0:30:07:04:43:4d:74:dd:0c:d8:1a:7d:7d:
                    b9:85:65:ab:f6:db:a9:d1:a2:7d:17:56:4f:3a:44:
                    76:19:1e:46:d2:e6:72:0b:c0:1b:0a:e9:d6:43:74:
                    f1:a5:bd:e9:12:36:4b:b3:50:0c:10:c8:c0:9c:a2:
                    6d:2d:89:4d:ba:b1:6a:01:12:70:13:d6:22:bc:30:
                    70:e0:2a:03:0d:b7:e5:1d:b5:a9:df:3c:3c:4a:db:
                    72:cb:c9:06:42:4a:09:a5:1b:75:88:b5:2b:c3:fe:
                    aa:ad
                Exponent: 65537 (0x10001)
        Attributes:
        Requested Extensions:
            X509v3 Basic Constraints: 
                CA:FALSE
            X509v3 Key Usage: critical
                Certificate Sign, CRL Sign
            X509v3 Subject Alternative Name: 
                URI:urn:bc96d73fb3b6:NodeOPCUA-ServerRevoked, DNS:bc96d73fb3b6, IP Address:127.0.0.1
    Signature Algorithm: sha256WithRSAEncryption
         bf:ee:a6:68:7c:23:14:31:60:d2:02:00:cc:88:d7:93:1f:62:
         5d:21:11:c5:f7:e0:b8:63:eb:d5:d2:81:d8:17:d0:43:5f:72:
         f5:15:ba:56:88:16:5f:c6:bd:8d:a2:f2:18:bd:f7:65:b0:53:
         ab:67:30:ff:92:48:47:d4:e4:8a:bb:9f:7e:25:b1:0b:72:da:
         87:f3:dc:9b:d7:80:1e:13:86:87:03:e5:7f:21:64:fa:1a:d4:
         61:e9:24:40:b0:72:d9:8b:ee:b6:2e:e9:fc:26:e9:de:9a:04:
         82:e3:79:e3:fe:36:be:c5:67:2a:47:9c:16:f4:fb:71:01:9f:
         6c:09:b1:7d:d3:9a:1c:34:bc:91:f1:2d:2f:93:10:f0:d1:c7:
         71:4f:64:9b:f4:63:d1:6a:3d:32:2b:34:60:2d:4d:cd:9c:67:
         2b:ef:35:ee:fa:16:13:ce:7f:42:33:17:6a:d0:49:a3:18:39:
         a2:aa:96:2a:23:53:b6:52:78:ff:70:93:d0:c2:97:e8:e8:86:
         44:5c:b6:4e:1d:3f:97:d7:f7:43:7d:cc:78:32:c7:28:5e:82:
         a4:cc:1a:d0:a4:fa:3d:9d:20:5f:7c:4f:fd:cd:72:b5:54:93:
         cb:49:10:68:16:e8:3d:73:68:42:8a:9a:2d:32:c3:66:60:44:
         38:0c:1d:8a
-----BEGIN CERTIFICATE REQUEST-----
MIIC7zCCAdcCAQAwNTELMAkGA1UEBhMCRlIxEjAQBgNVBAoMCU5vZGVPUENVQTES
MBAGA1UEAwwJTm9kZU9QQ1VBMIIBIjANBgkqhkiG9w0BAQEFAAOCAQ8AMIIBCgKC
AQEA2B5HrrKA7Ccl4Jir9SfnLYwT1mbn+Ob5imOoK88WdEms9uDq3JxO8JsqpF12
GkL03Eq49Zkkwpb+p6scrwkV2Tj3ePZMfmaUxU8LhqhDhNfQxU1qO63RTjnWWGRt
UBry7J21qLdR9NasraogyFDs2T9esWll7kRSVrNDP2cYzsaonZNP+EQCC38lITCO
OkaErjQIpd3eWtAwBwRDTXTdDNgafX25hWWr9tup0aJ9F1ZPOkR2GR5G0uZyC8Ab
CunWQ3Txpb3pEjZLs1AMEMjAnKJtLYlNurFqARJwE9YivDBw4CoDDbflHbWp3zw8
Sttyy8kGQkoJpRt1iLUrw/6qrQIDAQABoHUwcwYJKoZIhvcNAQkOMWYwZDAJBgNV
HRMEAjAAMA4GA1UdDwEB/wQEAwIBBjBHBgNVHREEQDA+hih1cm46YmM5NmQ3M2Zi
M2I2Ok5vZGVPUENVQS1TZXJ2ZXJSZXZva2VkggxiYzk2ZDczZmIzYjaHBH8AAAEw
DQYJKoZIhvcNAQELBQADggEBAL/upmh8IxQxYNICAMyI15MfYl0hEcX34Lhj69XS
gdgX0ENfcvUVulaIFl/GvY2i8hi992WwU6tnMP+SSEfU5Iq7n34lsQty2ofz3JvX
gB4ThocD5X8hZPoa1GHpJECwctmL7rYu6fwm6d6aBILjeeP+Nr7FZypHnBb0+3EB
n2wJsX3Tmhw0vJHxLS+TEPDRx3FPZJv0Y9FqPTIrNGAtTc2cZyvvNe76FhPOf0Iz
F2rQSaMYOaKqliojU7ZSeP9wk9DCl+johkRctk4dP5fX90N9zHgyxyhegqTMGtCk
+j2dIF98T/3NcrVUk8tJEGgW6D1zaEKKmi0yw2ZgRDgMHYo=
-----END CERTIFICATE REQUEST-----
