Certificate:
    Data:
        Version: 3 (0x2)
        Serial Number: 4133 (0x1025)
        Signature Algorithm: sha256WithRSAEncryption
        Issuer: C=FR, ST=IDF, L=Paris, O=Local NODE-OPCUA Certificate Authority, CN=NodeOPCUA-CA
        Validity
            Not Before: Oct 10 00:24:20 2020 GMT
            Not After : Oct 10 00:24:20 2021 GMT
        Subject: C=FR, O=NodeOPCUA, CN=NodeOPCUA
        Subject Public Key Info:
            Public Key Algorithm: rsaEncryption
                RSA Public-Key: (4096 bit)
                Modulus:
                    00:ac:f4:43:7d:69:0e:a7:16:e4:9a:63:f5:ed:1d:
                    ed:d7:52:70:2a:43:ee:2b:3f:9f:35:fa:72:db:b8:
                    cf:e1:2a:63:81:6c:cf:ad:67:b3:75:19:c9:63:59:
                    57:b1:a0:be:05:b8:0e:f5:8b:ac:56:bc:73:30:8a:
                    54:fd:13:39:c8:c2:51:9d:e0:a6:28:c8:c0:61:7a:
                    ba:bc:66:26:c1:a2:47:f7:45:e6:9f:86:2e:d6:28:
                    75:d9:31:b2:ea:4c:1e:1f:8a:55:01:61:e1:2d:10:
                    ec:3a:65:b7:49:d6:6c:2b:26:23:41:05:a0:dc:a6:
                    1b:a5:d4:05:e0:3b:eb:b9:be:a9:03:45:18:03:be:
                    52:83:c8:f4:ea:23:4b:f7:4f:6c:b9:af:3f:80:b1:
                    36:6c:4e:78:9a:0c:73:61:04:0e:6a:62:f5:68:3d:
                    a3:08:70:d5:4a:e5:2f:05:cd:8b:41:ea:71:11:31:
                    5b:ea:6c:a7:6e:87:25:c0:59:8b:27:cc:a6:fb:26:
                    fe:1e:d6:b3:44:89:42:e7:a1:d0:fa:0a:bc:c2:4a:
                    3a:17:b1:1b:74:60:3f:50:4b:8f:06:4d:79:b9:e8:
                    a1:aa:41:e5:f3:d0:b2:95:70:8f:39:14:11:7d:9d:
                    52:84:32:63:61:7b:12:74:36:d8:4e:83:32:06:d8:
                    8d:34:6c:23:d7:5a:08:27:9e:a8:4b:12:26:ed:db:
                    c2:5d:5e:ca:b7:e4:0c:b6:2c:e3:c7:b1:a7:9a:f5:
                    30:25:9c:9a:37:5a:8e:52:8b:ae:72:4b:66:0a:26:
                    1a:67:6f:df:8e:2f:c4:25:08:e4:2b:0d:07:2d:7e:
                    a3:a5:c9:58:c8:62:4c:01:07:31:1c:45:e4:0d:1c:
                    be:09:8d:69:3d:f5:68:24:4a:35:02:b3:d3:d8:f3:
                    76:b6:e6:cc:01:d3:37:52:c1:d6:69:5c:6f:e6:80:
                    fa:6b:08:25:19:3f:2b:73:28:2e:a4:f2:38:db:bb:
                    f6:43:95:3b:85:ed:23:d6:b5:10:18:56:26:7c:02:
                    ae:b4:cd:d4:b5:57:1b:b7:6a:09:c0:13:5e:fe:05:
                    72:e2:92:bb:de:5c:c0:ac:6b:4c:5d:52:fa:9d:f5:
                    5e:94:04:34:6e:11:58:96:43:29:7b:e7:d8:a4:0b:
                    35:69:83:e3:8b:ac:81:e6:ea:2d:82:2d:42:50:78:
                    81:ea:36:c4:3e:55:d3:42:eb:66:cb:d0:be:d0:71:
                    85:93:f8:c2:d5:99:ea:e3:f5:90:0d:91:87:6f:74:
                    75:ff:f6:31:bd:7c:f4:5f:5c:8f:0b:f3:15:40:db:
                    f6:0d:45:83:f4:06:04:34:da:b6:3f:f6:ed:7f:81:
                    3b:21:a3
                Exponent: 65537 (0x10001)
        X509v3 extensions:
            X509v3 Basic Constraints: critical
                CA:FALSE
            X509v3 Subject Key Identifier: 
                E0:7A:83:CE:F0:7E:C8:25:58:C1:05:65:59:DC:A0:34:05:98:72:68
            X509v3 Authority Key Identifier: 
                keyid:A7:15:61:9A:B5:81:C7:F7:D0:76:65:0D:DA:7F:EC:DE:F2:4F:C8:EB
                DirName:/C=FR/ST=IDF/L=Paris/O=Local NODE-OPCUA Certificate Authority/CN=NodeOPCUA-CA
                serial:25:A1:CC:A0:A1:DA:94:52:52:1D:E7:E0:B7:E7:30:D9:7D:F8:10:DD

            X509v3 Subject Alternative Name: 
                URI:urn:bc96d73fb3b6:NodeOPCUA-Server, DNS:bc96d73fb3b6, IP Address:127.0.0.1
            Netscape Comment: 
                OpenSSL Generated Certificate
            X509v3 Key Usage: critical
                Digital Signature, Non Repudiation, Key Encipherment, Data Encipherment, Key Agreement, Certificate Sign
            X509v3 Extended Key Usage: critical
                TLS Web Server Authentication, TLS Web Client Authentication
    Signature Algorithm: sha256WithRSAEncryption
         37:51:30:5a:2c:0b:18:62:2f:71:b9:ed:d6:48:d1:f3:47:c7:
         34:dd:7e:94:86:ec:90:20:96:99:85:9a:86:cb:a1:fc:9b:1a:
         f1:8a:88:68:f0:7f:f0:81:88:35:da:99:f3:54:ce:27:29:ba:
         0c:e2:92:b5:42:97:70:bf:f1:38:ce:7d:00:00:31:ef:72:0f:
         87:97:8a:aa:30:e8:13:48:cd:fe:74:f9:87:82:71:82:fc:af:
         52:06:ef:d3:1a:d5:97:2c:b8:04:83:4d:9b:18:5c:ab:94:1b:
         d8:df:0a:a3:ba:55:74:3c:92:f7:45:79:95:23:f7:de:01:60:
         5b:8c:73:a4:97:92:0f:1a:ce:95:ab:fa:0b:7f:40:27:8f:7d:
         81:8a:79:65:c8:f0:6b:7c:f5:a3:35:3b:0a:7a:55:5f:68:74:
         a5:d4:f6:34:14:ee:85:f4:21:e5:d1:f6:93:d3:c6:19:00:b2:
         42:be:b2:ba:bc:c8:69:4e:af:43:d6:e1:eb:2a:0c:f0:26:7e:
         f1:ca:b2:65:f2:c4:73:4a:68:a4:be:aa:70:de:be:db:c4:21:
         5c:c6:a2:fa:e0:bb:4c:c4:c3:5b:02:01:79:a9:bd:94:ac:5d:
         02:88:a9:25:a6:ee:8e:01:85:50:e8:6c:07:44:ff:c5:3a:e2:
         7d:c2:41:ec
-----BEGIN CERTIFICATE-----
MIIFrDCCBJSgAwIBAgICECUwDQYJKoZIhvcNAQELBQAwczELMAkGA1UEBhMCRlIx
DDAKBgNVBAgTA0lERjEOMAwGA1UEBxMFUGFyaXMxLzAtBgNVBAoTJkxvY2FsIE5P
REUtT1BDVUEgQ2VydGlmaWNhdGUgQXV0aG9yaXR5MRUwEwYDVQQDEwxOb2RlT1BD
VUEtQ0EwHhcNMjAxMDEwMDAyNDIwWhcNMjExMDEwMDAyNDIwWjA1MQswCQYDVQQG
EwJGUjESMBAGA1UECgwJTm9kZU9QQ1VBMRIwEAYDVQQDDAlOb2RlT1BDVUEwggIi
MA0GCSqGSIb3DQEBAQUAA4ICDwAwggIKAoICAQCs9EN9aQ6nFuSaY/XtHe3XUnAq
Q+4rP581+nLbuM/hKmOBbM+tZ7N1GcljWVexoL4FuA71i6xWvHMwilT9EznIwlGd
4KYoyMBherq8ZibBokf3Reafhi7WKHXZMbLqTB4filUBYeEtEOw6ZbdJ1mwrJiNB
BaDcphul1AXgO+u5vqkDRRgDvlKDyPTqI0v3T2y5rz+AsTZsTniaDHNhBA5qYvVo
PaMIcNVK5S8FzYtB6nERMVvqbKduhyXAWYsnzKb7Jv4e1rNEiULnodD6CrzCSjoX
sRt0YD9QS48GTXm56KGqQeXz0LKVcI85FBF9nVKEMmNhexJ0NthOgzIG2I00bCPX
WggnnqhLEibt28JdXsq35Ay2LOPHsaea9TAlnJo3Wo5Si65yS2YKJhpnb9+OL8Ql
COQrDQctfqOlyVjIYkwBBzEcReQNHL4JjWk99WgkSjUCs9PY83a25swB0zdSwdZp
XG/mgPprCCUZPytzKC6k8jjbu/ZDlTuF7SPWtRAYViZ8Aq60zdS1Vxu3agnAE17+
BXLikrveXMCsa0xdUvqd9V6UBDRuEViWQyl759ikCzVpg+OLrIHm6i2CLUJQeIHq
NsQ+VdNC62bL0L7QcYWT+MLVmerj9ZANkYdvdHX/9jG9fPRfXI8L8xVA2/YNRYP0
BgQ02rY/9u1/gTshowIDAQABo4IBhjCCAYIwDAYDVR0TAQH/BAIwADAdBgNVHQ4E
FgQU4HqDzvB+yCVYwQVlWdygNAWYcmgwgbAGA1UdIwSBqDCBpYAUpxVhmrWBx/fQ
dmUN2n/s3vJPyOuhd6R1MHMxCzAJBgNVBAYTAkZSMQwwCgYDVQQIEwNJREYxDjAM
BgNVBAcTBVBhcmlzMS8wLQYDVQQKEyZMb2NhbCBOT0RFLU9QQ1VBIENlcnRpZmlj
YXRlIEF1dGhvcml0eTEVMBMGA1UEAxMMTm9kZU9QQ1VBLUNBghQlocygodqUUlId
5+C35zDZffgQ3TBABgNVHREEOTA3hiF1cm46YmM5NmQ3M2ZiM2I2Ok5vZGVPUENV
QS1TZXJ2ZXKCDGJjOTZkNzNmYjNiNocEfwAAATAsBglghkgBhvhCAQ0EHxYdT3Bl
blNTTCBHZW5lcmF0ZWQgQ2VydGlmaWNhdGUwDgYDVR0PAQH/BAQDAgL8MCAGA1Ud
JQEB/wQWMBQGCCsGAQUFBwMBBggrBgEFBQcDAjANBgkqhkiG9w0BAQsFAAOCAQEA
N1EwWiwLGGIvcbnt1kjR80fHNN1+lIbskCCWmYWahsuh/Jsa8YqIaPB/8IGINdqZ
81TOJym6DOKStUKXcL/xOM59AAAx73IPh5eKqjDoE0jN/nT5h4JxgvyvUgbv0xrV
lyy4BINNmxhcq5Qb2N8Ko7pVdDyS90V5lSP33gFgW4xzpJeSDxrOlav6C39AJ499
gYp5Zcjwa3z1ozU7CnpVX2h0pdT2NBTuhfQh5dH2k9PGGQCyQr6yurzIaU6vQ9bh
6yoM8CZ+8cqyZfLEc0popL6qcN6+28QhXMai+uC7TMTDWwIBeam9lKxdAoipJabu
jgGFUOhsB0T/xTrifcJB7A==
-----END CERTIFICATE-----
Certificate:
    Data:
        Version: 1 (0x0)
        Serial Number:
            25:a1:cc:a0:a1:da:94:52:52:1d:e7:e0:b7:e7:30:d9:7d:f8:10:dd
        Signature Algorithm: NULL
        Issuer: C = FR, ST = IDF, L = Paris, O = Local NODE-OPCUA Certificate Authority, CN = NodeOPCUA-CA
        Validity
            Not Before: Oct 10 00:24:20 2022 GMT
            Not After : Oct  7 00:24:20 2032 GMT
        Subject: C = FR, ST = IDF, L = Paris, O = Local NODE-OPCUA Certificate Authority, CN = NodeOPCUA-CA
        Subject Public Key Info:
            Public Key Algorithm: rsaEncryption
                RSA Public-Key: (2048 bit)
                Modulus:
                    00:b1:93:34:5c:80:c9:a5:84:47:93:3b:85:00:4c:
                    54:2a:8c:d3:fb:1c:4d:4d:6a:47:0f:5f:ea:97:60:
                    96:b3:85:89:1c:b3:22:44:ee:52:54:c2:f5:a3:9b:
                    7c:34:56:f7:06:5c:da:6d:55:a8:ca:5f:88:79:d8:
                    a5:4c:fe:37:ab:04:cf:54:69:6c:da:1f:75:a9:8c:
                    e2:5e:35:b9:cc:10:e3:26:5b:c1:c4:08:d2:b0:0e:
                    11:b4:0a:6e:ac:a8:36:de:b2:d2:c9:1e:a2:7f:d6:
                    79:83:0d:de:33:d1:dd:54:d7:3d:c9:da:ed:0c:c4:
                    64:57:1d:27:46:74:0a:d9:17:8d:19:03:e6:21:0b:
                    27:21:20:83:fc:12:85:32:92:27:53:0a:47:d9:57:
                    b8:e9:ea:9f:5f:58:1a:8b:de:3e:1e:e2:1e:f0:06:
                    d4:5c:6d:96:ca:96:f8:18:6d:4b:38:4d:d0:99:a8:
                    0a:5d:d0:41:1d:09:62:24:f0:7c:ef:e1:dd:39:f3:
                    20:f7:57:ea:05:aa:2a:92:c6:f4:3d:7e:ba:7c:67:
                    8a:e6:56:c0:e3:9f:5b:3e:75:b9:5e:5e:92:58:f5:
                    af:99:5f:54:e9:9c:ff:07:2b:89:79:92:e1:9e:d6:
                    5e:05:7a:ce:a5:2b:36:07:f3:9c:cc:ca:c6:fa:15:
                    17:59
                Exponent: 65537 (0x10001)
    Signature Algorithm: NULL
-----BEGIN CERTIFICATE-----
MIIE8zCCA9ugAwIBAgIUJaHMoKHalFJSHefgt+cw2X34EN0wDQYJKoZIhvcNAQEL
BQAwczELMAkGA1UEBhMCRlIxDDAKBgNVBAgTA0lERjEOMAwGA1UEBxMFUGFyaXMx
LzAtBgNVBAoTJkxvY2FsIE5PREUtT1BDVUEgQ2VydGlmaWNhdGUgQXV0aG9yaXR5
MRUwEwYDVQQDEwxOb2RlT1BDVUEtQ0EwHhcNMjIxMDEwMDAyNDIwWhcNMzIxMDA3
MDAyNDIwWjBzMQswCQYDVQQGEwJGUjEMMAoGA1UECBMDSURGMQ4wDAYDVQQHEwVQ
YXJpczEvMC0GA1UEChMmTG9jYWwgTk9ERS1PUENVQSBDZXJ0aWZpY2F0ZSBBdXRo
b3JpdHkxFTATBgNVBAMTDE5vZGVPUENVQS1DQTCCASIwDQYJKoZIhvcNAQEBBQAD
ggEPADCCAQoCggEBALGTNFyAyaWER5M7hQBMVCqM0/scTU1qRw9f6pdglrOFiRyz
IkTuUlTC9aObfDRW9wZc2m1VqMpfiHnYpUz+N6sEz1RpbNofdamM4l41ucwQ4yZb
wcQI0rAOEbQKbqyoNt6y0skeon/WeYMN3jPR3VTXPcna7QzEZFcdJ0Z0CtkXjRkD
5iELJyEgg/wShTKSJ1MKR9lXuOnqn19YGovePh7iHvAG1FxtlsqW+BhtSzhN0Jmo
Cl3QQR0JYiTwfO/h3TnzIPdX6gWqKpLG9D1+unxniuZWwOOfWz51uV5eklj1r5lf
VOmc/wcriXmS4Z7WXgV6zqUrNgfznMzKxvoVF1kCAwEAAaOCAX0wggF5MB0GA1Ud
DgQWBBSnFWGatYHH99B2ZQ3af+ze8k/I6zCBsAYDVR0jBIGoMIGlgBSnFWGatYHH
99B2ZQ3af+ze8k/I66F3pHUwczELMAkGA1UEBhMCRlIxDDAKBgNVBAgTA0lERjEO
MAwGA1UEBxMFUGFyaXMxLzAtBgNVBAoTJkxvY2FsIE5PREUtT1BDVUEgQ2VydGlm
aWNhdGUgQXV0aG9yaXR5MRUwEwYDVQQDEwxOb2RlT1BDVUEtQ0GCFCWhzKCh2pRS
Uh3n4LfnMNl9+BDdMAwGA1UdEwQFMAMBAf8wDgYDVR0PAQH/BAQDAgEGMFcGCWCG
SAGG+EIBDQRKFkhDQSBDZXJ0aWZpY2F0ZSBnZW5lcmF0ZWQgYnkgTm9kZS1PUENV
QSBDZXJ0aWZpY2F0ZSB1dGlsaXR5IHVzaW5nIG9wZW5zc2wwLgYDVR0fBCcwJTAj
oCGgH4YdaHR0cDovL2xvY2FsaG9zdDo4OTAwL2NybC5wZW0wDQYJKoZIhvcNAQEL
BQADggEBABkX6R3TgC0r+xYWU2euItmht2l1Ux0JYBmLmMsNUyr+aFCqEcQ/CPU5
J9s9OetGIeiBF6RwJwv8t6eaV8LLpGEFKZYSOIwqQ0psuA4+/spo+edLaRraLsX4
3S6XNzViXfLHIoEGQm2c243P0jVdmASPkg5NwfvtzCaMlcUFcwMAyhJqh5NjHtLz
WoJLtQrBonm9totUDdcvL2m5/3uFaDsrDc8YB4GRECUwbhjvNv60wyi1qa9EGFeh
T6V15FqQPWNs2oWbqaBMFdkidXRjF4MYU/XCIW9nTfaCV6aT1U2Ox/vjQjdC1xsq
XV46vayJH4kVdNzfDgedlp5614mu1Mc=
-----END CERTIFICATE-----
