Certificate:
    Data:
        Version: 3 (0x2)
        Serial Number: 4126 (0x101e)
        Signature Algorithm: sha256WithRSAEncryption
        Issuer: C=FR, ST=IDF, L=Paris, O=Local NODE-OPCUA Certificate Authority, CN=NodeOPCUA-CA
        Validity
            Not Before: Oct  9 00:24:20 2022 GMT
            Not After : Oct  9 00:24:20 2023 GMT
        Subject: C=FR, O=NodeOPCUA, CN=NodeOPCUA
        Subject Public Key Info:
            Public Key Algorithm: rsaEncryption
                RSA Public-Key: (3072 bit)
                Modulus:
                    00:d1:04:f7:c8:3a:0d:85:d0:41:c7:5b:1e:ee:3b:
                    af:36:54:db:2e:31:a9:c4:d7:06:4c:98:50:c1:2c:
                    40:26:03:f1:4d:9e:47:0c:3b:3a:a6:3b:bb:71:a2:
                    59:89:0e:a1:79:00:15:42:7e:0a:1d:09:a1:e6:01:
                    49:a3:0e:bf:c3:b9:ef:73:b0:b8:76:a2:55:8b:c5:
                    f0:6d:db:a4:09:f3:da:33:48:0e:ca:4c:f9:e3:77:
                    e4:be:9c:f5:09:ca:05:18:91:15:a8:86:08:09:8b:
                    73:40:18:24:88:55:10:38:f9:13:33:eb:01:d8:59:
                    68:db:1f:54:00:6b:26:37:83:d0:85:39:f2:a5:c6:
                    ff:00:84:56:60:6b:86:5c:b0:65:3c:ac:97:7d:61:
                    72:b8:2f:8c:4e:ad:56:a9:21:45:59:1a:06:5a:ed:
                    90:3e:c0:ce:21:e5:7c:e5:3d:2e:2e:45:e9:b7:84:
                    3b:fb:ba:c4:88:53:8a:6a:f9:87:4d:9a:9a:3d:46:
                    54:b8:53:d1:4e:c9:5b:1d:0f:a0:b4:38:29:14:00:
                    ad:17:68:47:df:fb:70:17:41:f0:85:3b:02:22:01:
                    f1:15:6f:72:39:75:c2:97:16:9f:df:84:6f:0d:28:
                    49:7c:4a:6b:36:39:c3:13:c4:fd:16:ce:7a:96:8f:
                    2a:ca:a2:31:a2:0e:9d:bd:f4:4a:af:10:e3:66:fe:
                    3d:89:4d:50:03:32:97:fb:e4:49:98:35:0e:e1:e9:
                    c7:45:fd:3a:2d:10:fa:76:6b:c8:21:a9:ff:a0:ac:
                    b2:0b:a1:cf:4b:53:84:15:e3:98:11:0a:e4:1f:6e:
                    73:64:af:d2:a4:b8:f3:86:de:44:33:6c:1f:7d:49:
                    dc:e5:f0:b2:34:a3:5f:04:65:42:c9:74:e7:3f:92:
                    6f:19:8e:11:58:d8:2f:cc:4f:d2:a9:fa:bd:61:01:
                    74:3e:fd:87:bc:d2:6f:01:5b:3c:b9:87:31:61:88:
                    f5:40:bf:0f:25:39:8b:6f:f7:8d
                Exponent: 65537 (0x10001)
        X509v3 extensions:
            X509v3 Basic Constraints: critical
                CA:FALSE
            X509v3 Subject Key Identifier: 
                C9:FF:89:EA:EE:8C:85:81:4B:01:CA:0A:96:27:85:29:DB:5E:17:69
            X509v3 Authority Key Identifier: 
                keyid:A7:15:61:9A:B5:81:C7:F7:D0:76:65:0D:DA:7F:EC:DE:F2:4F:C8:EB
                DirName:/C=FR/ST=IDF/L=Paris/O=Local NODE-OPCUA Certificate Authority/CN=NodeOPCUA-CA
                serial:25:A1:CC:A0:A1:DA:94:52:52:1D:E7:E0:B7:E7:30:D9:7D:F8:10:DD

            X509v3 Subject Alternative Name: 
                URI:urn:bc96d73fb3b6:NodeOPCUA-Server, DNS:bc96d73fb3b6, IP Address:127.0.0.1
            Netscape Comment: 
                OpenSSL Generated Certificate
            X509v3 Key Usage: critical
                Digital Signature, Non Repudiation, Key Encipherment, Data Encipherment, Key Agreement, Certificate Sign
            X509v3 Extended Key Usage: critical
                TLS Web Server Authentication, TLS Web Client Authentication
    Signature Algorithm: sha256WithRSAEncryption
         af:fd:bf:c8:ec:80:31:52:4d:f4:08:68:67:b8:65:e9:b2:77:
         7b:c6:b6:fc:81:46:cb:f5:e7:d8:a5:e0:29:35:1a:c4:0c:a9:
         f6:69:6f:7b:8d:c8:41:ef:02:a2:79:c7:f8:c4:50:24:89:a3:
         87:5d:0a:62:46:d6:db:41:d3:81:ba:a8:3c:bd:12:03:48:a6:
         b5:b9:ae:f3:ec:6d:7b:ed:72:a2:5e:70:f6:03:56:30:df:a9:
         ab:fa:eb:5d:9b:e6:8c:8e:d4:9d:3b:3c:0a:a8:c2:bc:53:06:
         91:67:0c:91:a9:45:2c:15:be:7d:f1:b1:fd:1d:16:5c:2a:f8:
         8f:2c:7d:fe:70:f3:7e:e2:24:75:d1:eb:47:da:4f:34:79:56:
         c4:e2:33:65:7b:45:ad:72:dd:8a:2c:ff:e5:e9:51:72:57:be:
         5b:88:b9:38:c3:41:6e:21:ca:63:9c:c0:b6:b8:6a:05:70:14:
         75:c1:a5:ee:a3:ab:fd:38:7a:cc:06:b7:26:8c:9e:58:88:4e:
         38:9f:d6:e0:48:e9:c1:af:86:e4:c5:77:ed:77:b0:01:71:77:
         5e:9d:5f:4c:3a:0d:71:e5:6b:aa:53:ec:6f:f1:fd:04:83:a9:
         c9:5f:ef:ff:09:29:12:30:69:3c:98:a8:61:55:33:02:98:10:
         05:4c:99:5f
-----BEGIN CERTIFICATE-----
MIIFLDCCBBSgAwIBAgICEB4wDQYJKoZIhvcNAQELBQAwczELMAkGA1UEBhMCRlIx
DDAKBgNVBAgTA0lERjEOMAwGA1UEBxMFUGFyaXMxLzAtBgNVBAoTJkxvY2FsIE5P
REUtT1BDVUEgQ2VydGlmaWNhdGUgQXV0aG9yaXR5MRUwEwYDVQQDEwxOb2RlT1BD
VUEtQ0EwHhcNMjIxMDA5MDAyNDIwWhcNMjMxMDA5MDAyNDIwWjA1MQswCQYDVQQG
EwJGUjESMBAGA1UECgwJTm9kZU9QQ1VBMRIwEAYDVQQDDAlOb2RlT1BDVUEwggGi
MA0GCSqGSIb3DQEBAQUAA4IBjwAwggGKAoIBgQDRBPfIOg2F0EHHWx7uO682VNsu
ManE1wZMmFDBLEAmA/FNnkcMOzqmO7txolmJDqF5ABVCfgodCaHmAUmjDr/Due9z
sLh2olWLxfBt26QJ89ozSA7KTPnjd+S+nPUJygUYkRWohggJi3NAGCSIVRA4+RMz
6wHYWWjbH1QAayY3g9CFOfKlxv8AhFZga4ZcsGU8rJd9YXK4L4xOrVapIUVZGgZa
7ZA+wM4h5XzlPS4uRem3hDv7usSIU4pq+YdNmpo9RlS4U9FOyVsdD6C0OCkUAK0X
aEff+3AXQfCFOwIiAfEVb3I5dcKXFp/fhG8NKEl8Sms2OcMTxP0WznqWjyrKojGi
Dp299EqvEONm/j2JTVADMpf75EmYNQ7h6cdF/TotEPp2a8ghqf+grLILoc9LU4QV
45gRCuQfbnNkr9KkuPOG3kQzbB99Sdzl8LI0o18EZULJdOc/km8ZjhFY2C/MT9Kp
+r1hAXQ+/Ye80m8BWzy5hzFhiPVAvw8lOYtv940CAwEAAaOCAYYwggGCMAwGA1Ud
EwEB/wQCMAAwHQYDVR0OBBYEFMn/ierujIWBSwHKCpYnhSnbXhdpMIGwBgNVHSME
gagwgaWAFKcVYZq1gcf30HZlDdp/7N7yT8jroXekdTBzMQswCQYDVQQGEwJGUjEM
MAoGA1UECBMDSURGMQ4wDAYDVQQHEwVQYXJpczEvMC0GA1UEChMmTG9jYWwgTk9E
RS1PUENVQSBDZXJ0aWZpY2F0ZSBBdXRob3JpdHkxFTATBgNVBAMTDE5vZGVPUENV
QS1DQYIUJaHMoKHalFJSHefgt+cw2X34EN0wQAYDVR0RBDkwN4YhdXJuOmJjOTZk
NzNmYjNiNjpOb2RlT1BDVUEtU2VydmVyggxiYzk2ZDczZmIzYjaHBH8AAAEwLAYJ
YIZIAYb4QgENBB8WHU9wZW5TU0wgR2VuZXJhdGVkIENlcnRpZmljYXRlMA4GA1Ud
DwEB/wQEAwIC/DAgBgNVHSUBAf8EFjAUBggrBgEFBQcDAQYIKwYBBQUHAwIwDQYJ
KoZIhvcNAQELBQADggEBAK/9v8jsgDFSTfQIaGe4Zemyd3vGtvyBRsv159il4Ck1
GsQMqfZpb3uNyEHvAqJ5x/jEUCSJo4ddCmJG1ttB04G6qDy9EgNIprW5rvPsbXvt
cqJecPYDVjDfqav6612b5oyO1J07PAqowrxTBpFnDJGpRSwVvn3xsf0dFlwq+I8s
ff5w837iJHXR60faTzR5VsTiM2V7Ra1y3Yos/+XpUXJXvluIuTjDQW4hymOcwLa4
agVwFHXBpe6jq/04eswGtyaMnliITjif1uBI6cGvhuTFd+13sAFxd16dX0w6DXHl
a6pT7G/x/QSDqclf7/8JKRIwaTyYqGFVMwKYEAVMmV8=
-----END CERTIFICATE-----
Certificate:
    Data:
        Version: 1 (0x0)
        Serial Number:
            25:a1:cc:a0:a1:da:94:52:52:1d:e7:e0:b7:e7:30:d9:7d:f8:10:dd
        Signature Algorithm: NULL
        Issuer: C = FR, ST = IDF, L = Paris, O = Local NODE-OPCUA Certificate Authority, CN = NodeOPCUA-CA
        Validity
            Not Before: Oct 10 00:24:20 2022 GMT
            Not After : Oct  7 00:24:20 2032 GMT
        Subject: C = FR, ST = IDF, L = Paris, O = Local NODE-OPCUA Certificate Authority, CN = NodeOPCUA-CA
        Subject Public Key Info:
            Public Key Algorithm: rsaEncryption
                RSA Public-Key: (2048 bit)
                Modulus:
                    00:b1:93:34:5c:80:c9:a5:84:47:93:3b:85:00:4c:
                    54:2a:8c:d3:fb:1c:4d:4d:6a:47:0f:5f:ea:97:60:
                    96:b3:85:89:1c:b3:22:44:ee:52:54:c2:f5:a3:9b:
                    7c:34:56:f7:06:5c:da:6d:55:a8:ca:5f:88:79:d8:
                    a5:4c:fe:37:ab:04:cf:54:69:6c:da:1f:75:a9:8c:
                    e2:5e:35:b9:cc:10:e3:26:5b:c1:c4:08:d2:b0:0e:
                    11:b4:0a:6e:ac:a8:36:de:b2:d2:c9:1e:a2:7f:d6:
                    79:83:0d:de:33:d1:dd:54:d7:3d:c9:da:ed:0c:c4:
                    64:57:1d:27:46:74:0a:d9:17:8d:19:03:e6:21:0b:
                    27:21:20:83:fc:12:85:32:92:27:53:0a:47:d9:57:
                    b8:e9:ea:9f:5f:58:1a:8b:de:3e:1e:e2:1e:f0:06:
                    d4:5c:6d:96:ca:96:f8:18:6d:4b:38:4d:d0:99:a8:
                    0a:5d:d0:41:1d:09:62:24:f0:7c:ef:e1:dd:39:f3:
                    20:f7:57:ea:05:aa:2a:92:c6:f4:3d:7e:ba:7c:67:
                    8a:e6:56:c0:e3:9f:5b:3e:75:b9:5e:5e:92:58:f5:
                    af:99:5f:54:e9:9c:ff:07:2b:89:79:92:e1:9e:d6:
                    5e:05:7a:ce:a5:2b:36:07:f3:9c:cc:ca:c6:fa:15:
                    17:59
                Exponent: 65537 (0x10001)
    Signature Algorithm: NULL
-----BEGIN CERTIFICATE-----
MIIE8zCCA9ugAwIBAgIUJaHMoKHalFJSHefgt+cw2X34EN0wDQYJKoZIhvcNAQEL
BQAwczELMAkGA1UEBhMCRlIxDDAKBgNVBAgTA0lERjEOMAwGA1UEBxMFUGFyaXMx
LzAtBgNVBAoTJkxvY2FsIE5PREUtT1BDVUEgQ2VydGlmaWNhdGUgQXV0aG9yaXR5
MRUwEwYDVQQDEwxOb2RlT1BDVUEtQ0EwHhcNMjIxMDEwMDAyNDIwWhcNMzIxMDA3
MDAyNDIwWjBzMQswCQYDVQQGEwJGUjEMMAoGA1UECBMDSURGMQ4wDAYDVQQHEwVQ
YXJpczEvMC0GA1UEChMmTG9jYWwgTk9ERS1PUENVQSBDZXJ0aWZpY2F0ZSBBdXRo
b3JpdHkxFTATBgNVBAMTDE5vZGVPUENVQS1DQTCCASIwDQYJKoZIhvcNAQEBBQAD
ggEPADCCAQoCggEBALGTNFyAyaWER5M7hQBMVCqM0/scTU1qRw9f6pdglrOFiRyz
IkTuUlTC9aObfDRW9wZc2m1VqMpfiHnYpUz+N6sEz1RpbNofdamM4l41ucwQ4yZb
wcQI0rAOEbQKbqyoNt6y0skeon/WeYMN3jPR3VTXPcna7QzEZFcdJ0Z0CtkXjRkD
5iELJyEgg/wShTKSJ1MKR9lXuOnqn19YGovePh7iHvAG1FxtlsqW+BhtSzhN0Jmo
Cl3QQR0JYiTwfO/h3TnzIPdX6gWqKpLG9D1+unxniuZWwOOfWz51uV5eklj1r5lf
VOmc/wcriXmS4Z7WXgV6zqUrNgfznMzKxvoVF1kCAwEAAaOCAX0wggF5MB0GA1Ud
DgQWBBSnFWGatYHH99B2ZQ3af+ze8k/I6zCBsAYDVR0jBIGoMIGlgBSnFWGatYHH
99B2ZQ3af+ze8k/I66F3pHUwczELMAkGA1UEBhMCRlIxDDAKBgNVBAgTA0lERjEO
MAwGA1UEBxMFUGFyaXMxLzAtBgNVBAoTJkxvY2FsIE5PREUtT1BDVUEgQ2VydGlm
aWNhdGUgQXV0aG9yaXR5MRUwEwYDVQQDEwxOb2RlT1BDVUEtQ0GCFCWhzKCh2pRS
Uh3n4LfnMNl9+BDdMAwGA1UdEwQFMAMBAf8wDgYDVR0PAQH/BAQDAgEGMFcGCWCG
SAGG+EIBDQRKFkhDQSBDZXJ0aWZpY2F0ZSBnZW5lcmF0ZWQgYnkgTm9kZS1PUENV
QSBDZXJ0aWZpY2F0ZSB1dGlsaXR5IHVzaW5nIG9wZW5zc2wwLgYDVR0fBCcwJTAj
oCGgH4YdaHR0cDovL2xvY2FsaG9zdDo4OTAwL2NybC5wZW0wDQYJKoZIhvcNAQEL
BQADggEBABkX6R3TgC0r+xYWU2euItmht2l1Ux0JYBmLmMsNUyr+aFCqEcQ/CPU5
J9s9OetGIeiBF6RwJwv8t6eaV8LLpGEFKZYSOIwqQ0psuA4+/spo+edLaRraLsX4
3S6XNzViXfLHIoEGQm2c243P0jVdmASPkg5NwfvtzCaMlcUFcwMAyhJqh5NjHtLz
WoJLtQrBonm9totUDdcvL2m5/3uFaDsrDc8YB4GRECUwbhjvNv60wyi1qa9EGFeh
T6V15FqQPWNs2oWbqaBMFdkidXRjF4MYU/XCIW9nTfaCV6aT1U2Ox/vjQjdC1xsq
XV46vayJH4kVdNzfDgedlp5614mu1Mc=
-----END CERTIFICATE-----
