Certificate:
    Data:
        Version: 3 (0x2)
        Serial Number: 4096 (0x1000)
        Signature Algorithm: sha256WithRSAEncryption
        Issuer: C=FR, ST=IDF, L=Paris, O=Local NODE-OPCUA Certificate Authority, CN=NodeOPCUA-CA
        Validity
            Not Before: Oct  9 00:24:20 2022 GMT
            Not After : Oct  9 00:24:20 2023 GMT
        Subject: C=FR, O=NodeOPCUA, CN=NodeOPCUA
        Subject Public Key Info:
            Public Key Algorithm: rsaEncryption
                RSA Public-Key: (1024 bit)
                Modulus:
                    00:d0:b0:46:91:d1:e0:98:68:6b:1f:11:92:d9:12:
                    fe:cc:ec:76:59:98:49:b5:36:99:3c:72:46:d9:08:
                    47:e3:c0:43:cd:05:a9:49:39:79:21:a3:86:d6:bc:
                    81:d9:3c:f1:82:0b:56:90:b3:04:ad:ee:fa:23:83:
                    b6:e5:ff:56:7a:0e:fe:21:26:d7:9a:d3:6f:00:b4:
                    67:7d:f2:55:18:32:f8:88:84:dd:c5:c1:5f:81:e2:
                    1e:59:e2:45:dd:7e:b7:2d:98:ec:83:33:4f:28:3c:
                    a1:b4:74:e4:c1:b0:8e:74:b1:7f:73:9c:b8:75:76:
                    7e:52:18:38:5b:e5:f8:28:2b
                Exponent: 65537 (0x10001)
        X509v3 extensions:
            X509v3 Basic Constraints: critical
                CA:FALSE
            X509v3 Subject Key Identifier: 
                FA:31:9E:99:0D:DD:E2:64:47:DC:8D:1B:5B:DB:54:E3:11:4F:38:45
            X509v3 Authority Key Identifier: 
                keyid:A7:15:61:9A:B5:81:C7:F7:D0:76:65:0D:DA:7F:EC:DE:F2:4F:C8:EB
                DirName:/C=FR/ST=IDF/L=Paris/O=Local NODE-OPCUA Certificate Authority/CN=NodeOPCUA-CA
                serial:25:A1:CC:A0:A1:DA:94:52:52:1D:E7:E0:B7:E7:30:D9:7D:F8:10:DD

            X509v3 Subject Alternative Name: 
                URI:urn:bc96d73fb3b6:NodeOPCUA-Client, DNS:bc96d73fb3b6, IP Address:127.0.0.1
            Netscape Comment: 
                OpenSSL Generated Certificate
            X509v3 Key Usage: critical
                Digital Signature, Non Repudiation, Key Encipherment, Data Encipherment, Key Agreement, Certificate Sign
            X509v3 Extended Key Usage: critical
                TLS Web Server Authentication, TLS Web Client Authentication
    Signature Algorithm: sha256WithRSAEncryption
         13:ea:18:4b:5d:53:a6:c2:2f:4d:5b:8e:74:77:9f:15:07:2e:
         c8:cb:1e:cf:c7:36:29:c5:48:35:e5:ed:d0:06:c3:d3:85:94:
         4c:12:a0:48:6b:05:62:72:96:c1:3e:59:22:47:94:16:ef:b8:
         ba:6b:c9:8a:b1:46:10:f0:01:a4:c8:e2:b7:f2:e7:b1:de:2e:
         60:f6:81:1e:54:ca:74:6a:de:a7:7f:05:db:fd:02:cd:c2:06:
         a2:71:09:66:f8:0e:e8:f0:22:b0:b6:75:bc:28:0c:a3:fa:2b:
         9d:71:85:20:42:07:34:68:5a:8c:e8:30:25:f8:47:f2:34:99:
         31:08:14:5e:60:ee:f2:5d:3d:59:02:36:be:68:d7:7b:71:99:
         14:bb:47:2e:45:9f:81:63:de:15:96:ed:2c:10:6d:20:13:7c:
         15:f8:9b:d7:b5:e5:9a:ee:07:30:c1:d6:eb:18:17:0f:52:4b:
         bd:f1:00:4f:52:77:60:92:db:6d:e7:44:1b:3e:09:51:25:83:
         66:21:80:96:d2:e6:d1:8b:6a:14:0b:50:5b:41:bf:29:b9:4d:
         7f:e3:ee:4c:6b:d7:4c:91:b8:fd:8a:eb:59:cd:70:24:71:26:
         cc:f8:84:23:38:1f:9f:6f:3d:80:8b:fc:c5:0f:aa:fd:ea:01:
         86:92:70:5f
-----BEGIN CERTIFICATE-----
MIIEKDCCAxCgAwIBAgICEAAwDQYJKoZIhvcNAQELBQAwczELMAkGA1UEBhMCRlIx
DDAKBgNVBAgTA0lERjEOMAwGA1UEBxMFUGFyaXMxLzAtBgNVBAoTJkxvY2FsIE5P
REUtT1BDVUEgQ2VydGlmaWNhdGUgQXV0aG9yaXR5MRUwEwYDVQQDEwxOb2RlT1BD
VUEtQ0EwHhcNMjIxMDA5MDAyNDIwWhcNMjMxMDA5MDAyNDIwWjA1MQswCQYDVQQG
EwJGUjESMBAGA1UECgwJTm9kZU9QQ1VBMRIwEAYDVQQDDAlOb2RlT1BDVUEwgZ8w
DQYJKoZIhvcNAQEBBQADgY0AMIGJAoGBANCwRpHR4Jhoax8RktkS/szsdlmYSbU2
mTxyRtkIR+PAQ80FqUk5eSGjhta8gdk88YILVpCzBK3u+iODtuX/VnoO/iEm15rT
bwC0Z33yVRgy+IiE3cXBX4HiHlniRd1+ty2Y7IMzTyg8obR05MGwjnSxf3OcuHV2
flIYOFvl+CgrAgMBAAGjggGGMIIBgjAMBgNVHRMBAf8EAjAAMB0GA1UdDgQWBBT6
MZ6ZDd3iZEfcjRtb21TjEU84RTCBsAYDVR0jBIGoMIGlgBSnFWGatYHH99B2ZQ3a
f+ze8k/I66F3pHUwczELMAkGA1UEBhMCRlIxDDAKBgNVBAgTA0lERjEOMAwGA1UE
BxMFUGFyaXMxLzAtBgNVBAoTJkxvY2FsIE5PREUtT1BDVUEgQ2VydGlmaWNhdGUg
QXV0aG9yaXR5MRUwEwYDVQQDEwxOb2RlT1BDVUEtQ0GCFCWhzKCh2pRSUh3n4Lfn
MNl9+BDdMEAGA1UdEQQ5MDeGIXVybjpiYzk2ZDczZmIzYjY6Tm9kZU9QQ1VBLUNs
aWVudIIMYmM5NmQ3M2ZiM2I2hwR/AAABMCwGCWCGSAGG+EIBDQQfFh1PcGVuU1NM
IEdlbmVyYXRlZCBDZXJ0aWZpY2F0ZTAOBgNVHQ8BAf8EBAMCAvwwIAYDVR0lAQH/
BBYwFAYIKwYBBQUHAwEGCCsGAQUFBwMCMA0GCSqGSIb3DQEBCwUAA4IBAQAT6hhL
XVOmwi9NW450d58VBy7Iyx7PxzYpxUg15e3QBsPThZRMEqBIawVicpbBPlkiR5QW
77i6a8mKsUYQ8AGkyOK38uex3i5g9oEeVMp0at6nfwXb/QLNwgaicQlm+A7o8CKw
tnW8KAyj+iudcYUgQgc0aFqM6DAl+EfyNJkxCBReYO7yXT1ZAja+aNd7cZkUu0cu
RZ+BY94Vlu0sEG0gE3wV+JvXteWa7gcwwdbrGBcPUku98QBPUndgkttt50QbPglR
JYNmIYCW0ubRi2oUC1BbQb8puU1/4+5Ma9dMkbj9iutZzXAkcSbM+IQjOB+fbz2A
i/zFD6r96gGGknBf
-----END CERTIFICATE-----
