Certificate:
    Data:
        Version: 3 (0x2)
        Serial Number: 4097 (0x1001)
        Signature Algorithm: sha256WithRSAEncryption
        Issuer: O=NodeOPCUA, CN=NodeOPCUA
        Validity
            Not Before: Oct  9 00:24:20 2022 GMT
            Not After : Oct  9 00:24:20 2023 GMT
        Subject: O=NodeOPCUA, CN=NodeOPCUA
        Subject Public Key Info:
            Public Key Algorithm: rsaEncryption
                RSA Public-Key: (1024 bit)
                Modulus:
                    00:d0:b0:46:91:d1:e0:98:68:6b:1f:11:92:d9:12:
                    fe:cc:ec:76:59:98:49:b5:36:99:3c:72:46:d9:08:
                    47:e3:c0:43:cd:05:a9:49:39:79:21:a3:86:d6:bc:
                    81:d9:3c:f1:82:0b:56:90:b3:04:ad:ee:fa:23:83:
                    b6:e5:ff:56:7a:0e:fe:21:26:d7:9a:d3:6f:00:b4:
                    67:7d:f2:55:18:32:f8:88:84:dd:c5:c1:5f:81:e2:
                    1e:59:e2:45:dd:7e:b7:2d:98:ec:83:33:4f:28:3c:
                    a1:b4:74:e4:c1:b0:8e:74:b1:7f:73:9c:b8:75:76:
                    7e:52:18:38:5b:e5:f8:28:2b
                Exponent: 65537 (0x10001)
        X509v3 extensions:
            X509v3 Basic Constraints: critical
                CA:FALSE
            X509v3 Subject Key Identifier: 
                FA:31:9E:99:0D:DD:E2:64:47:DC:8D:1B:5B:DB:54:E3:11:4F:38:45
            X509v3 Authority Key Identifier: 
                keyid:FA:31:9E:99:0D:DD:E2:64:47:DC:8D:1B:5B:DB:54:E3:11:4F:38:45
                DirName:/O=NodeOPCUA/CN=NodeOPCUA
                serial:10:01

            X509v3 Subject Alternative Name: 
                URI:urn:bc96d73fb3b6:NodeOPCUA-Client, DNS:bc96d73fb3b6
            Netscape Comment: 
                OpenSSL Generated Certificate
            X509v3 Key Usage: critical
                Digital Signature, Non Repudiation, Key Encipherment, Data Encipherment, Key Agreement, Certificate Sign
            X509v3 Extended Key Usage: critical
                TLS Web Server Authentication, TLS Web Client Authentication
    Signature Algorithm: sha256WithRSAEncryption
         99:b1:9b:24:08:03:48:71:c3:01:48:25:46:f9:88:3c:a1:f1:
         ae:f4:2b:ef:c3:b1:ae:77:61:a2:60:fa:4a:38:50:80:f1:78:
         4d:68:73:7b:da:c0:09:c9:29:58:73:43:a2:06:47:a8:07:db:
         05:db:47:24:5b:50:f4:7c:e5:6c:02:b3:16:4b:3b:fa:c4:ec:
         0f:e2:a9:ba:69:ec:5a:3b:97:93:cd:5a:7c:a6:f2:47:08:b0:
         53:59:61:05:c5:0d:6b:26:86:fd:95:c9:5b:9a:5c:0a:8b:d5:
         3b:a5:42:55:a4:68:90:34:85:a0:5e:6c:3c:79:a1:f5:36:be:
         45:d4
-----BEGIN CERTIFICATE-----
MIIC6TCCAlKgAwIBAgICEAEwDQYJKoZIhvcNAQELBQAwKDESMBAGA1UEChMJTm9k
ZU9QQ1VBMRIwEAYDVQQDEwlOb2RlT1BDVUEwHhcNMjIxMDA5MDAyNDIwWhcNMjMx
MDA5MDAyNDIwWjAoMRIwEAYDVQQKEwlOb2RlT1BDVUExEjAQBgNVBAMTCU5vZGVP
UENVQTCBnzANBgkqhkiG9w0BAQEFAAOBjQAwgYkCgYEA0LBGkdHgmGhrHxGS2RL+
zOx2WZhJtTaZPHJG2QhH48BDzQWpSTl5IaOG1ryB2TzxggtWkLMEre76I4O25f9W
eg7+ISbXmtNvALRnffJVGDL4iITdxcFfgeIeWeJF3X63LZjsgzNPKDyhtHTkwbCO
dLF/c5y4dXZ+Uhg4W+X4KCsCAwEAAaOCASAwggEcMAwGA1UdEwEB/wQCMAAwHQYD
VR0OBBYEFPoxnpkN3eJkR9yNG1vbVOMRTzhFMFEGA1UdIwRKMEiAFPoxnpkN3eJk
R9yNG1vbVOMRTzhFoSykKjAoMRIwEAYDVQQKEwlOb2RlT1BDVUExEjAQBgNVBAMT
CU5vZGVPUENVQYICEAEwOgYDVR0RBDMwMYYhdXJuOmJjOTZkNzNmYjNiNjpOb2Rl
T1BDVUEtQ2xpZW50ggxiYzk2ZDczZmIzYjYwLAYJYIZIAYb4QgENBB8WHU9wZW5T
U0wgR2VuZXJhdGVkIENlcnRpZmljYXRlMA4GA1UdDwEB/wQEAwIC/DAgBgNVHSUB
Af8EFjAUBggrBgEFBQcDAQYIKwYBBQUHAwIwDQYJKoZIhvcNAQELBQADgYEAmbGb
JAgDSHHDAUglRvmIPKHxrvQr78OxrndhomD6SjhQgPF4TWhze9rACckpWHNDogZH
qAfbBdtHJFtQ9HzlbAKzFks7+sTsD+KpumnsWjuXk81afKbyRwiwU1lhBcUNayaG
/ZXJW5pcCovVO6VCVaRokDSFoF5sPHmh9Ta+RdQ=
-----END CERTIFICATE-----
