Certificate:
    Data:
        Version: 3 (0x2)
        Serial Number: 4098 (0x1002)
        Signature Algorithm: sha256WithRSAEncryption
        Issuer: C=FR, ST=IDF, L=Paris, O=Local NODE-OPCUA Certificate Authority, CN=NodeOPCUA-CA
        Validity
            Not Before: Oct 10 00:24:20 2020 GMT
            Not After : Oct 10 00:24:20 2021 GMT
        Subject: C=FR, O=NodeOPCUA, CN=NodeOPCUA
        Subject Public Key Info:
            Public Key Algorithm: rsaEncryption
                RSA Public-Key: (1024 bit)
                Modulus:
                    00:d0:b0:46:91:d1:e0:98:68:6b:1f:11:92:d9:12:
                    fe:cc:ec:76:59:98:49:b5:36:99:3c:72:46:d9:08:
                    47:e3:c0:43:cd:05:a9:49:39:79:21:a3:86:d6:bc:
                    81:d9:3c:f1:82:0b:56:90:b3:04:ad:ee:fa:23:83:
                    b6:e5:ff:56:7a:0e:fe:21:26:d7:9a:d3:6f:00:b4:
                    67:7d:f2:55:18:32:f8:88:84:dd:c5:c1:5f:81:e2:
                    1e:59:e2:45:dd:7e:b7:2d:98:ec:83:33:4f:28:3c:
                    a1:b4:74:e4:c1:b0:8e:74:b1:7f:73:9c:b8:75:76:
                    7e:52:18:38:5b:e5:f8:28:2b
                Exponent: 65537 (0x10001)
        X509v3 extensions:
            X509v3 Basic Constraints: critical
                CA:FALSE
            X509v3 Subject Key Identifier: 
                FA:31:9E:99:0D:DD:E2:64:47:DC:8D:1B:5B:DB:54:E3:11:4F:38:45
            X509v3 Authority Key Identifier: 
                keyid:A7:15:61:9A:B5:81:C7:F7:D0:76:65:0D:DA:7F:EC:DE:F2:4F:C8:EB
                DirName:/C=FR/ST=IDF/L=Paris/O=Local NODE-OPCUA Certificate Authority/CN=NodeOPCUA-CA
                serial:25:A1:CC:A0:A1:DA:94:52:52:1D:E7:E0:B7:E7:30:D9:7D:F8:10:DD

            X509v3 Subject Alternative Name: 
                URI:urn:bc96d73fb3b6:NodeOPCUA-Client, DNS:bc96d73fb3b6, IP Address:127.0.0.1
            Netscape Comment: 
                OpenSSL Generated Certificate
            X509v3 Key Usage: critical
                Digital Signature, Non Repudiation, Key Encipherment, Data Encipherment, Key Agreement, Certificate Sign
            X509v3 Extended Key Usage: critical
                TLS Web Server Authentication, TLS Web Client Authentication
    Signature Algorithm: sha256WithRSAEncryption
         0d:4d:c6:d0:ae:b2:cd:43:40:16:46:e1:0d:a7:d1:dd:d6:e5:
         be:89:da:e9:0c:42:86:29:d0:ab:6b:1a:b6:c9:72:f0:22:48:
         a7:0d:96:42:e3:85:55:b5:98:5f:d4:a4:89:a0:60:a9:5b:d6:
         9b:bc:99:c3:45:96:66:1f:15:d9:49:a8:16:2c:39:78:91:a2:
         c5:97:28:49:ec:58:12:fb:29:d5:3b:39:bc:d0:10:9e:99:a5:
         72:ad:af:42:ab:3c:3a:d7:36:88:3a:2b:65:fd:bb:7d:bf:96:
         17:09:87:05:c1:ba:ee:cd:d2:23:e2:f1:f8:f5:b1:f2:94:e1:
         b5:59:a3:b7:5c:4e:fc:b0:07:09:fc:7a:f1:7d:57:8e:cb:2b:
         36:3a:98:24:28:70:95:25:74:20:da:c7:85:28:d9:87:8c:f4:
         17:92:f5:9d:3f:2d:09:de:38:98:f4:c8:fe:36:28:6e:e5:4b:
         bc:7e:a4:99:81:a2:50:27:ae:de:15:76:04:e5:dc:de:35:a5:
         68:88:0f:52:57:68:c0:d4:6b:e1:ff:00:bf:55:56:d8:d8:e7:
         d3:3c:19:36:f7:81:f4:2c:63:11:da:54:19:c7:91:b3:5a:2a:
         a9:cc:4e:4a:af:67:29:71:ae:8f:dc:f5:78:19:75:65:04:0e:
         a6:78:45:c4
-----BEGIN CERTIFICATE-----
MIIEKDCCAxCgAwIBAgICEAIwDQYJKoZIhvcNAQELBQAwczELMAkGA1UEBhMCRlIx
DDAKBgNVBAgTA0lERjEOMAwGA1UEBxMFUGFyaXMxLzAtBgNVBAoTJkxvY2FsIE5P
REUtT1BDVUEgQ2VydGlmaWNhdGUgQXV0aG9yaXR5MRUwEwYDVQQDEwxOb2RlT1BD
VUEtQ0EwHhcNMjAxMDEwMDAyNDIwWhcNMjExMDEwMDAyNDIwWjA1MQswCQYDVQQG
EwJGUjESMBAGA1UECgwJTm9kZU9QQ1VBMRIwEAYDVQQDDAlOb2RlT1BDVUEwgZ8w
DQYJKoZIhvcNAQEBBQADgY0AMIGJAoGBANCwRpHR4Jhoax8RktkS/szsdlmYSbU2
mTxyRtkIR+PAQ80FqUk5eSGjhta8gdk88YILVpCzBK3u+iODtuX/VnoO/iEm15rT
bwC0Z33yVRgy+IiE3cXBX4HiHlniRd1+ty2Y7IMzTyg8obR05MGwjnSxf3OcuHV2
flIYOFvl+CgrAgMBAAGjggGGMIIBgjAMBgNVHRMBAf8EAjAAMB0GA1UdDgQWBBT6
MZ6ZDd3iZEfcjRtb21TjEU84RTCBsAYDVR0jBIGoMIGlgBSnFWGatYHH99B2ZQ3a
f+ze8k/I66F3pHUwczELMAkGA1UEBhMCRlIxDDAKBgNVBAgTA0lERjEOMAwGA1UE
BxMFUGFyaXMxLzAtBgNVBAoTJkxvY2FsIE5PREUtT1BDVUEgQ2VydGlmaWNhdGUg
QXV0aG9yaXR5MRUwEwYDVQQDEwxOb2RlT1BDVUEtQ0GCFCWhzKCh2pRSUh3n4Lfn
MNl9+BDdMEAGA1UdEQQ5MDeGIXVybjpiYzk2ZDczZmIzYjY6Tm9kZU9QQ1VBLUNs
aWVudIIMYmM5NmQ3M2ZiM2I2hwR/AAABMCwGCWCGSAGG+EIBDQQfFh1PcGVuU1NM
IEdlbmVyYXRlZCBDZXJ0aWZpY2F0ZTAOBgNVHQ8BAf8EBAMCAvwwIAYDVR0lAQH/
BBYwFAYIKwYBBQUHAwEGCCsGAQUFBwMCMA0GCSqGSIb3DQEBCwUAA4IBAQANTcbQ
rrLNQ0AWRuENp9Hd1uW+idrpDEKGKdCraxq2yXLwIkinDZZC44VVtZhf1KSJoGCp
W9abvJnDRZZmHxXZSagWLDl4kaLFlyhJ7FgS+ynVOzm80BCemaVyra9Cqzw61zaI
Oitl/bt9v5YXCYcFwbruzdIj4vH49bHylOG1WaO3XE78sAcJ/HrxfVeOyys2Opgk
KHCVJXQg2seFKNmHjPQXkvWdPy0J3jiY9Mj+Nihu5Uu8fqSZgaJQJ67eFXYE5dze
NaVoiA9SV2jA1Gvh/wC/VVbY2OfTPBk294H0LGMR2lQZx5GzWiqpzE5Kr2cpca6P
3PV4GXVlBA6meEXE
-----END CERTIFICATE-----
