Certificate:
    Data:
        Version: 3 (0x2)
        Serial Number: 4099 (0x1003)
        Signature Algorithm: sha256WithRSAEncryption
        Issuer: C=FR, ST=IDF, L=Paris, O=Local NODE-OPCUA Certificate Authority, CN=NodeOPCUA-CA
        Validity
            Not Before: Oct 10 00:24:20 2023 GMT
            Not After : Oct  9 00:24:20 2024 GMT
        Subject: C=FR, O=NodeOPCUA, CN=NodeOPCUA
        Subject Public Key Info:
            Public Key Algorithm: rsaEncryption
                RSA Public-Key: (1024 bit)
                Modulus:
                    00:d0:b0:46:91:d1:e0:98:68:6b:1f:11:92:d9:12:
                    fe:cc:ec:76:59:98:49:b5:36:99:3c:72:46:d9:08:
                    47:e3:c0:43:cd:05:a9:49:39:79:21:a3:86:d6:bc:
                    81:d9:3c:f1:82:0b:56:90:b3:04:ad:ee:fa:23:83:
                    b6:e5:ff:56:7a:0e:fe:21:26:d7:9a:d3:6f:00:b4:
                    67:7d:f2:55:18:32:f8:88:84:dd:c5:c1:5f:81:e2:
                    1e:59:e2:45:dd:7e:b7:2d:98:ec:83:33:4f:28:3c:
                    a1:b4:74:e4:c1:b0:8e:74:b1:7f:73:9c:b8:75:76:
                    7e:52:18:38:5b:e5:f8:28:2b
                Exponent: 65537 (0x10001)
        X509v3 extensions:
            X509v3 Basic Constraints: critical
                CA:FALSE
            X509v3 Subject Key Identifier: 
                FA:31:9E:99:0D:DD:E2:64:47:DC:8D:1B:5B:DB:54:E3:11:4F:38:45
            X509v3 Authority Key Identifier: 
                keyid:A7:15:61:9A:B5:81:C7:F7:D0:76:65:0D:DA:7F:EC:DE:F2:4F:C8:EB
                DirName:/C=FR/ST=IDF/L=Paris/O=Local NODE-OPCUA Certificate Authority/CN=NodeOPCUA-CA
                serial:25:A1:CC:A0:A1:DA:94:52:52:1D:E7:E0:B7:E7:30:D9:7D:F8:10:DD

            X509v3 Subject Alternative Name: 
                URI:urn:bc96d73fb3b6:NodeOPCUA-Client, DNS:bc96d73fb3b6, IP Address:127.0.0.1
            Netscape Comment: 
                OpenSSL Generated Certificate
            X509v3 Key Usage: critical
                Digital Signature, Non Repudiation, Key Encipherment, Data Encipherment, Key Agreement, Certificate Sign
            X509v3 Extended Key Usage: critical
                TLS Web Server Authentication, TLS Web Client Authentication
    Signature Algorithm: sha256WithRSAEncryption
         6f:07:f6:9d:c6:1f:dc:31:af:6b:c3:3b:37:d9:92:1f:df:46:
         14:32:ae:1c:b2:65:99:85:d6:2d:38:41:a8:df:5e:81:c6:4d:
         69:82:33:24:f8:4b:72:56:c1:52:76:98:e3:e8:4a:1e:d4:1b:
         15:a2:55:f0:ea:d6:2e:c8:df:af:0e:51:95:78:e0:ef:40:f9:
         ef:9f:1b:53:e2:77:80:04:a5:a1:23:15:1a:2e:65:62:74:af:
         af:1c:f8:2d:08:48:67:78:f9:c1:c3:7c:63:ef:d1:ef:ee:4b:
         e8:1a:73:57:27:72:ba:1c:54:25:3c:dc:08:e5:52:4a:14:a1:
         3e:4a:07:49:d8:84:4a:b4:83:b9:8f:04:fe:1b:d3:dc:aa:5b:
         09:54:b2:ba:0f:cf:cb:7f:ac:7c:7f:08:15:b9:aa:6c:50:8b:
         df:1d:3e:65:1e:b1:1b:47:ed:1a:0f:fd:5c:f0:f9:f3:31:95:
         e1:c1:6a:82:13:52:e0:76:ed:03:30:88:1f:c0:bf:58:26:d3:
         5c:6a:52:f4:5f:1c:05:8c:65:51:98:e7:23:3a:7b:c4:46:0e:
         40:ab:9b:ef:f0:b0:26:8a:9f:24:24:25:ea:f0:85:5c:2f:3b:
         84:71:ec:ed:6c:c4:e1:a8:12:1a:d9:50:7e:45:58:86:7b:a0:
         c7:9b:8a:41
-----BEGIN CERTIFICATE-----
MIIEKDCCAxCgAwIBAgICEAMwDQYJKoZIhvcNAQELBQAwczELMAkGA1UEBhMCRlIx
DDAKBgNVBAgTA0lERjEOMAwGA1UEBxMFUGFyaXMxLzAtBgNVBAoTJkxvY2FsIE5P
REUtT1BDVUEgQ2VydGlmaWNhdGUgQXV0aG9yaXR5MRUwEwYDVQQDEwxOb2RlT1BD
VUEtQ0EwHhcNMjMxMDEwMDAyNDIwWhcNMjQxMDA5MDAyNDIwWjA1MQswCQYDVQQG
EwJGUjESMBAGA1UECgwJTm9kZU9QQ1VBMRIwEAYDVQQDDAlOb2RlT1BDVUEwgZ8w
DQYJKoZIhvcNAQEBBQADgY0AMIGJAoGBANCwRpHR4Jhoax8RktkS/szsdlmYSbU2
mTxyRtkIR+PAQ80FqUk5eSGjhta8gdk88YILVpCzBK3u+iODtuX/VnoO/iEm15rT
bwC0Z33yVRgy+IiE3cXBX4HiHlniRd1+ty2Y7IMzTyg8obR05MGwjnSxf3OcuHV2
flIYOFvl+CgrAgMBAAGjggGGMIIBgjAMBgNVHRMBAf8EAjAAMB0GA1UdDgQWBBT6
MZ6ZDd3iZEfcjRtb21TjEU84RTCBsAYDVR0jBIGoMIGlgBSnFWGatYHH99B2ZQ3a
f+ze8k/I66F3pHUwczELMAkGA1UEBhMCRlIxDDAKBgNVBAgTA0lERjEOMAwGA1UE
BxMFUGFyaXMxLzAtBgNVBAoTJkxvY2FsIE5PREUtT1BDVUEgQ2VydGlmaWNhdGUg
QXV0aG9yaXR5MRUwEwYDVQQDEwxOb2RlT1BDVUEtQ0GCFCWhzKCh2pRSUh3n4Lfn
MNl9+BDdMEAGA1UdEQQ5MDeGIXVybjpiYzk2ZDczZmIzYjY6Tm9kZU9QQ1VBLUNs
aWVudIIMYmM5NmQ3M2ZiM2I2hwR/AAABMCwGCWCGSAGG+EIBDQQfFh1PcGVuU1NM
IEdlbmVyYXRlZCBDZXJ0aWZpY2F0ZTAOBgNVHQ8BAf8EBAMCAvwwIAYDVR0lAQH/
BBYwFAYIKwYBBQUHAwEGCCsGAQUFBwMCMA0GCSqGSIb3DQEBCwUAA4IBAQBvB/ad
xh/cMa9rwzs32ZIf30YUMq4csmWZhdYtOEGo316Bxk1pgjMk+EtyVsFSdpjj6Eoe
1BsVolXw6tYuyN+vDlGVeODvQPnvnxtT4neABKWhIxUaLmVidK+vHPgtCEhnePnB
w3xj79Hv7kvoGnNXJ3K6HFQlPNwI5VJKFKE+SgdJ2IRKtIO5jwT+G9PcqlsJVLK6
D8/Lf6x8fwgVuapsUIvfHT5lHrEbR+0aD/1c8PnzMZXhwWqCE1Lgdu0DMIgfwL9Y
JtNcalL0XxwFjGVRmOcjOnvERg5Aq5vv8LAmip8kJCXq8IVcLzuEceztbMThqBIa
2VB+RViGe6DHm4pB
-----END CERTIFICATE-----
