Certificate:
    Data:
        Version: 3 (0x2)
        Serial Number: 4100 (0x1004)
        Signature Algorithm: sha256WithRSAEncryption
        Issuer: C=FR, ST=IDF, L=Paris, O=Local NODE-OPCUA Certificate Authority, CN=NodeOPCUA-CA
        Validity
            Not Before: Oct  9 00:24:20 2022 GMT
            Not After : Oct  9 00:24:20 2023 GMT
        Subject: C=FR, O=NodeOPCUA, CN=NodeOPCUA
        Subject Public Key Info:
            Public Key Algorithm: rsaEncryption
                RSA Public-Key: (1024 bit)
                Modulus:
                    00:d0:b0:46:91:d1:e0:98:68:6b:1f:11:92:d9:12:
                    fe:cc:ec:76:59:98:49:b5:36:99:3c:72:46:d9:08:
                    47:e3:c0:43:cd:05:a9:49:39:79:21:a3:86:d6:bc:
                    81:d9:3c:f1:82:0b:56:90:b3:04:ad:ee:fa:23:83:
                    b6:e5:ff:56:7a:0e:fe:21:26:d7:9a:d3:6f:00:b4:
                    67:7d:f2:55:18:32:f8:88:84:dd:c5:c1:5f:81:e2:
                    1e:59:e2:45:dd:7e:b7:2d:98:ec:83:33:4f:28:3c:
                    a1:b4:74:e4:c1:b0:8e:74:b1:7f:73:9c:b8:75:76:
                    7e:52:18:38:5b:e5:f8:28:2b
                Exponent: 65537 (0x10001)
        X509v3 extensions:
            X509v3 Basic Constraints: critical
                CA:FALSE
            X509v3 Subject Key Identifier: 
                FA:31:9E:99:0D:DD:E2:64:47:DC:8D:1B:5B:DB:54:E3:11:4F:38:45
            X509v3 Authority Key Identifier: 
                keyid:A7:15:61:9A:B5:81:C7:F7:D0:76:65:0D:DA:7F:EC:DE:F2:4F:C8:EB
                DirName:/C=FR/ST=IDF/L=Paris/O=Local NODE-OPCUA Certificate Authority/CN=NodeOPCUA-CA
                serial:25:A1:CC:A0:A1:DA:94:52:52:1D:E7:E0:B7:E7:30:D9:7D:F8:10:DD

            X509v3 Subject Alternative Name: 
                URI:urn:bc96d73fb3b6:NodeOPCUA-ClientRevoked, DNS:bc96d73fb3b6, IP Address:127.0.0.1
            Netscape Comment: 
                OpenSSL Generated Certificate
            X509v3 Key Usage: critical
                Digital Signature, Non Repudiation, Key Encipherment, Data Encipherment, Key Agreement, Certificate Sign
            X509v3 Extended Key Usage: critical
                TLS Web Server Authentication, TLS Web Client Authentication
    Signature Algorithm: sha256WithRSAEncryption
         60:73:18:64:43:17:19:be:31:db:e5:b7:3e:08:04:e1:03:95:
         86:95:c5:49:cf:4b:4a:d8:8d:d5:4e:5c:9b:6e:04:87:39:77:
         a1:69:75:69:2b:6b:2c:1b:08:d4:f9:2e:da:30:8b:34:df:fb:
         67:2f:46:01:d1:56:85:2c:ca:68:d9:77:71:a9:54:81:9e:2d:
         5a:8a:3b:67:87:63:62:38:d9:29:9d:d4:b1:e4:fb:a3:34:75:
         6c:1e:d5:b8:18:74:8f:3c:b2:ce:f0:ef:d1:d2:b7:00:3a:68:
         97:40:19:d0:52:ab:be:1c:7a:04:be:3a:f6:c6:9b:0d:20:12:
         aa:b2:ef:25:c4:27:2a:44:74:7e:8b:d3:f1:95:6d:60:25:32:
         47:14:6c:4e:a9:35:f8:d2:61:a6:36:2f:77:f2:fd:da:cf:f0:
         03:f0:13:d0:8d:20:85:50:2f:35:e3:57:9e:58:3b:38:ac:f8:
         86:6b:15:46:18:79:df:5b:74:69:97:b8:bf:9d:90:86:8e:c9:
         67:7f:51:fe:fe:03:f1:38:48:eb:55:b1:f1:b6:fd:17:0c:5d:
         9a:fb:ae:0c:d4:bc:3f:1f:98:fa:92:5b:26:e0:1d:18:b2:19:
         91:42:06:0e:be:f2:f3:30:7f:35:6a:9f:bb:71:39:98:5e:1f:
         15:8f:e1:37
-----BEGIN CERTIFICATE-----
MIIELzCCAxegAwIBAgICEAQwDQYJKoZIhvcNAQELBQAwczELMAkGA1UEBhMCRlIx
DDAKBgNVBAgTA0lERjEOMAwGA1UEBxMFUGFyaXMxLzAtBgNVBAoTJkxvY2FsIE5P
REUtT1BDVUEgQ2VydGlmaWNhdGUgQXV0aG9yaXR5MRUwEwYDVQQDEwxOb2RlT1BD
VUEtQ0EwHhcNMjIxMDA5MDAyNDIwWhcNMjMxMDA5MDAyNDIwWjA1MQswCQYDVQQG
EwJGUjESMBAGA1UECgwJTm9kZU9QQ1VBMRIwEAYDVQQDDAlOb2RlT1BDVUEwgZ8w
DQYJKoZIhvcNAQEBBQADgY0AMIGJAoGBANCwRpHR4Jhoax8RktkS/szsdlmYSbU2
mTxyRtkIR+PAQ80FqUk5eSGjhta8gdk88YILVpCzBK3u+iODtuX/VnoO/iEm15rT
bwC0Z33yVRgy+IiE3cXBX4HiHlniRd1+ty2Y7IMzTyg8obR05MGwjnSxf3OcuHV2
flIYOFvl+CgrAgMBAAGjggGNMIIBiTAMBgNVHRMBAf8EAjAAMB0GA1UdDgQWBBT6
MZ6ZDd3iZEfcjRtb21TjEU84RTCBsAYDVR0jBIGoMIGlgBSnFWGatYHH99B2ZQ3a
f+ze8k/I66F3pHUwczELMAkGA1UEBhMCRlIxDDAKBgNVBAgTA0lERjEOMAwGA1UE
BxMFUGFyaXMxLzAtBgNVBAoTJkxvY2FsIE5PREUtT1BDVUEgQ2VydGlmaWNhdGUg
QXV0aG9yaXR5MRUwEwYDVQQDEwxOb2RlT1BDVUEtQ0GCFCWhzKCh2pRSUh3n4Lfn
MNl9+BDdMEcGA1UdEQRAMD6GKHVybjpiYzk2ZDczZmIzYjY6Tm9kZU9QQ1VBLUNs
aWVudFJldm9rZWSCDGJjOTZkNzNmYjNiNocEfwAAATAsBglghkgBhvhCAQ0EHxYd
T3BlblNTTCBHZW5lcmF0ZWQgQ2VydGlmaWNhdGUwDgYDVR0PAQH/BAQDAgL8MCAG
A1UdJQEB/wQWMBQGCCsGAQUFBwMBBggrBgEFBQcDAjANBgkqhkiG9w0BAQsFAAOC
AQEAYHMYZEMXGb4x2+W3PggE4QOVhpXFSc9LStiN1U5cm24Ehzl3oWl1aStrLBsI
1Pku2jCLNN/7Zy9GAdFWhSzKaNl3calUgZ4tWoo7Z4djYjjZKZ3UseT7ozR1bB7V
uBh0jzyyzvDv0dK3ADpol0AZ0FKrvhx6BL469sabDSASqrLvJcQnKkR0fovT8ZVt
YCUyRxRsTqk1+NJhpjYvd/L92s/wA/AT0I0ghVAvNeNXnlg7OKz4hmsVRhh531t0
aZe4v52Qho7JZ39R/v4D8ThI61Wx8bb9FwxdmvuuDNS8Px+Y+pJbJuAdGLIZkUIG
Dr7y8zB/NWqfu3E5mF4fFY/hNw==
-----END CERTIFICATE-----
