Certificate:
    Data:
        Version: 3 (0x2)
        Serial Number: 4101 (0x1005)
        Signature Algorithm: sha256WithRSAEncryption
        Issuer: C=FR, ST=IDF, L=Paris, O=Local NODE-OPCUA Certificate Authority, CN=NodeOPCUA-CA
        Validity
            Not Before: Oct  9 00:24:20 2022 GMT
            Not After : Oct  9 00:24:20 2023 GMT
        Subject: C=FR, O=NodeOPCUA, CN=NodeOPCUA
        Subject Public Key Info:
            Public Key Algorithm: rsaEncryption
                RSA Public-Key: (2048 bit)
                Modulus:
                    00:aa:d5:b4:bd:0a:9c:30:28:a6:5f:ac:78:a4:ee:
                    f3:9f:d5:2b:1c:3e:4c:4f:93:a6:ef:07:4e:b5:cd:
                    13:a1:d2:4b:0b:5c:f2:0b:b5:05:b9:34:b5:86:ee:
                    21:e3:b2:f5:67:07:71:7c:f5:8e:34:e4:dd:30:87:
                    40:e9:3b:1c:3b:6a:d9:7e:d1:47:e1:43:87:e9:0c:
                    2d:2a:fe:db:86:ba:27:91:9b:05:ff:3e:ce:37:7e:
                    7e:f8:11:97:2c:f4:77:3a:b6:76:58:a4:7c:9c:23:
                    b6:ad:ed:61:dd:3c:c5:96:28:24:dc:19:8a:a4:ac:
                    03:f3:23:a2:c8:2e:99:0b:49:b4:69:9b:a8:64:ab:
                    bc:62:eb:88:45:90:6e:af:f0:b1:ae:d0:4b:52:df:
                    62:31:57:03:10:f5:12:87:1b:25:5a:df:c4:22:9e:
                    a2:6a:f5:f1:10:5c:7a:64:27:d6:be:7e:9f:d2:c8:
                    71:e8:77:80:f8:e4:b4:77:66:6d:ac:0d:fb:fa:49:
                    ac:f0:ea:67:08:75:a6:53:90:bc:6a:44:74:1d:85:
                    21:38:df:97:93:09:a5:d7:9c:7a:7a:79:ae:d9:61:
                    18:e2:72:98:24:1a:c8:f0:53:6e:6f:24:aa:0b:96:
                    37:50:9b:8e:30:68:26:1c:c9:c9:79:0f:8c:2b:1e:
                    ba:63
                Exponent: 65537 (0x10001)
        X509v3 extensions:
            X509v3 Basic Constraints: critical
                CA:FALSE
            X509v3 Subject Key Identifier: 
                88:CF:14:23:78:9A:59:65:33:74:94:66:0D:95:63:57:79:17:BA:BA
            X509v3 Authority Key Identifier: 
                keyid:A7:15:61:9A:B5:81:C7:F7:D0:76:65:0D:DA:7F:EC:DE:F2:4F:C8:EB
                DirName:/C=FR/ST=IDF/L=Paris/O=Local NODE-OPCUA Certificate Authority/CN=NodeOPCUA-CA
                serial:25:A1:CC:A0:A1:DA:94:52:52:1D:E7:E0:B7:E7:30:D9:7D:F8:10:DD

            X509v3 Subject Alternative Name: 
                URI:urn:bc96d73fb3b6:NodeOPCUA-Client, DNS:bc96d73fb3b6, IP Address:127.0.0.1
            Netscape Comment: 
                OpenSSL Generated Certificate
            X509v3 Key Usage: critical
                Digital Signature, Non Repudiation, Key Encipherment, Data Encipherment, Key Agreement, Certificate Sign
            X509v3 Extended Key Usage: critical
                TLS Web Server Authentication, TLS Web Client Authentication
    Signature Algorithm: sha256WithRSAEncryption
         44:d9:87:fd:2f:cd:89:f8:59:4e:9a:19:91:91:47:22:1e:ea:
         6e:fc:ac:3d:57:fe:82:1a:07:d7:98:e7:9b:e7:19:a1:79:a1:
         b0:71:9b:ed:71:26:76:b6:33:e5:84:a8:04:c3:86:8d:b0:50:
         65:e5:cf:52:6a:e5:3b:7e:23:94:45:92:83:6b:b3:a9:47:b6:
         89:4c:39:0b:8f:9a:f7:10:a8:f9:cb:d4:1d:e3:48:8a:e9:76:
         17:bc:6c:4a:ea:24:3e:50:29:29:ff:ee:1e:71:2c:bb:31:b9:
         6d:10:1a:2d:ed:db:4d:cc:08:b2:62:16:65:14:74:c4:21:e9:
         2b:8c:5c:ad:5f:a2:1c:b4:9d:fe:b4:9d:d9:21:2d:69:7d:70:
         25:52:9c:ac:f3:7a:aa:15:7a:04:94:79:2d:93:55:f8:19:f5:
         04:1b:a3:5f:30:ee:d1:a8:c5:d5:31:20:5a:99:57:a1:89:fa:
         0c:a2:59:80:0f:b6:b6:70:fb:c3:57:c2:47:e5:b3:2a:a3:87:
         17:c1:54:d7:b0:7f:9e:de:43:9a:9f:5c:73:4e:04:b5:45:45:
         00:c9:89:42:5f:b4:ce:7e:25:42:39:32:0d:ff:df:26:7e:a4:
         8f:a0:2b:7b:5e:1e:e0:52:6f:86:c0:0e:65:cc:c9:e5:5a:0e:
         0b:9e:af:17
-----BEGIN CERTIFICATE-----
MIIErDCCA5SgAwIBAgICEAUwDQYJKoZIhvcNAQELBQAwczELMAkGA1UEBhMCRlIx
DDAKBgNVBAgTA0lERjEOMAwGA1UEBxMFUGFyaXMxLzAtBgNVBAoTJkxvY2FsIE5P
REUtT1BDVUEgQ2VydGlmaWNhdGUgQXV0aG9yaXR5MRUwEwYDVQQDEwxOb2RlT1BD
VUEtQ0EwHhcNMjIxMDA5MDAyNDIwWhcNMjMxMDA5MDAyNDIwWjA1MQswCQYDVQQG
EwJGUjESMBAGA1UECgwJTm9kZU9QQ1VBMRIwEAYDVQQDDAlOb2RlT1BDVUEwggEi
MA0GCSqGSIb3DQEBAQUAA4IBDwAwggEKAoIBAQCq1bS9CpwwKKZfrHik7vOf1Ssc
PkxPk6bvB061zROh0ksLXPILtQW5NLWG7iHjsvVnB3F89Y405N0wh0DpOxw7atl+
0UfhQ4fpDC0q/tuGuieRmwX/Ps43fn74EZcs9Hc6tnZYpHycI7at7WHdPMWWKCTc
GYqkrAPzI6LILpkLSbRpm6hkq7xi64hFkG6v8LGu0EtS32IxVwMQ9RKHGyVa38Qi
nqJq9fEQXHpkJ9a+fp/SyHHod4D45LR3Zm2sDfv6Sazw6mcIdaZTkLxqRHQdhSE4
35eTCaXXnHp6ea7ZYRjicpgkGsjwU25vJKoLljdQm44waCYcycl5D4wrHrpjAgMB
AAGjggGGMIIBgjAMBgNVHRMBAf8EAjAAMB0GA1UdDgQWBBSIzxQjeJpZZTN0lGYN
lWNXeRe6ujCBsAYDVR0jBIGoMIGlgBSnFWGatYHH99B2ZQ3af+ze8k/I66F3pHUw
czELMAkGA1UEBhMCRlIxDDAKBgNVBAgTA0lERjEOMAwGA1UEBxMFUGFyaXMxLzAt
BgNVBAoTJkxvY2FsIE5PREUtT1BDVUEgQ2VydGlmaWNhdGUgQXV0aG9yaXR5MRUw
EwYDVQQDEwxOb2RlT1BDVUEtQ0GCFCWhzKCh2pRSUh3n4LfnMNl9+BDdMEAGA1Ud
EQQ5MDeGIXVybjpiYzk2ZDczZmIzYjY6Tm9kZU9QQ1VBLUNsaWVudIIMYmM5NmQ3
M2ZiM2I2hwR/AAABMCwGCWCGSAGG+EIBDQQfFh1PcGVuU1NMIEdlbmVyYXRlZCBD
ZXJ0aWZpY2F0ZTAOBgNVHQ8BAf8EBAMCAvwwIAYDVR0lAQH/BBYwFAYIKwYBBQUH
AwEGCCsGAQUFBwMCMA0GCSqGSIb3DQEBCwUAA4IBAQBE2Yf9L82J+FlOmhmRkUci
Hupu/Kw9V/6CGgfXmOeb5xmheaGwcZvtcSZ2tjPlhKgEw4aNsFBl5c9SauU7fiOU
RZKDa7OpR7aJTDkLj5r3EKj5y9Qd40iK6XYXvGxK6iQ+UCkp/+4ecSy7MbltEBot
7dtNzAiyYhZlFHTEIekrjFytX6IctJ3+tJ3ZIS1pfXAlUpys83qqFXoElHktk1X4
GfUEG6NfMO7RqMXVMSBamVehifoMolmAD7a2cPvDV8JH5bMqo4cXwVTXsH+e3kOa
n1xzTgS1RUUAyYlCX7TOfiVCOTIN/98mfqSPoCt7Xh7gUm+GwA5lzMnlWg4Lnq8X
-----END CERTIFICATE-----
