Certificate:
    Data:
        Version: 3 (0x2)
        Serial Number: 4104 (0x1008)
        Signature Algorithm: sha256WithRSAEncryption
        Issuer: C=FR, ST=IDF, L=Paris, O=Local NODE-OPCUA Certificate Authority, CN=NodeOPCUA-CA
        Validity
            Not Before: Oct 10 00:24:20 2023 GMT
            Not After : Oct  9 00:24:20 2024 GMT
        Subject: C=FR, O=NodeOPCUA, CN=NodeOPCUA
        Subject Public Key Info:
            Public Key Algorithm: rsaEncryption
                RSA Public-Key: (2048 bit)
                Modulus:
                    00:aa:d5:b4:bd:0a:9c:30:28:a6:5f:ac:78:a4:ee:
                    f3:9f:d5:2b:1c:3e:4c:4f:93:a6:ef:07:4e:b5:cd:
                    13:a1:d2:4b:0b:5c:f2:0b:b5:05:b9:34:b5:86:ee:
                    21:e3:b2:f5:67:07:71:7c:f5:8e:34:e4:dd:30:87:
                    40:e9:3b:1c:3b:6a:d9:7e:d1:47:e1:43:87:e9:0c:
                    2d:2a:fe:db:86:ba:27:91:9b:05:ff:3e:ce:37:7e:
                    7e:f8:11:97:2c:f4:77:3a:b6:76:58:a4:7c:9c:23:
                    b6:ad:ed:61:dd:3c:c5:96:28:24:dc:19:8a:a4:ac:
                    03:f3:23:a2:c8:2e:99:0b:49:b4:69:9b:a8:64:ab:
                    bc:62:eb:88:45:90:6e:af:f0:b1:ae:d0:4b:52:df:
                    62:31:57:03:10:f5:12:87:1b:25:5a:df:c4:22:9e:
                    a2:6a:f5:f1:10:5c:7a:64:27:d6:be:7e:9f:d2:c8:
                    71:e8:77:80:f8:e4:b4:77:66:6d:ac:0d:fb:fa:49:
                    ac:f0:ea:67:08:75:a6:53:90:bc:6a:44:74:1d:85:
                    21:38:df:97:93:09:a5:d7:9c:7a:7a:79:ae:d9:61:
                    18:e2:72:98:24:1a:c8:f0:53:6e:6f:24:aa:0b:96:
                    37:50:9b:8e:30:68:26:1c:c9:c9:79:0f:8c:2b:1e:
                    ba:63
                Exponent: 65537 (0x10001)
        X509v3 extensions:
            X509v3 Basic Constraints: critical
                CA:FALSE
            X509v3 Subject Key Identifier: 
                88:CF:14:23:78:9A:59:65:33:74:94:66:0D:95:63:57:79:17:BA:BA
            X509v3 Authority Key Identifier: 
                keyid:A7:15:61:9A:B5:81:C7:F7:D0:76:65:0D:DA:7F:EC:DE:F2:4F:C8:EB
                DirName:/C=FR/ST=IDF/L=Paris/O=Local NODE-OPCUA Certificate Authority/CN=NodeOPCUA-CA
                serial:25:A1:CC:A0:A1:DA:94:52:52:1D:E7:E0:B7:E7:30:D9:7D:F8:10:DD

            X509v3 Subject Alternative Name: 
                URI:urn:bc96d73fb3b6:NodeOPCUA-Client, DNS:bc96d73fb3b6, IP Address:127.0.0.1
            Netscape Comment: 
                OpenSSL Generated Certificate
            X509v3 Key Usage: critical
                Digital Signature, Non Repudiation, Key Encipherment, Data Encipherment, Key Agreement, Certificate Sign
            X509v3 Extended Key Usage: critical
                TLS Web Server Authentication, TLS Web Client Authentication
    Signature Algorithm: sha256WithRSAEncryption
         8f:10:47:ee:06:b9:8b:83:97:d8:3f:4b:87:07:67:0e:a2:47:
         ad:fb:18:5a:fc:d3:be:00:09:d2:f7:6f:2c:1a:e8:32:d3:20:
         a1:b5:5e:9e:d3:44:49:25:dd:57:ac:cd:61:3e:73:bd:34:f9:
         27:d1:e2:82:0b:45:79:2d:f8:36:02:ab:ef:02:4d:f9:86:05:
         e9:15:79:dc:1e:16:38:d6:3a:6c:16:89:da:fc:11:13:10:d9:
         28:63:29:88:49:3f:49:88:38:96:93:08:a1:50:2d:46:08:89:
         da:7b:8d:bc:88:1e:38:fa:57:fa:5a:cb:6d:73:52:73:3a:76:
         2c:2a:b7:b3:03:35:67:91:01:66:b3:a7:ed:e3:80:3c:b4:93:
         1a:b3:4c:de:aa:8b:81:1a:6f:83:db:c1:7d:2b:06:4b:d9:4b:
         ef:12:e3:a7:1a:0b:76:10:79:94:2c:cb:e8:59:29:c7:c4:9f:
         8c:79:2b:2f:89:ed:65:5e:fa:d3:02:c0:f8:52:4b:8f:58:4d:
         5a:a5:30:7b:24:ae:05:08:7d:8e:e4:90:ef:45:d0:a6:ff:52:
         75:39:f9:ac:0e:94:5d:b5:43:fc:8d:59:8b:07:fc:66:5d:2d:
         87:e1:e2:95:bc:1d:85:85:14:e4:56:4b:c7:ff:2b:25:09:b1:
         b9:05:9d:7a
-----BEGIN CERTIFICATE-----
MIIErDCCA5SgAwIBAgICEAgwDQYJKoZIhvcNAQELBQAwczELMAkGA1UEBhMCRlIx
DDAKBgNVBAgTA0lERjEOMAwGA1UEBxMFUGFyaXMxLzAtBgNVBAoTJkxvY2FsIE5P
REUtT1BDVUEgQ2VydGlmaWNhdGUgQXV0aG9yaXR5MRUwEwYDVQQDEwxOb2RlT1BD
VUEtQ0EwHhcNMjMxMDEwMDAyNDIwWhcNMjQxMDA5MDAyNDIwWjA1MQswCQYDVQQG
EwJGUjESMBAGA1UECgwJTm9kZU9QQ1VBMRIwEAYDVQQDDAlOb2RlT1BDVUEwggEi
MA0GCSqGSIb3DQEBAQUAA4IBDwAwggEKAoIBAQCq1bS9CpwwKKZfrHik7vOf1Ssc
PkxPk6bvB061zROh0ksLXPILtQW5NLWG7iHjsvVnB3F89Y405N0wh0DpOxw7atl+
0UfhQ4fpDC0q/tuGuieRmwX/Ps43fn74EZcs9Hc6tnZYpHycI7at7WHdPMWWKCTc
GYqkrAPzI6LILpkLSbRpm6hkq7xi64hFkG6v8LGu0EtS32IxVwMQ9RKHGyVa38Qi
nqJq9fEQXHpkJ9a+fp/SyHHod4D45LR3Zm2sDfv6Sazw6mcIdaZTkLxqRHQdhSE4
35eTCaXXnHp6ea7ZYRjicpgkGsjwU25vJKoLljdQm44waCYcycl5D4wrHrpjAgMB
AAGjggGGMIIBgjAMBgNVHRMBAf8EAjAAMB0GA1UdDgQWBBSIzxQjeJpZZTN0lGYN
lWNXeRe6ujCBsAYDVR0jBIGoMIGlgBSnFWGatYHH99B2ZQ3af+ze8k/I66F3pHUw
czELMAkGA1UEBhMCRlIxDDAKBgNVBAgTA0lERjEOMAwGA1UEBxMFUGFyaXMxLzAt
BgNVBAoTJkxvY2FsIE5PREUtT1BDVUEgQ2VydGlmaWNhdGUgQXV0aG9yaXR5MRUw
EwYDVQQDEwxOb2RlT1BDVUEtQ0GCFCWhzKCh2pRSUh3n4LfnMNl9+BDdMEAGA1Ud
EQQ5MDeGIXVybjpiYzk2ZDczZmIzYjY6Tm9kZU9QQ1VBLUNsaWVudIIMYmM5NmQ3
M2ZiM2I2hwR/AAABMCwGCWCGSAGG+EIBDQQfFh1PcGVuU1NMIEdlbmVyYXRlZCBD
ZXJ0aWZpY2F0ZTAOBgNVHQ8BAf8EBAMCAvwwIAYDVR0lAQH/BBYwFAYIKwYBBQUH
AwEGCCsGAQUFBwMCMA0GCSqGSIb3DQEBCwUAA4IBAQCPEEfuBrmLg5fYP0uHB2cO
oket+xha/NO+AAnS928sGugy0yChtV6e00RJJd1XrM1hPnO9NPkn0eKCC0V5Lfg2
AqvvAk35hgXpFXncHhY41jpsFona/BETENkoYymIST9JiDiWkwihUC1GCInae428
iB44+lf6Wsttc1JzOnYsKrezAzVnkQFms6ft44A8tJMas0zeqouBGm+D28F9KwZL
2UvvEuOnGgt2EHmULMvoWSnHxJ+MeSsvie1lXvrTAsD4UkuPWE1apTB7JK4FCH2O
5JDvRdCm/1J1OfmsDpRdtUP8jVmLB/xmXS2H4eKVvB2FhRTkVkvH/yslCbG5BZ16
-----END CERTIFICATE-----
