Certificate:
    Data:
        Version: 3 (0x2)
        Serial Number: 4105 (0x1009)
        Signature Algorithm: sha256WithRSAEncryption
        Issuer: C=FR, ST=IDF, L=Paris, O=Local NODE-OPCUA Certificate Authority, CN=NodeOPCUA-CA
        Validity
            Not Before: Oct  9 00:24:20 2022 GMT
            Not After : Oct  9 00:24:20 2023 GMT
        Subject: C=FR, O=NodeOPCUA, CN=NodeOPCUA
        Subject Public Key Info:
            Public Key Algorithm: rsaEncryption
                RSA Public-Key: (2048 bit)
                Modulus:
                    00:aa:d5:b4:bd:0a:9c:30:28:a6:5f:ac:78:a4:ee:
                    f3:9f:d5:2b:1c:3e:4c:4f:93:a6:ef:07:4e:b5:cd:
                    13:a1:d2:4b:0b:5c:f2:0b:b5:05:b9:34:b5:86:ee:
                    21:e3:b2:f5:67:07:71:7c:f5:8e:34:e4:dd:30:87:
                    40:e9:3b:1c:3b:6a:d9:7e:d1:47:e1:43:87:e9:0c:
                    2d:2a:fe:db:86:ba:27:91:9b:05:ff:3e:ce:37:7e:
                    7e:f8:11:97:2c:f4:77:3a:b6:76:58:a4:7c:9c:23:
                    b6:ad:ed:61:dd:3c:c5:96:28:24:dc:19:8a:a4:ac:
                    03:f3:23:a2:c8:2e:99:0b:49:b4:69:9b:a8:64:ab:
                    bc:62:eb:88:45:90:6e:af:f0:b1:ae:d0:4b:52:df:
                    62:31:57:03:10:f5:12:87:1b:25:5a:df:c4:22:9e:
                    a2:6a:f5:f1:10:5c:7a:64:27:d6:be:7e:9f:d2:c8:
                    71:e8:77:80:f8:e4:b4:77:66:6d:ac:0d:fb:fa:49:
                    ac:f0:ea:67:08:75:a6:53:90:bc:6a:44:74:1d:85:
                    21:38:df:97:93:09:a5:d7:9c:7a:7a:79:ae:d9:61:
                    18:e2:72:98:24:1a:c8:f0:53:6e:6f:24:aa:0b:96:
                    37:50:9b:8e:30:68:26:1c:c9:c9:79:0f:8c:2b:1e:
                    ba:63
                Exponent: 65537 (0x10001)
        X509v3 extensions:
            X509v3 Basic Constraints: critical
                CA:FALSE
            X509v3 Subject Key Identifier: 
                88:CF:14:23:78:9A:59:65:33:74:94:66:0D:95:63:57:79:17:BA:BA
            X509v3 Authority Key Identifier: 
                keyid:A7:15:61:9A:B5:81:C7:F7:D0:76:65:0D:DA:7F:EC:DE:F2:4F:C8:EB
                DirName:/C=FR/ST=IDF/L=Paris/O=Local NODE-OPCUA Certificate Authority/CN=NodeOPCUA-CA
                serial:25:A1:CC:A0:A1:DA:94:52:52:1D:E7:E0:B7:E7:30:D9:7D:F8:10:DD

            X509v3 Subject Alternative Name: 
                URI:urn:bc96d73fb3b6:NodeOPCUA-ClientRevoked, DNS:bc96d73fb3b6, IP Address:127.0.0.1
            Netscape Comment: 
                OpenSSL Generated Certificate
            X509v3 Key Usage: critical
                Digital Signature, Non Repudiation, Key Encipherment, Data Encipherment, Key Agreement, Certificate Sign
            X509v3 Extended Key Usage: critical
                TLS Web Server Authentication, TLS Web Client Authentication
    Signature Algorithm: sha256WithRSAEncryption
         6e:6d:64:eb:a5:0f:0c:85:1b:4a:b6:55:97:77:24:42:c4:c3:
         45:f2:ee:c9:54:41:34:6e:64:5e:94:75:0b:cd:f5:7f:50:af:
         a3:81:bf:92:72:67:1b:d3:a6:95:e0:ba:f6:da:4d:0e:fb:5b:
         c5:71:9c:80:30:f5:31:02:44:15:1a:88:ed:02:ee:cf:7b:5e:
         5a:33:62:2c:ed:e7:3d:9a:90:6e:0c:11:05:6e:24:e4:ee:fa:
         f8:c3:88:6f:a9:28:1f:84:f9:18:2b:91:50:a7:35:8f:70:90:
         8b:03:33:9d:ca:78:cf:aa:3f:38:ab:7f:b7:2e:16:a4:eb:8a:
         4b:0f:7c:6d:0e:58:57:43:16:74:ef:5f:5f:89:49:31:a0:a8:
         7b:3b:ee:3a:7c:9d:87:c9:09:64:9e:f9:f9:fe:c9:59:af:fe:
         db:8c:c4:f8:be:fd:be:d2:ec:80:77:8c:8c:f3:af:cf:38:85:
         c7:b0:83:00:64:c2:25:36:7d:36:10:7d:9d:60:2b:4a:a2:25:
         c2:80:72:b9:3a:70:02:c6:d2:74:ee:bf:e4:ff:9d:48:ba:6a:
         49:45:e8:e3:98:e8:30:f1:a4:2a:9e:fa:81:0b:f1:75:da:32:
         16:03:0c:ca:64:ab:65:20:51:09:39:db:df:12:b0:b1:36:c4:
         fe:df:f1:69
-----BEGIN CERTIFICATE-----
MIIEszCCA5ugAwIBAgICEAkwDQYJKoZIhvcNAQELBQAwczELMAkGA1UEBhMCRlIx
DDAKBgNVBAgTA0lERjEOMAwGA1UEBxMFUGFyaXMxLzAtBgNVBAoTJkxvY2FsIE5P
REUtT1BDVUEgQ2VydGlmaWNhdGUgQXV0aG9yaXR5MRUwEwYDVQQDEwxOb2RlT1BD
VUEtQ0EwHhcNMjIxMDA5MDAyNDIwWhcNMjMxMDA5MDAyNDIwWjA1MQswCQYDVQQG
EwJGUjESMBAGA1UECgwJTm9kZU9QQ1VBMRIwEAYDVQQDDAlOb2RlT1BDVUEwggEi
MA0GCSqGSIb3DQEBAQUAA4IBDwAwggEKAoIBAQCq1bS9CpwwKKZfrHik7vOf1Ssc
PkxPk6bvB061zROh0ksLXPILtQW5NLWG7iHjsvVnB3F89Y405N0wh0DpOxw7atl+
0UfhQ4fpDC0q/tuGuieRmwX/Ps43fn74EZcs9Hc6tnZYpHycI7at7WHdPMWWKCTc
GYqkrAPzI6LILpkLSbRpm6hkq7xi64hFkG6v8LGu0EtS32IxVwMQ9RKHGyVa38Qi
nqJq9fEQXHpkJ9a+fp/SyHHod4D45LR3Zm2sDfv6Sazw6mcIdaZTkLxqRHQdhSE4
35eTCaXXnHp6ea7ZYRjicpgkGsjwU25vJKoLljdQm44waCYcycl5D4wrHrpjAgMB
AAGjggGNMIIBiTAMBgNVHRMBAf8EAjAAMB0GA1UdDgQWBBSIzxQjeJpZZTN0lGYN
lWNXeRe6ujCBsAYDVR0jBIGoMIGlgBSnFWGatYHH99B2ZQ3af+ze8k/I66F3pHUw
czELMAkGA1UEBhMCRlIxDDAKBgNVBAgTA0lERjEOMAwGA1UEBxMFUGFyaXMxLzAt
BgNVBAoTJkxvY2FsIE5PREUtT1BDVUEgQ2VydGlmaWNhdGUgQXV0aG9yaXR5MRUw
EwYDVQQDEwxOb2RlT1BDVUEtQ0GCFCWhzKCh2pRSUh3n4LfnMNl9+BDdMEcGA1Ud
EQRAMD6GKHVybjpiYzk2ZDczZmIzYjY6Tm9kZU9QQ1VBLUNsaWVudFJldm9rZWSC
DGJjOTZkNzNmYjNiNocEfwAAATAsBglghkgBhvhCAQ0EHxYdT3BlblNTTCBHZW5l
cmF0ZWQgQ2VydGlmaWNhdGUwDgYDVR0PAQH/BAQDAgL8MCAGA1UdJQEB/wQWMBQG
CCsGAQUFBwMBBggrBgEFBQcDAjANBgkqhkiG9w0BAQsFAAOCAQEAbm1k66UPDIUb
SrZVl3ckQsTDRfLuyVRBNG5kXpR1C831f1Cvo4G/knJnG9OmleC69tpNDvtbxXGc
gDD1MQJEFRqI7QLuz3teWjNiLO3nPZqQbgwRBW4k5O76+MOIb6koH4T5GCuRUKc1
j3CQiwMzncp4z6o/OKt/ty4WpOuKSw98bQ5YV0MWdO9fX4lJMaCoezvuOnydh8kJ
ZJ75+f7JWa/+24zE+L79vtLsgHeMjPOvzziFx7CDAGTCJTZ9NhB9nWArSqIlwoBy
uTpwAsbSdO6/5P+dSLpqSUXo45joMPGkKp76gQvxddoyFgMMymSrZSBRCTnb3xKw
sTbE/t/xaQ==
-----END CERTIFICATE-----
