Certificate:
    Data:
        Version: 3 (0x2)
        Serial Number: 4107 (0x100b)
        Signature Algorithm: sha256WithRSAEncryption
        Issuer: O=NodeOPCUA, CN=NodeOPCUA
        Validity
            Not Before: Oct  9 00:24:20 2022 GMT
            Not After : Oct  9 00:24:20 2023 GMT
        Subject: O=NodeOPCUA, CN=NodeOPCUA
        Subject Public Key Info:
            Public Key Algorithm: rsaEncryption
                RSA Public-Key: (3072 bit)
                Modulus:
                    00:e3:ca:25:c7:8a:15:b5:1d:05:1e:5c:89:f4:03:
                    95:39:76:ec:68:ba:64:e8:6b:67:b5:89:d4:29:1f:
                    78:ba:dc:69:df:75:12:3d:2b:56:58:8c:29:9d:07:
                    2c:20:60:33:f0:1d:a8:25:ec:c7:7d:c6:fe:1c:c4:
                    b8:ff:b2:88:23:98:96:5c:4a:ae:64:e6:94:44:31:
                    9c:e1:6d:e0:bd:ed:2e:38:43:f0:d3:f2:87:fd:c3:
                    8b:d2:f6:23:6f:e7:b5:a2:d9:15:80:cd:6e:2a:47:
                    40:48:93:fb:01:b2:29:a6:4d:b5:62:fe:9c:53:f0:
                    27:f6:39:86:83:d4:1b:12:f3:f7:d1:69:bd:49:d1:
                    c8:21:56:1a:28:a6:89:72:f2:f1:f7:d1:57:71:53:
                    42:e4:c0:72:d8:ab:2b:a2:71:a7:23:b8:ce:87:ee:
                    4a:f4:eb:a3:71:d3:46:5c:a5:ca:22:ab:39:3d:9a:
                    16:f5:c5:31:46:82:e1:07:6e:7e:fd:bf:32:f4:ba:
                    8f:7d:07:af:09:48:53:1e:ef:7d:16:ba:1c:ea:7c:
                    69:09:87:5c:44:23:81:9c:de:f4:d7:5e:80:09:14:
                    e2:11:a8:d2:9c:13:e9:ff:73:8b:6c:1e:c8:0a:af:
                    10:32:bc:24:5c:dd:06:b8:b6:c2:b2:2d:f4:e5:45:
                    25:ad:0f:3a:43:5f:90:04:0c:48:33:9a:ae:6f:db:
                    c5:1a:da:b4:5f:48:38:cc:4b:0c:28:4a:2b:c1:a4:
                    41:27:17:b3:c5:24:c2:3b:34:09:0b:d8:9b:aa:04:
                    d2:73:c2:64:37:f1:60:76:aa:65:6d:59:59:d2:5c:
                    9a:a5:1b:cf:7f:7b:1b:ec:4a:d7:04:4e:5d:1e:d8:
                    e3:f3:df:44:14:94:99:67:cd:ab:8b:16:52:7e:19:
                    3a:8f:75:dd:e7:e5:2f:6b:a3:de:74:bd:4b:6f:13:
                    d4:9c:54:5d:40:83:4e:3f:7a:53:a0:4c:ce:0f:84:
                    69:f1:46:0a:c8:2f:3a:80:18:37
                Exponent: 65537 (0x10001)
        X509v3 extensions:
            X509v3 Basic Constraints: critical
                CA:FALSE
            X509v3 Subject Key Identifier: 
                30:CB:14:BC:24:A1:AA:65:90:A6:23:56:C3:D8:E9:D9:67:21:F7:CB
            X509v3 Authority Key Identifier: 
                keyid:30:CB:14:BC:24:A1:AA:65:90:A6:23:56:C3:D8:E9:D9:67:21:F7:CB
                DirName:/O=NodeOPCUA/CN=NodeOPCUA
                serial:10:0B

            X509v3 Subject Alternative Name: 
                URI:urn:bc96d73fb3b6:NodeOPCUA-Client, DNS:bc96d73fb3b6
            Netscape Comment: 
                OpenSSL Generated Certificate
            X509v3 Key Usage: critical
                Digital Signature, Non Repudiation, Key Encipherment, Data Encipherment, Key Agreement, Certificate Sign
            X509v3 Extended Key Usage: critical
                TLS Web Server Authentication, TLS Web Client Authentication
    Signature Algorithm: sha256WithRSAEncryption
         df:00:d6:97:49:f9:4f:f1:52:8f:d5:36:62:a4:a7:b9:1f:6c:
         ff:34:f5:20:c8:4a:21:af:21:96:89:f4:77:4e:cd:e5:17:85:
         21:71:1e:db:57:a5:ed:de:f2:8c:78:f1:66:1d:87:47:e1:c9:
         97:52:65:63:c8:a6:30:02:55:90:b0:01:7f:be:4c:cd:2d:26:
         3f:9b:c9:b2:07:fb:f2:08:82:6f:8d:37:7e:9a:e2:2b:d7:37:
         9b:28:db:c4:4a:44:24:30:20:fd:43:d8:f1:d8:0e:04:a4:60:
         a5:e6:04:72:b0:b1:b9:1b:e2:1f:1f:e3:76:bc:48:93:71:ec:
         c0:88:20:ea:df:b1:76:47:02:f0:8d:89:83:c0:eb:30:46:f2:
         f3:c7:fe:bf:f1:f2:9b:b7:d5:4c:11:62:e3:47:e0:bc:a8:de:
         f5:63:17:56:84:8f:b1:f3:58:d2:81:a9:64:a1:7a:b9:9d:91:
         72:9b:04:27:5d:a2:fd:70:aa:c2:43:8d:21:ce:3a:15:00:cb:
         bf:5c:f5:b5:3b:37:c5:03:99:66:7c:3a:cd:33:55:62:c8:cc:
         e8:6b:89:e3:5a:c1:80:60:f6:f0:a8:96:03:97:38:81:e6:a2:
         8a:93:9a:db:81:2a:38:0e:66:c3:c6:02:99:72:18:b2:3e:e8:
         eb:10:8b:80:60:bd:c9:26:ee:5b:b6:3c:10:68:cc:a9:0b:e9:
         6c:d5:08:8f:f2:31:a8:97:7a:13:0c:43:a0:23:ca:bf:4e:c7:
         c6:3f:46:88:39:2d:bd:72:cc:7b:88:ab:70:34:0d:13:88:2a:
         84:f7:f4:0e:15:19:c5:20:cb:58:bd:52:97:e5:cb:2b:3f:8b:
         18:f7:40:90:e9:dc:5a:19:63:f7:d2:68:29:f6:f3:00:ec:19:
         1f:ab:59:57:96:da:3c:8f:16:b0:6a:39:d1:c5:55:ae:4d:8d:
         2d:f7:41:42:95:3a:7d:91:ce:53:21:22:5f:ca:a0:eb:73:3a:
         59:c6:27:9d:df:13
-----BEGIN CERTIFICATE-----
MIIE7jCCA1agAwIBAgICEAswDQYJKoZIhvcNAQELBQAwKDESMBAGA1UEChMJTm9k
ZU9QQ1VBMRIwEAYDVQQDEwlOb2RlT1BDVUEwHhcNMjIxMDA5MDAyNDIwWhcNMjMx
MDA5MDAyNDIwWjAoMRIwEAYDVQQKEwlOb2RlT1BDVUExEjAQBgNVBAMTCU5vZGVP
UENVQTCCAaIwDQYJKoZIhvcNAQEBBQADggGPADCCAYoCggGBAOPKJceKFbUdBR5c
ifQDlTl27Gi6ZOhrZ7WJ1CkfeLrcad91Ej0rVliMKZ0HLCBgM/AdqCXsx33G/hzE
uP+yiCOYllxKrmTmlEQxnOFt4L3tLjhD8NPyh/3Di9L2I2/ntaLZFYDNbipHQEiT
+wGyKaZNtWL+nFPwJ/Y5hoPUGxLz99FpvUnRyCFWGiimiXLy8ffRV3FTQuTActir
K6JxpyO4zofuSvTro3HTRlylyiKrOT2aFvXFMUaC4Qdufv2/MvS6j30HrwlIUx7v
fRa6HOp8aQmHXEQjgZze9NdegAkU4hGo0pwT6f9zi2weyAqvEDK8JFzdBri2wrIt
9OVFJa0POkNfkAQMSDOarm/bxRratF9IOMxLDChKK8GkQScXs8Ukwjs0CQvYm6oE
0nPCZDfxYHaqZW1ZWdJcmqUbz397G+xK1wROXR7Y4/PfRBSUmWfNq4sWUn4ZOo91
3eflL2uj3nS9S28T1JxUXUCDTj96U6BMzg+EafFGCsgvOoAYNwIDAQABo4IBIDCC
ARwwDAYDVR0TAQH/BAIwADAdBgNVHQ4EFgQUMMsUvCShqmWQpiNWw9jp2Wch98sw
UQYDVR0jBEowSIAUMMsUvCShqmWQpiNWw9jp2Wch98uhLKQqMCgxEjAQBgNVBAoT
CU5vZGVPUENVQTESMBAGA1UEAxMJTm9kZU9QQ1VBggIQCzA6BgNVHREEMzAxhiF1
cm46YmM5NmQ3M2ZiM2I2Ok5vZGVPUENVQS1DbGllbnSCDGJjOTZkNzNmYjNiNjAs
BglghkgBhvhCAQ0EHxYdT3BlblNTTCBHZW5lcmF0ZWQgQ2VydGlmaWNhdGUwDgYD
VR0PAQH/BAQDAgL8MCAGA1UdJQEB/wQWMBQGCCsGAQUFBwMBBggrBgEFBQcDAjAN
BgkqhkiG9w0BAQsFAAOCAYEA3wDWl0n5T/FSj9U2YqSnuR9s/zT1IMhKIa8hlon0
d07N5ReFIXEe21el7d7yjHjxZh2HR+HJl1JlY8imMAJVkLABf75MzS0mP5vJsgf7
8giCb403fpriK9c3myjbxEpEJDAg/UPY8dgOBKRgpeYEcrCxuRviHx/jdrxIk3Hs
wIgg6t+xdkcC8I2Jg8DrMEby88f+v/Hym7fVTBFi40fgvKje9WMXVoSPsfNY0oGp
ZKF6uZ2RcpsEJ12i/XCqwkONIc46FQDLv1z1tTs3xQOZZnw6zTNVYsjM6GuJ41rB
gGD28KiWA5c4geaiipOa24EqOA5mw8YCmXIYsj7o6xCLgGC9ySbuW7Y8EGjMqQvp
bNUIj/IxqJd6EwxDoCPKv07Hxj9GiDktvXLMe4ircDQNE4gqhPf0DhUZxSDLWL1S
l+XLKz+LGPdAkOncWhlj99JoKfbzAOwZH6tZV5baPI8WsGo50cVVrk2NLfdBQpU6
fZHOUyEiX8qg63M6WcYnnd8T
-----END CERTIFICATE-----
