Certificate:
    Data:
        Version: 3 (0x2)
        Serial Number: 4108 (0x100c)
        Signature Algorithm: sha256WithRSAEncryption
        Issuer: C=FR, ST=IDF, L=Paris, O=Local NODE-OPCUA Certificate Authority, CN=NodeOPCUA-CA
        Validity
            Not Before: Oct 10 00:24:20 2020 GMT
            Not After : Oct 10 00:24:20 2021 GMT
        Subject: C=FR, O=NodeOPCUA, CN=NodeOPCUA
        Subject Public Key Info:
            Public Key Algorithm: rsaEncryption
                RSA Public-Key: (3072 bit)
                Modulus:
                    00:e3:ca:25:c7:8a:15:b5:1d:05:1e:5c:89:f4:03:
                    95:39:76:ec:68:ba:64:e8:6b:67:b5:89:d4:29:1f:
                    78:ba:dc:69:df:75:12:3d:2b:56:58:8c:29:9d:07:
                    2c:20:60:33:f0:1d:a8:25:ec:c7:7d:c6:fe:1c:c4:
                    b8:ff:b2:88:23:98:96:5c:4a:ae:64:e6:94:44:31:
                    9c:e1:6d:e0:bd:ed:2e:38:43:f0:d3:f2:87:fd:c3:
                    8b:d2:f6:23:6f:e7:b5:a2:d9:15:80:cd:6e:2a:47:
                    40:48:93:fb:01:b2:29:a6:4d:b5:62:fe:9c:53:f0:
                    27:f6:39:86:83:d4:1b:12:f3:f7:d1:69:bd:49:d1:
                    c8:21:56:1a:28:a6:89:72:f2:f1:f7:d1:57:71:53:
                    42:e4:c0:72:d8:ab:2b:a2:71:a7:23:b8:ce:87:ee:
                    4a:f4:eb:a3:71:d3:46:5c:a5:ca:22:ab:39:3d:9a:
                    16:f5:c5:31:46:82:e1:07:6e:7e:fd:bf:32:f4:ba:
                    8f:7d:07:af:09:48:53:1e:ef:7d:16:ba:1c:ea:7c:
                    69:09:87:5c:44:23:81:9c:de:f4:d7:5e:80:09:14:
                    e2:11:a8:d2:9c:13:e9:ff:73:8b:6c:1e:c8:0a:af:
                    10:32:bc:24:5c:dd:06:b8:b6:c2:b2:2d:f4:e5:45:
                    25:ad:0f:3a:43:5f:90:04:0c:48:33:9a:ae:6f:db:
                    c5:1a:da:b4:5f:48:38:cc:4b:0c:28:4a:2b:c1:a4:
                    41:27:17:b3:c5:24:c2:3b:34:09:0b:d8:9b:aa:04:
                    d2:73:c2:64:37:f1:60:76:aa:65:6d:59:59:d2:5c:
                    9a:a5:1b:cf:7f:7b:1b:ec:4a:d7:04:4e:5d:1e:d8:
                    e3:f3:df:44:14:94:99:67:cd:ab:8b:16:52:7e:19:
                    3a:8f:75:dd:e7:e5:2f:6b:a3:de:74:bd:4b:6f:13:
                    d4:9c:54:5d:40:83:4e:3f:7a:53:a0:4c:ce:0f:84:
                    69:f1:46:0a:c8:2f:3a:80:18:37
                Exponent: 65537 (0x10001)
        X509v3 extensions:
            X509v3 Basic Constraints: critical
                CA:FALSE
            X509v3 Subject Key Identifier: 
                30:CB:14:BC:24:A1:AA:65:90:A6:23:56:C3:D8:E9:D9:67:21:F7:CB
            X509v3 Authority Key Identifier: 
                keyid:A7:15:61:9A:B5:81:C7:F7:D0:76:65:0D:DA:7F:EC:DE:F2:4F:C8:EB
                DirName:/C=FR/ST=IDF/L=Paris/O=Local NODE-OPCUA Certificate Authority/CN=NodeOPCUA-CA
                serial:25:A1:CC:A0:A1:DA:94:52:52:1D:E7:E0:B7:E7:30:D9:7D:F8:10:DD

            X509v3 Subject Alternative Name: 
                URI:urn:bc96d73fb3b6:NodeOPCUA-Client, DNS:bc96d73fb3b6, IP Address:127.0.0.1
            Netscape Comment: 
                OpenSSL Generated Certificate
            X509v3 Key Usage: critical
                Digital Signature, Non Repudiation, Key Encipherment, Data Encipherment, Key Agreement, Certificate Sign
            X509v3 Extended Key Usage: critical
                TLS Web Server Authentication, TLS Web Client Authentication
    Signature Algorithm: sha256WithRSAEncryption
         33:b9:ee:35:3c:d3:2e:e0:2f:85:2c:cb:37:77:f4:9f:c0:42:
         7e:84:dc:fd:db:19:f4:7d:04:e5:f4:c2:7b:46:a4:4b:62:90:
         8e:3a:24:60:2c:64:61:8c:12:ae:ae:cb:a6:d2:77:3a:50:09:
         0e:69:b6:90:1a:6d:98:cd:21:df:f8:4f:cc:b0:de:3e:78:48:
         b1:67:f1:97:3b:92:02:cf:62:e3:06:86:47:2a:8c:99:f8:68:
         03:06:cb:36:c7:d9:7c:23:1c:2b:d1:e8:5d:35:75:47:07:83:
         08:d4:71:aa:0e:a9:e5:04:e3:eb:ef:93:50:9a:f6:1d:84:fe:
         20:dd:09:aa:39:41:0d:c6:4b:ca:2f:e1:1f:1c:34:bb:04:31:
         8d:bd:23:b6:05:b1:98:19:08:bb:c3:b4:46:f0:e9:ac:1a:49:
         aa:a7:76:31:dc:4b:21:95:61:e4:db:d8:6e:47:81:a1:b0:47:
         8f:d1:50:e5:c2:09:4e:03:c9:0c:bb:62:8c:90:45:7d:d1:84:
         93:58:29:9c:9d:9a:bc:d2:5c:90:26:6b:e1:8c:9d:f2:1a:9c:
         05:0c:e1:2a:0e:c4:24:1a:e7:10:f7:bc:13:a9:6f:44:de:5f:
         91:1a:bf:46:1c:06:04:4a:da:30:0b:82:8d:2d:cc:6d:4e:1a:
         ba:4e:38:e1
-----BEGIN CERTIFICATE-----
MIIFLDCCBBSgAwIBAgICEAwwDQYJKoZIhvcNAQELBQAwczELMAkGA1UEBhMCRlIx
DDAKBgNVBAgTA0lERjEOMAwGA1UEBxMFUGFyaXMxLzAtBgNVBAoTJkxvY2FsIE5P
REUtT1BDVUEgQ2VydGlmaWNhdGUgQXV0aG9yaXR5MRUwEwYDVQQDEwxOb2RlT1BD
VUEtQ0EwHhcNMjAxMDEwMDAyNDIwWhcNMjExMDEwMDAyNDIwWjA1MQswCQYDVQQG
EwJGUjESMBAGA1UECgwJTm9kZU9QQ1VBMRIwEAYDVQQDDAlOb2RlT1BDVUEwggGi
MA0GCSqGSIb3DQEBAQUAA4IBjwAwggGKAoIBgQDjyiXHihW1HQUeXIn0A5U5duxo
umToa2e1idQpH3i63GnfdRI9K1ZYjCmdBywgYDPwHagl7Md9xv4cxLj/sogjmJZc
Sq5k5pREMZzhbeC97S44Q/DT8of9w4vS9iNv57Wi2RWAzW4qR0BIk/sBsimmTbVi
/pxT8Cf2OYaD1BsS8/fRab1J0cghVhoopoly8vH30VdxU0LkwHLYqyuicacjuM6H
7kr066Nx00Zcpcoiqzk9mhb1xTFGguEHbn79vzL0uo99B68JSFMe730WuhzqfGkJ
h1xEI4Gc3vTXXoAJFOIRqNKcE+n/c4tsHsgKrxAyvCRc3Qa4tsKyLfTlRSWtDzpD
X5AEDEgzmq5v28Ua2rRfSDjMSwwoSivBpEEnF7PFJMI7NAkL2JuqBNJzwmQ38WB2
qmVtWVnSXJqlG89/exvsStcETl0e2OPz30QUlJlnzauLFlJ+GTqPdd3n5S9ro950
vUtvE9ScVF1Ag04/elOgTM4PhGnxRgrILzqAGDcCAwEAAaOCAYYwggGCMAwGA1Ud
EwEB/wQCMAAwHQYDVR0OBBYEFDDLFLwkoaplkKYjVsPY6dlnIffLMIGwBgNVHSME
gagwgaWAFKcVYZq1gcf30HZlDdp/7N7yT8jroXekdTBzMQswCQYDVQQGEwJGUjEM
MAoGA1UECBMDSURGMQ4wDAYDVQQHEwVQYXJpczEvMC0GA1UEChMmTG9jYWwgTk9E
RS1PUENVQSBDZXJ0aWZpY2F0ZSBBdXRob3JpdHkxFTATBgNVBAMTDE5vZGVPUENV
QS1DQYIUJaHMoKHalFJSHefgt+cw2X34EN0wQAYDVR0RBDkwN4YhdXJuOmJjOTZk
NzNmYjNiNjpOb2RlT1BDVUEtQ2xpZW50ggxiYzk2ZDczZmIzYjaHBH8AAAEwLAYJ
YIZIAYb4QgENBB8WHU9wZW5TU0wgR2VuZXJhdGVkIENlcnRpZmljYXRlMA4GA1Ud
DwEB/wQEAwIC/DAgBgNVHSUBAf8EFjAUBggrBgEFBQcDAQYIKwYBBQUHAwIwDQYJ
KoZIhvcNAQELBQADggEBADO57jU80y7gL4Usyzd39J/AQn6E3P3bGfR9BOX0wntG
pEtikI46JGAsZGGMEq6uy6bSdzpQCQ5ptpAabZjNId/4T8yw3j54SLFn8Zc7kgLP
YuMGhkcqjJn4aAMGyzbH2XwjHCvR6F01dUcHgwjUcaoOqeUE4+vvk1Ca9h2E/iDd
Cao5QQ3GS8ov4R8cNLsEMY29I7YFsZgZCLvDtEbw6awaSaqndjHcSyGVYeTb2G5H
gaGwR4/RUOXCCU4DyQy7YoyQRX3RhJNYKZydmrzSXJAma+GMnfIanAUM4SoOxCQa
5xD3vBOpb0TeX5Eav0YcBgRK2jALgo0tzG1OGrpOOOE=
-----END CERTIFICATE-----
