Certificate:
    Data:
        Version: 3 (0x2)
        Serial Number: 4111 (0x100f)
        Signature Algorithm: sha256WithRSAEncryption
        Issuer: C=FR, ST=IDF, L=Paris, O=Local NODE-OPCUA Certificate Authority, CN=NodeOPCUA-CA
        Validity
            Not Before: Oct  9 00:24:20 2022 GMT
            Not After : Oct  9 00:24:20 2023 GMT
        Subject: C=FR, O=NodeOPCUA, CN=NodeOPCUA
        Subject Public Key Info:
            Public Key Algorithm: rsaEncryption
                RSA Public-Key: (4096 bit)
                Modulus:
                    00:e7:d8:c4:48:74:b6:05:c6:05:90:d8:71:d9:a5:
                    b3:da:fd:3e:b9:eb:c5:3d:73:3d:5c:3b:88:46:aa:
                    e5:c7:9c:d4:02:b2:1f:d5:40:d1:7e:44:9b:63:70:
                    60:8e:9b:82:70:51:85:f8:51:4e:44:67:ea:af:57:
                    55:15:b0:22:4a:9e:47:72:d6:c2:27:d5:03:02:8f:
                    3b:f2:d9:ee:89:25:a0:75:2b:79:cf:5f:71:63:c4:
                    c3:e1:43:8e:89:12:c0:71:e5:61:1b:18:89:c3:35:
                    70:81:95:17:30:0d:59:68:0b:32:63:cf:ce:02:b9:
                    5f:f8:3a:a4:10:95:4b:48:4d:6f:87:c8:12:26:67:
                    81:76:06:b2:d4:81:15:25:dc:d6:10:4e:70:5a:28:
                    53:8e:22:68:65:71:56:11:84:31:ef:eb:69:48:39:
                    e3:de:04:c9:8e:5a:a5:13:06:a0:d3:b3:78:f3:24:
                    96:dd:a1:ed:20:d3:1d:ed:dd:18:05:9b:a7:09:c5:
                    96:b5:c5:cc:7d:b2:b1:40:ec:d8:44:d8:ad:c6:e8:
                    71:75:8d:35:60:a9:ac:a7:23:04:ae:05:73:28:27:
                    57:11:a8:62:ed:21:dc:2b:b1:28:66:83:09:24:5a:
                    49:08:64:8c:10:98:14:fc:ed:45:7e:9a:87:b9:1f:
                    ce:2e:0e:17:bc:57:6e:3d:99:c9:03:e8:ea:63:fc:
                    9a:0e:84:b2:bb:82:1a:9b:77:a1:43:8d:0c:77:31:
                    c8:af:e1:c0:75:af:1d:01:4b:ae:d5:a0:21:f3:96:
                    0c:ee:fd:1a:b4:8e:e6:0d:8f:0e:25:dc:b6:4f:58:
                    f2:2c:61:80:6f:64:9a:3b:30:14:16:c0:7b:e3:89:
                    c1:66:54:d7:ac:c9:ca:36:b2:01:1f:3a:68:73:60:
                    fa:5d:2d:f5:4e:ea:26:0d:73:79:67:ab:0f:e3:c2:
                    ba:40:a0:cb:30:9c:1e:a6:48:3c:17:30:72:de:dd:
                    ea:f6:e7:3b:63:62:df:e5:79:fb:dc:bd:c2:0e:30:
                    40:e5:dd:1c:0f:74:dd:ec:ff:a4:f5:ac:77:2a:85:
                    1a:2e:05:f2:86:70:2a:a3:6a:2d:43:c7:8f:54:c0:
                    81:bf:ae:2d:a6:48:8f:f7:f4:ce:cf:00:db:56:9b:
                    af:44:8e:61:9b:f8:03:f4:4e:7b:dd:19:e9:e0:38:
                    a7:b5:97:7f:a7:a7:62:31:c9:2f:8d:7f:b4:54:05:
                    51:7b:5e:30:18:4c:19:49:eb:43:0c:e4:bd:dc:25:
                    25:9b:f2:72:e8:37:58:7c:24:45:1c:45:3c:85:8c:
                    06:fc:57:f7:87:79:58:01:1f:04:82:20:ad:89:50:
                    fc:d5:4d
                Exponent: 65537 (0x10001)
        X509v3 extensions:
            X509v3 Basic Constraints: critical
                CA:FALSE
            X509v3 Subject Key Identifier: 
                F0:61:72:79:72:FA:2B:11:FF:46:9E:D2:65:1F:90:EF:50:F1:15:8E
            X509v3 Authority Key Identifier: 
                keyid:A7:15:61:9A:B5:81:C7:F7:D0:76:65:0D:DA:7F:EC:DE:F2:4F:C8:EB
                DirName:/C=FR/ST=IDF/L=Paris/O=Local NODE-OPCUA Certificate Authority/CN=NodeOPCUA-CA
                serial:25:A1:CC:A0:A1:DA:94:52:52:1D:E7:E0:B7:E7:30:D9:7D:F8:10:DD

            X509v3 Subject Alternative Name: 
                URI:urn:bc96d73fb3b6:NodeOPCUA-Client, DNS:bc96d73fb3b6, IP Address:127.0.0.1
            Netscape Comment: 
                OpenSSL Generated Certificate
            X509v3 Key Usage: critical
                Digital Signature, Non Repudiation, Key Encipherment, Data Encipherment, Key Agreement, Certificate Sign
            X509v3 Extended Key Usage: critical
                TLS Web Server Authentication, TLS Web Client Authentication
    Signature Algorithm: sha256WithRSAEncryption
         6b:2b:7e:ed:79:61:3c:ad:af:4e:61:d7:3f:ba:96:c0:3c:3f:
         a6:68:0d:9a:9d:ea:8b:b7:d4:7c:e6:61:f9:12:c0:06:e4:57:
         88:3c:00:42:22:c5:62:ea:10:f8:b9:4a:f2:a2:6a:3e:da:ca:
         e6:e4:54:89:93:3d:fc:9a:5c:76:cc:43:0c:62:e0:8a:5d:a5:
         3b:50:11:10:15:e6:9d:d6:3d:62:37:1d:9c:53:84:f7:6a:ad:
         fa:1c:a7:90:87:45:a2:1b:11:e3:5f:4f:a4:35:33:a8:02:5e:
         14:86:19:39:ca:44:92:f0:08:46:a0:7a:d2:98:62:bf:cc:ab:
         6f:a5:59:22:c5:d0:5a:77:26:95:79:48:2e:31:15:7f:c0:3d:
         15:21:39:48:48:4d:7b:cf:be:a4:68:bf:8a:35:48:32:a4:4f:
         fc:c4:5d:3f:1f:bb:a4:ba:87:7b:c1:e3:22:83:cd:4d:4a:75:
         fb:48:d5:2a:0c:c1:3b:00:c8:a4:86:71:bb:ec:44:cd:43:0e:
         c2:44:4b:58:dc:e2:1b:1a:e6:57:de:74:57:b6:7a:ab:4d:6f:
         60:7d:7b:a3:09:15:6c:49:06:8e:98:3a:28:20:3f:57:82:70:
         80:76:86:91:e8:f3:e3:f2:67:12:13:8e:12:e9:4d:8e:dd:02:
         3a:6b:f0:a5
-----BEGIN CERTIFICATE-----
MIIFrDCCBJSgAwIBAgICEA8wDQYJKoZIhvcNAQELBQAwczELMAkGA1UEBhMCRlIx
DDAKBgNVBAgTA0lERjEOMAwGA1UEBxMFUGFyaXMxLzAtBgNVBAoTJkxvY2FsIE5P
REUtT1BDVUEgQ2VydGlmaWNhdGUgQXV0aG9yaXR5MRUwEwYDVQQDEwxOb2RlT1BD
VUEtQ0EwHhcNMjIxMDA5MDAyNDIwWhcNMjMxMDA5MDAyNDIwWjA1MQswCQYDVQQG
EwJGUjESMBAGA1UECgwJTm9kZU9QQ1VBMRIwEAYDVQQDDAlOb2RlT1BDVUEwggIi
MA0GCSqGSIb3DQEBAQUAA4ICDwAwggIKAoICAQDn2MRIdLYFxgWQ2HHZpbPa/T65
68U9cz1cO4hGquXHnNQCsh/VQNF+RJtjcGCOm4JwUYX4UU5EZ+qvV1UVsCJKnkdy
1sIn1QMCjzvy2e6JJaB1K3nPX3FjxMPhQ46JEsBx5WEbGInDNXCBlRcwDVloCzJj
z84CuV/4OqQQlUtITW+HyBImZ4F2BrLUgRUl3NYQTnBaKFOOImhlcVYRhDHv62lI
OePeBMmOWqUTBqDTs3jzJJbdoe0g0x3t3RgFm6cJxZa1xcx9srFA7NhE2K3G6HF1
jTVgqaynIwSuBXMoJ1cRqGLtIdwrsShmgwkkWkkIZIwQmBT87UV+moe5H84uDhe8
V249mckD6Opj/JoOhLK7ghqbd6FDjQx3Mciv4cB1rx0BS67VoCHzlgzu/Rq0juYN
jw4l3LZPWPIsYYBvZJo7MBQWwHvjicFmVNesyco2sgEfOmhzYPpdLfVO6iYNc3ln
qw/jwrpAoMswnB6mSDwXMHLe3er25ztjYt/lefvcvcIOMEDl3RwPdN3s/6T1rHcq
hRouBfKGcCqjai1Dx49UwIG/ri2mSI/39M7PANtWm69EjmGb+AP0TnvdGengOKe1
l3+np2IxyS+Nf7RUBVF7XjAYTBlJ60MM5L3cJSWb8nLoN1h8JEUcRTyFjAb8V/eH
eVgBHwSCIK2JUPzVTQIDAQABo4IBhjCCAYIwDAYDVR0TAQH/BAIwADAdBgNVHQ4E
FgQU8GFyeXL6KxH/Rp7SZR+Q71DxFY4wgbAGA1UdIwSBqDCBpYAUpxVhmrWBx/fQ
dmUN2n/s3vJPyOuhd6R1MHMxCzAJBgNVBAYTAkZSMQwwCgYDVQQIEwNJREYxDjAM
BgNVBAcTBVBhcmlzMS8wLQYDVQQKEyZMb2NhbCBOT0RFLU9QQ1VBIENlcnRpZmlj
YXRlIEF1dGhvcml0eTEVMBMGA1UEAxMMTm9kZU9QQ1VBLUNBghQlocygodqUUlId
5+C35zDZffgQ3TBABgNVHREEOTA3hiF1cm46YmM5NmQ3M2ZiM2I2Ok5vZGVPUENV
QS1DbGllbnSCDGJjOTZkNzNmYjNiNocEfwAAATAsBglghkgBhvhCAQ0EHxYdT3Bl
blNTTCBHZW5lcmF0ZWQgQ2VydGlmaWNhdGUwDgYDVR0PAQH/BAQDAgL8MCAGA1Ud
JQEB/wQWMBQGCCsGAQUFBwMBBggrBgEFBQcDAjANBgkqhkiG9w0BAQsFAAOCAQEA
ayt+7XlhPK2vTmHXP7qWwDw/pmgNmp3qi7fUfOZh+RLABuRXiDwAQiLFYuoQ+LlK
8qJqPtrK5uRUiZM9/JpcdsxDDGLgil2lO1AREBXmndY9YjcdnFOE92qt+hynkIdF
ohsR419PpDUzqAJeFIYZOcpEkvAIRqB60phiv8yrb6VZIsXQWncmlXlILjEVf8A9
FSE5SEhNe8++pGi/ijVIMqRP/MRdPx+7pLqHe8HjIoPNTUp1+0jVKgzBOwDIpIZx
u+xEzUMOwkRLWNziGxrmV950V7Z6q01vYH17owkVbEkGjpg6KCA/V4JwgHaGkejz
4/JnEhOOEulNjt0COmvwpQ==
-----END CERTIFICATE-----
