Certificate:
    Data:
        Version: 3 (0x2)
        Serial Number: 4114 (0x1012)
        Signature Algorithm: sha256WithRSAEncryption
        Issuer: C=FR, ST=IDF, L=Paris, O=Local NODE-OPCUA Certificate Authority, CN=NodeOPCUA-CA
        Validity
            Not Before: Oct 10 00:24:20 2023 GMT
            Not After : Oct  9 00:24:20 2024 GMT
        Subject: C=FR, O=NodeOPCUA, CN=NodeOPCUA
        Subject Public Key Info:
            Public Key Algorithm: rsaEncryption
                RSA Public-Key: (4096 bit)
                Modulus:
                    00:e7:d8:c4:48:74:b6:05:c6:05:90:d8:71:d9:a5:
                    b3:da:fd:3e:b9:eb:c5:3d:73:3d:5c:3b:88:46:aa:
                    e5:c7:9c:d4:02:b2:1f:d5:40:d1:7e:44:9b:63:70:
                    60:8e:9b:82:70:51:85:f8:51:4e:44:67:ea:af:57:
                    55:15:b0:22:4a:9e:47:72:d6:c2:27:d5:03:02:8f:
                    3b:f2:d9:ee:89:25:a0:75:2b:79:cf:5f:71:63:c4:
                    c3:e1:43:8e:89:12:c0:71:e5:61:1b:18:89:c3:35:
                    70:81:95:17:30:0d:59:68:0b:32:63:cf:ce:02:b9:
                    5f:f8:3a:a4:10:95:4b:48:4d:6f:87:c8:12:26:67:
                    81:76:06:b2:d4:81:15:25:dc:d6:10:4e:70:5a:28:
                    53:8e:22:68:65:71:56:11:84:31:ef:eb:69:48:39:
                    e3:de:04:c9:8e:5a:a5:13:06:a0:d3:b3:78:f3:24:
                    96:dd:a1:ed:20:d3:1d:ed:dd:18:05:9b:a7:09:c5:
                    96:b5:c5:cc:7d:b2:b1:40:ec:d8:44:d8:ad:c6:e8:
                    71:75:8d:35:60:a9:ac:a7:23:04:ae:05:73:28:27:
                    57:11:a8:62:ed:21:dc:2b:b1:28:66:83:09:24:5a:
                    49:08:64:8c:10:98:14:fc:ed:45:7e:9a:87:b9:1f:
                    ce:2e:0e:17:bc:57:6e:3d:99:c9:03:e8:ea:63:fc:
                    9a:0e:84:b2:bb:82:1a:9b:77:a1:43:8d:0c:77:31:
                    c8:af:e1:c0:75:af:1d:01:4b:ae:d5:a0:21:f3:96:
                    0c:ee:fd:1a:b4:8e:e6:0d:8f:0e:25:dc:b6:4f:58:
                    f2:2c:61:80:6f:64:9a:3b:30:14:16:c0:7b:e3:89:
                    c1:66:54:d7:ac:c9:ca:36:b2:01:1f:3a:68:73:60:
                    fa:5d:2d:f5:4e:ea:26:0d:73:79:67:ab:0f:e3:c2:
                    ba:40:a0:cb:30:9c:1e:a6:48:3c:17:30:72:de:dd:
                    ea:f6:e7:3b:63:62:df:e5:79:fb:dc:bd:c2:0e:30:
                    40:e5:dd:1c:0f:74:dd:ec:ff:a4:f5:ac:77:2a:85:
                    1a:2e:05:f2:86:70:2a:a3:6a:2d:43:c7:8f:54:c0:
                    81:bf:ae:2d:a6:48:8f:f7:f4:ce:cf:00:db:56:9b:
                    af:44:8e:61:9b:f8:03:f4:4e:7b:dd:19:e9:e0:38:
                    a7:b5:97:7f:a7:a7:62:31:c9:2f:8d:7f:b4:54:05:
                    51:7b:5e:30:18:4c:19:49:eb:43:0c:e4:bd:dc:25:
                    25:9b:f2:72:e8:37:58:7c:24:45:1c:45:3c:85:8c:
                    06:fc:57:f7:87:79:58:01:1f:04:82:20:ad:89:50:
                    fc:d5:4d
                Exponent: 65537 (0x10001)
        X509v3 extensions:
            X509v3 Basic Constraints: critical
                CA:FALSE
            X509v3 Subject Key Identifier: 
                F0:61:72:79:72:FA:2B:11:FF:46:9E:D2:65:1F:90:EF:50:F1:15:8E
            X509v3 Authority Key Identifier: 
                keyid:A7:15:61:9A:B5:81:C7:F7:D0:76:65:0D:DA:7F:EC:DE:F2:4F:C8:EB
                DirName:/C=FR/ST=IDF/L=Paris/O=Local NODE-OPCUA Certificate Authority/CN=NodeOPCUA-CA
                serial:25:A1:CC:A0:A1:DA:94:52:52:1D:E7:E0:B7:E7:30:D9:7D:F8:10:DD

            X509v3 Subject Alternative Name: 
                URI:urn:bc96d73fb3b6:NodeOPCUA-Client, DNS:bc96d73fb3b6, IP Address:127.0.0.1
            Netscape Comment: 
                OpenSSL Generated Certificate
            X509v3 Key Usage: critical
                Digital Signature, Non Repudiation, Key Encipherment, Data Encipherment, Key Agreement, Certificate Sign
            X509v3 Extended Key Usage: critical
                TLS Web Server Authentication, TLS Web Client Authentication
    Signature Algorithm: sha256WithRSAEncryption
         14:22:4a:9e:d3:3b:09:ca:2a:85:92:03:d4:39:31:9e:42:59:
         cc:98:44:0a:ab:69:33:52:cc:be:c6:97:bc:da:9d:c4:16:dd:
         41:88:31:9a:b9:e3:be:70:77:2d:5e:4a:78:1b:7e:a7:c6:0e:
         66:78:6b:2f:1d:99:10:8c:b5:b9:02:e2:87:bb:9c:8a:59:12:
         06:64:c0:22:2c:40:37:15:b6:e4:ae:cb:f9:0a:19:24:75:9c:
         c6:3c:ed:a2:b3:c3:7a:4d:7f:26:2c:bf:7c:07:f2:cd:2b:4a:
         d5:79:12:50:41:83:d1:56:6b:54:d2:db:cc:8a:32:cc:ec:98:
         9d:ef:6d:00:3a:8b:2e:f6:30:b6:2c:a2:39:3a:c3:83:6f:8f:
         e1:8c:65:a0:60:d7:d8:91:5f:18:76:e9:a3:30:9c:e8:27:a7:
         ee:a8:71:2e:5b:d2:bc:4b:1b:79:27:2d:a2:50:80:51:3d:82:
         6c:6b:2c:af:83:f1:8e:18:d9:76:6e:2e:fb:d6:39:e7:35:a2:
         67:3d:dd:85:18:74:bd:8a:89:0d:12:17:ca:25:7d:86:45:7e:
         1a:72:6d:59:cf:77:b5:69:ac:b9:d7:5b:b7:6d:d2:09:cd:e1:
         b7:06:cf:3b:4d:9f:ef:cc:df:7a:7a:0f:a3:07:91:ad:78:02:
         ad:5b:2a:02
-----BEGIN CERTIFICATE-----
MIIFrDCCBJSgAwIBAgICEBIwDQYJKoZIhvcNAQELBQAwczELMAkGA1UEBhMCRlIx
DDAKBgNVBAgTA0lERjEOMAwGA1UEBxMFUGFyaXMxLzAtBgNVBAoTJkxvY2FsIE5P
REUtT1BDVUEgQ2VydGlmaWNhdGUgQXV0aG9yaXR5MRUwEwYDVQQDEwxOb2RlT1BD
VUEtQ0EwHhcNMjMxMDEwMDAyNDIwWhcNMjQxMDA5MDAyNDIwWjA1MQswCQYDVQQG
EwJGUjESMBAGA1UECgwJTm9kZU9QQ1VBMRIwEAYDVQQDDAlOb2RlT1BDVUEwggIi
MA0GCSqGSIb3DQEBAQUAA4ICDwAwggIKAoICAQDn2MRIdLYFxgWQ2HHZpbPa/T65
68U9cz1cO4hGquXHnNQCsh/VQNF+RJtjcGCOm4JwUYX4UU5EZ+qvV1UVsCJKnkdy
1sIn1QMCjzvy2e6JJaB1K3nPX3FjxMPhQ46JEsBx5WEbGInDNXCBlRcwDVloCzJj
z84CuV/4OqQQlUtITW+HyBImZ4F2BrLUgRUl3NYQTnBaKFOOImhlcVYRhDHv62lI
OePeBMmOWqUTBqDTs3jzJJbdoe0g0x3t3RgFm6cJxZa1xcx9srFA7NhE2K3G6HF1
jTVgqaynIwSuBXMoJ1cRqGLtIdwrsShmgwkkWkkIZIwQmBT87UV+moe5H84uDhe8
V249mckD6Opj/JoOhLK7ghqbd6FDjQx3Mciv4cB1rx0BS67VoCHzlgzu/Rq0juYN
jw4l3LZPWPIsYYBvZJo7MBQWwHvjicFmVNesyco2sgEfOmhzYPpdLfVO6iYNc3ln
qw/jwrpAoMswnB6mSDwXMHLe3er25ztjYt/lefvcvcIOMEDl3RwPdN3s/6T1rHcq
hRouBfKGcCqjai1Dx49UwIG/ri2mSI/39M7PANtWm69EjmGb+AP0TnvdGengOKe1
l3+np2IxyS+Nf7RUBVF7XjAYTBlJ60MM5L3cJSWb8nLoN1h8JEUcRTyFjAb8V/eH
eVgBHwSCIK2JUPzVTQIDAQABo4IBhjCCAYIwDAYDVR0TAQH/BAIwADAdBgNVHQ4E
FgQU8GFyeXL6KxH/Rp7SZR+Q71DxFY4wgbAGA1UdIwSBqDCBpYAUpxVhmrWBx/fQ
dmUN2n/s3vJPyOuhd6R1MHMxCzAJBgNVBAYTAkZSMQwwCgYDVQQIEwNJREYxDjAM
BgNVBAcTBVBhcmlzMS8wLQYDVQQKEyZMb2NhbCBOT0RFLU9QQ1VBIENlcnRpZmlj
YXRlIEF1dGhvcml0eTEVMBMGA1UEAxMMTm9kZU9QQ1VBLUNBghQlocygodqUUlId
5+C35zDZffgQ3TBABgNVHREEOTA3hiF1cm46YmM5NmQ3M2ZiM2I2Ok5vZGVPUENV
QS1DbGllbnSCDGJjOTZkNzNmYjNiNocEfwAAATAsBglghkgBhvhCAQ0EHxYdT3Bl
blNTTCBHZW5lcmF0ZWQgQ2VydGlmaWNhdGUwDgYDVR0PAQH/BAQDAgL8MCAGA1Ud
JQEB/wQWMBQGCCsGAQUFBwMBBggrBgEFBQcDAjANBgkqhkiG9w0BAQsFAAOCAQEA
FCJKntM7CcoqhZID1DkxnkJZzJhECqtpM1LMvsaXvNqdxBbdQYgxmrnjvnB3LV5K
eBt+p8YOZnhrLx2ZEIy1uQLih7ucilkSBmTAIixANxW25K7L+QoZJHWcxjztorPD
ek1/Jiy/fAfyzStK1XkSUEGD0VZrVNLbzIoyzOyYne9tADqLLvYwtiyiOTrDg2+P
4YxloGDX2JFfGHbpozCc6Cen7qhxLlvSvEsbeSctolCAUT2CbGssr4PxjhjZdm4u
+9Y55zWiZz3dhRh0vYqJDRIXyiV9hkV+GnJtWc93tWmsuddbt23SCc3htwbPO02f
78zfenoPoweRrXgCrVsqAg==
-----END CERTIFICATE-----
