Certificate:
    Data:
        Version: 3 (0x2)
        Serial Number: 4116 (0x1014)
        Signature Algorithm: sha256WithRSAEncryption
        Issuer: C=FR, ST=IDF, L=Paris, O=Local NODE-OPCUA Certificate Authority, CN=NodeOPCUA-CA
        Validity
            Not Before: Oct  9 00:24:20 2022 GMT
            Not After : Oct  9 00:24:20 2023 GMT
        Subject: C=FR, O=NodeOPCUA, CN=NodeOPCUA
        Subject Public Key Info:
            Public Key Algorithm: rsaEncryption
                RSA Public-Key: (1024 bit)
                Modulus:
                    00:dc:6b:53:ca:df:41:64:62:f1:c7:83:e9:3d:53:
                    0a:eb:dd:44:54:90:35:33:6d:a6:df:2b:60:a0:42:
                    6e:da:e2:50:f2:ce:b6:a1:36:9b:7f:f2:8e:21:7e:
                    01:c1:2d:30:3a:f8:e4:53:fb:34:64:bf:ea:bf:73:
                    cb:88:25:4e:08:8d:60:1c:d5:cd:3d:d0:56:b3:53:
                    5b:a9:79:9c:30:89:a0:92:ac:ac:12:6e:a9:bf:87:
                    be:a7:30:d1:9f:b4:48:46:8b:3e:a5:8b:37:54:a0:
                    fa:87:6c:db:59:13:f3:bf:6a:cb:d9:ae:da:67:01:
                    c5:f3:07:2d:0a:90:1b:20:e1
                Exponent: 65537 (0x10001)
        X509v3 extensions:
            X509v3 Basic Constraints: critical
                CA:FALSE
            X509v3 Subject Key Identifier: 
                8A:B4:81:BC:9E:4A:1E:9B:0A:DE:A6:A0:EE:9E:1C:FD:F8:28:C2:84
            X509v3 Authority Key Identifier: 
                keyid:A7:15:61:9A:B5:81:C7:F7:D0:76:65:0D:DA:7F:EC:DE:F2:4F:C8:EB
                DirName:/C=FR/ST=IDF/L=Paris/O=Local NODE-OPCUA Certificate Authority/CN=NodeOPCUA-CA
                serial:25:A1:CC:A0:A1:DA:94:52:52:1D:E7:E0:B7:E7:30:D9:7D:F8:10:DD

            X509v3 Subject Alternative Name: 
                URI:urn:bc96d73fb3b6:NodeOPCUA-Server, DNS:bc96d73fb3b6, IP Address:127.0.0.1
            Netscape Comment: 
                OpenSSL Generated Certificate
            X509v3 Key Usage: critical
                Digital Signature, Non Repudiation, Key Encipherment, Data Encipherment, Key Agreement, Certificate Sign
            X509v3 Extended Key Usage: critical
                TLS Web Server Authentication, TLS Web Client Authentication
    Signature Algorithm: sha256WithRSAEncryption
         49:ee:15:40:53:a7:31:22:55:8b:b5:82:b2:f3:16:20:0b:0d:
         ef:48:b2:cf:50:0c:b4:48:7f:9a:d5:4c:05:5d:57:0b:4b:22:
         22:6d:08:4a:44:ba:61:51:c5:d5:13:d0:7b:36:f9:c3:3d:0d:
         1f:6c:80:17:3a:7c:67:79:cc:32:14:f7:1b:fb:02:e3:47:f1:
         5b:d8:9d:cb:22:e4:de:98:25:09:90:5e:ce:51:71:41:85:bf:
         75:85:af:a1:9d:ed:77:9f:49:94:fb:d7:28:eb:dd:fe:e5:7d:
         68:65:8a:dc:45:28:fa:83:6a:cb:68:a6:49:ab:50:e7:49:1a:
         98:37:2b:b5:be:b8:a1:89:b8:3c:76:b9:37:d5:e9:70:09:71:
         21:19:c2:61:09:53:cf:ca:e5:a0:ef:86:11:55:cf:44:1f:d7:
         d6:62:cb:89:f3:62:3c:a7:5f:da:a6:78:c7:2c:e2:64:46:fe:
         ad:b5:63:62:b9:26:87:15:16:63:2d:b4:5a:9b:77:4e:18:94:
         19:0c:90:9c:90:a1:df:1e:53:50:5f:be:f9:34:f4:1a:4f:bf:
         28:ae:d9:56:5c:8d:df:c2:8c:a0:7a:b8:4b:f5:99:e2:c5:85:
         3f:1d:d0:55:f2:7a:b8:42:00:22:f5:1b:12:47:bc:f1:02:d2:
         57:ea:97:34
-----BEGIN CERTIFICATE-----
MIIEKDCCAxCgAwIBAgICEBQwDQYJKoZIhvcNAQELBQAwczELMAkGA1UEBhMCRlIx
DDAKBgNVBAgTA0lERjEOMAwGA1UEBxMFUGFyaXMxLzAtBgNVBAoTJkxvY2FsIE5P
REUtT1BDVUEgQ2VydGlmaWNhdGUgQXV0aG9yaXR5MRUwEwYDVQQDEwxOb2RlT1BD
VUEtQ0EwHhcNMjIxMDA5MDAyNDIwWhcNMjMxMDA5MDAyNDIwWjA1MQswCQYDVQQG
EwJGUjESMBAGA1UECgwJTm9kZU9QQ1VBMRIwEAYDVQQDDAlOb2RlT1BDVUEwgZ8w
DQYJKoZIhvcNAQEBBQADgY0AMIGJAoGBANxrU8rfQWRi8ceD6T1TCuvdRFSQNTNt
pt8rYKBCbtriUPLOtqE2m3/yjiF+AcEtMDr45FP7NGS/6r9zy4glTgiNYBzVzT3Q
VrNTW6l5nDCJoJKsrBJuqb+Hvqcw0Z+0SEaLPqWLN1Sg+ods21kT879qy9mu2mcB
xfMHLQqQGyDhAgMBAAGjggGGMIIBgjAMBgNVHRMBAf8EAjAAMB0GA1UdDgQWBBSK
tIG8nkoemwrepqDunhz9+CjChDCBsAYDVR0jBIGoMIGlgBSnFWGatYHH99B2ZQ3a
f+ze8k/I66F3pHUwczELMAkGA1UEBhMCRlIxDDAKBgNVBAgTA0lERjEOMAwGA1UE
BxMFUGFyaXMxLzAtBgNVBAoTJkxvY2FsIE5PREUtT1BDVUEgQ2VydGlmaWNhdGUg
QXV0aG9yaXR5MRUwEwYDVQQDEwxOb2RlT1BDVUEtQ0GCFCWhzKCh2pRSUh3n4Lfn
MNl9+BDdMEAGA1UdEQQ5MDeGIXVybjpiYzk2ZDczZmIzYjY6Tm9kZU9QQ1VBLVNl
cnZlcoIMYmM5NmQ3M2ZiM2I2hwR/AAABMCwGCWCGSAGG+EIBDQQfFh1PcGVuU1NM
IEdlbmVyYXRlZCBDZXJ0aWZpY2F0ZTAOBgNVHQ8BAf8EBAMCAvwwIAYDVR0lAQH/
BBYwFAYIKwYBBQUHAwEGCCsGAQUFBwMCMA0GCSqGSIb3DQEBCwUAA4IBAQBJ7hVA
U6cxIlWLtYKy8xYgCw3vSLLPUAy0SH+a1UwFXVcLSyIibQhKRLphUcXVE9B7NvnD
PQ0fbIAXOnxnecwyFPcb+wLjR/Fb2J3LIuTemCUJkF7OUXFBhb91ha+hne13n0mU
+9co693+5X1oZYrcRSj6g2rLaKZJq1DnSRqYNyu1vrihibg8drk31elwCXEhGcJh
CVPPyuWg74YRVc9EH9fWYsuJ82I8p1/apnjHLOJkRv6ttWNiuSaHFRZjLbRam3dO
GJQZDJCckKHfHlNQX775NPQaT78ortlWXI3fwoygerhL9ZnixYU/HdBV8nq4QgAi
9RsSR7zxAtJX6pc0
-----END CERTIFICATE-----
