Certificate:
    Data:
        Version: 3 (0x2)
        Serial Number: 4118 (0x1016)
        Signature Algorithm: sha256WithRSAEncryption
        Issuer: C=FR, ST=IDF, L=Paris, O=Local NODE-OPCUA Certificate Authority, CN=NodeOPCUA-CA
        Validity
            Not Before: Oct 10 00:24:20 2020 GMT
            Not After : Oct 10 00:24:20 2021 GMT
        Subject: C=FR, O=NodeOPCUA, CN=NodeOPCUA
        Subject Public Key Info:
            Public Key Algorithm: rsaEncryption
                RSA Public-Key: (1024 bit)
                Modulus:
                    00:dc:6b:53:ca:df:41:64:62:f1:c7:83:e9:3d:53:
                    0a:eb:dd:44:54:90:35:33:6d:a6:df:2b:60:a0:42:
                    6e:da:e2:50:f2:ce:b6:a1:36:9b:7f:f2:8e:21:7e:
                    01:c1:2d:30:3a:f8:e4:53:fb:34:64:bf:ea:bf:73:
                    cb:88:25:4e:08:8d:60:1c:d5:cd:3d:d0:56:b3:53:
                    5b:a9:79:9c:30:89:a0:92:ac:ac:12:6e:a9:bf:87:
                    be:a7:30:d1:9f:b4:48:46:8b:3e:a5:8b:37:54:a0:
                    fa:87:6c:db:59:13:f3:bf:6a:cb:d9:ae:da:67:01:
                    c5:f3:07:2d:0a:90:1b:20:e1
                Exponent: 65537 (0x10001)
        X509v3 extensions:
            X509v3 Basic Constraints: critical
                CA:FALSE
            X509v3 Subject Key Identifier: 
                8A:B4:81:BC:9E:4A:1E:9B:0A:DE:A6:A0:EE:9E:1C:FD:F8:28:C2:84
            X509v3 Authority Key Identifier: 
                keyid:A7:15:61:9A:B5:81:C7:F7:D0:76:65:0D:DA:7F:EC:DE:F2:4F:C8:EB
                DirName:/C=FR/ST=IDF/L=Paris/O=Local NODE-OPCUA Certificate Authority/CN=NodeOPCUA-CA
                serial:25:A1:CC:A0:A1:DA:94:52:52:1D:E7:E0:B7:E7:30:D9:7D:F8:10:DD

            X509v3 Subject Alternative Name: 
                URI:urn:bc96d73fb3b6:NodeOPCUA-Server, DNS:bc96d73fb3b6, IP Address:127.0.0.1
            Netscape Comment: 
                OpenSSL Generated Certificate
            X509v3 Key Usage: critical
                Digital Signature, Non Repudiation, Key Encipherment, Data Encipherment, Key Agreement, Certificate Sign
            X509v3 Extended Key Usage: critical
                TLS Web Server Authentication, TLS Web Client Authentication
    Signature Algorithm: sha256WithRSAEncryption
         ac:ee:78:32:9e:00:81:27:16:b9:44:1f:a0:6f:54:1a:82:38:
         ef:2a:44:1b:f8:96:f9:13:b9:6c:59:60:86:b8:0f:76:e2:d4:
         f8:fe:fd:6a:9b:20:27:41:65:da:89:0b:57:37:a8:81:3d:4a:
         a0:ce:9e:8d:74:52:b7:c3:da:c6:5a:7e:1e:01:26:8f:82:69:
         6b:14:f4:67:bd:d1:5e:b9:06:de:4f:af:73:7f:68:03:27:36:
         ed:01:56:32:e7:52:d6:d3:43:2b:1c:99:73:e4:9e:e1:1e:ea:
         48:1d:6b:a9:be:59:44:a6:30:50:a8:b3:6f:a9:0d:9c:65:07:
         ac:41:31:5c:91:ac:09:79:af:60:39:d0:3a:3b:cb:f6:0c:61:
         91:34:20:74:f6:94:3c:f9:29:a4:34:80:c7:7b:ec:10:31:74:
         97:db:cf:9d:c9:4d:e2:ce:77:48:96:a5:f3:40:8c:9d:f9:05:
         6e:38:6a:e9:a7:73:64:92:11:aa:89:d9:d1:41:38:4f:f2:1a:
         9e:6a:9d:58:52:19:20:16:14:9c:dc:2c:08:98:a5:19:ba:2c:
         1f:7f:ff:41:45:8f:f7:8a:c0:af:8c:3f:bf:5f:d9:36:93:9b:
         8e:6e:e4:55:a2:6c:05:ba:e8:99:fb:95:a0:a4:0e:a4:37:e0:
         4c:09:a3:1f
-----BEGIN CERTIFICATE-----
MIIEKDCCAxCgAwIBAgICEBYwDQYJKoZIhvcNAQELBQAwczELMAkGA1UEBhMCRlIx
DDAKBgNVBAgTA0lERjEOMAwGA1UEBxMFUGFyaXMxLzAtBgNVBAoTJkxvY2FsIE5P
REUtT1BDVUEgQ2VydGlmaWNhdGUgQXV0aG9yaXR5MRUwEwYDVQQDEwxOb2RlT1BD
VUEtQ0EwHhcNMjAxMDEwMDAyNDIwWhcNMjExMDEwMDAyNDIwWjA1MQswCQYDVQQG
EwJGUjESMBAGA1UECgwJTm9kZU9QQ1VBMRIwEAYDVQQDDAlOb2RlT1BDVUEwgZ8w
DQYJKoZIhvcNAQEBBQADgY0AMIGJAoGBANxrU8rfQWRi8ceD6T1TCuvdRFSQNTNt
pt8rYKBCbtriUPLOtqE2m3/yjiF+AcEtMDr45FP7NGS/6r9zy4glTgiNYBzVzT3Q
VrNTW6l5nDCJoJKsrBJuqb+Hvqcw0Z+0SEaLPqWLN1Sg+ods21kT879qy9mu2mcB
xfMHLQqQGyDhAgMBAAGjggGGMIIBgjAMBgNVHRMBAf8EAjAAMB0GA1UdDgQWBBSK
tIG8nkoemwrepqDunhz9+CjChDCBsAYDVR0jBIGoMIGlgBSnFWGatYHH99B2ZQ3a
f+ze8k/I66F3pHUwczELMAkGA1UEBhMCRlIxDDAKBgNVBAgTA0lERjEOMAwGA1UE
BxMFUGFyaXMxLzAtBgNVBAoTJkxvY2FsIE5PREUtT1BDVUEgQ2VydGlmaWNhdGUg
QXV0aG9yaXR5MRUwEwYDVQQDEwxOb2RlT1BDVUEtQ0GCFCWhzKCh2pRSUh3n4Lfn
MNl9+BDdMEAGA1UdEQQ5MDeGIXVybjpiYzk2ZDczZmIzYjY6Tm9kZU9QQ1VBLVNl
cnZlcoIMYmM5NmQ3M2ZiM2I2hwR/AAABMCwGCWCGSAGG+EIBDQQfFh1PcGVuU1NM
IEdlbmVyYXRlZCBDZXJ0aWZpY2F0ZTAOBgNVHQ8BAf8EBAMCAvwwIAYDVR0lAQH/
BBYwFAYIKwYBBQUHAwEGCCsGAQUFBwMCMA0GCSqGSIb3DQEBCwUAA4IBAQCs7ngy
ngCBJxa5RB+gb1QagjjvKkQb+Jb5E7lsWWCGuA924tT4/v1qmyAnQWXaiQtXN6iB
PUqgzp6NdFK3w9rGWn4eASaPgmlrFPRnvdFeuQbeT69zf2gDJzbtAVYy51LW00Mr
HJlz5J7hHupIHWupvllEpjBQqLNvqQ2cZQesQTFckawJea9gOdA6O8v2DGGRNCB0
9pQ8+SmkNIDHe+wQMXSX28+dyU3izndIlqXzQIyd+QVuOGrpp3NkkhGqidnRQThP
8hqeap1YUhkgFhSc3CwImKUZuiwff/9BRY/3isCvjD+/X9k2k5uObuRVomwFuuiZ
+5WgpA6kN+BMCaMf
-----END CERTIFICATE-----
