Certificate:
    Data:
        Version: 3 (0x2)
        Serial Number: 4119 (0x1017)
        Signature Algorithm: sha256WithRSAEncryption
        Issuer: C=FR, ST=IDF, L=Paris, O=Local NODE-OPCUA Certificate Authority, CN=NodeOPCUA-CA
        Validity
            Not Before: Oct 10 00:24:20 2023 GMT
            Not After : Oct  9 00:24:20 2024 GMT
        Subject: C=FR, O=NodeOPCUA, CN=NodeOPCUA
        Subject Public Key Info:
            Public Key Algorithm: rsaEncryption
                RSA Public-Key: (1024 bit)
                Modulus:
                    00:dc:6b:53:ca:df:41:64:62:f1:c7:83:e9:3d:53:
                    0a:eb:dd:44:54:90:35:33:6d:a6:df:2b:60:a0:42:
                    6e:da:e2:50:f2:ce:b6:a1:36:9b:7f:f2:8e:21:7e:
                    01:c1:2d:30:3a:f8:e4:53:fb:34:64:bf:ea:bf:73:
                    cb:88:25:4e:08:8d:60:1c:d5:cd:3d:d0:56:b3:53:
                    5b:a9:79:9c:30:89:a0:92:ac:ac:12:6e:a9:bf:87:
                    be:a7:30:d1:9f:b4:48:46:8b:3e:a5:8b:37:54:a0:
                    fa:87:6c:db:59:13:f3:bf:6a:cb:d9:ae:da:67:01:
                    c5:f3:07:2d:0a:90:1b:20:e1
                Exponent: 65537 (0x10001)
        X509v3 extensions:
            X509v3 Basic Constraints: critical
                CA:FALSE
            X509v3 Subject Key Identifier: 
                8A:B4:81:BC:9E:4A:1E:9B:0A:DE:A6:A0:EE:9E:1C:FD:F8:28:C2:84
            X509v3 Authority Key Identifier: 
                keyid:A7:15:61:9A:B5:81:C7:F7:D0:76:65:0D:DA:7F:EC:DE:F2:4F:C8:EB
                DirName:/C=FR/ST=IDF/L=Paris/O=Local NODE-OPCUA Certificate Authority/CN=NodeOPCUA-CA
                serial:25:A1:CC:A0:A1:DA:94:52:52:1D:E7:E0:B7:E7:30:D9:7D:F8:10:DD

            X509v3 Subject Alternative Name: 
                URI:urn:bc96d73fb3b6:NodeOPCUA-Server, DNS:bc96d73fb3b6, IP Address:127.0.0.1
            Netscape Comment: 
                OpenSSL Generated Certificate
            X509v3 Key Usage: critical
                Digital Signature, Non Repudiation, Key Encipherment, Data Encipherment, Key Agreement, Certificate Sign
            X509v3 Extended Key Usage: critical
                TLS Web Server Authentication, TLS Web Client Authentication
    Signature Algorithm: sha256WithRSAEncryption
         7a:11:9e:00:47:ee:ca:fb:a9:02:dc:d4:3c:13:f0:8b:c0:d5:
         95:3d:5d:68:6c:eb:9a:f2:f6:22:da:23:5e:56:ca:e2:2e:42:
         d0:14:a9:fe:ef:cf:7d:b9:21:72:19:e7:39:e5:41:a7:64:96:
         f1:d0:7e:1e:07:3e:3f:28:4d:bc:1a:80:cc:dc:7d:06:b3:81:
         b7:5c:d2:34:8c:b1:98:4f:60:e1:78:ff:30:89:cd:04:17:8c:
         2e:bd:80:fb:6f:f2:35:35:a1:5d:95:19:31:aa:f1:d1:74:8d:
         b7:c9:ba:41:cc:85:2b:62:f4:c3:0d:9f:c6:20:10:2d:c3:5f:
         a3:48:6a:66:d7:54:e3:c0:c9:b0:bc:da:88:19:fa:51:12:e8:
         7d:3c:af:8b:81:fa:4a:12:24:72:17:ec:52:05:43:4d:22:71:
         9a:57:dc:df:98:1c:64:8b:62:76:00:0b:a4:96:5f:d8:b9:6c:
         a4:46:c3:4b:45:c4:ae:7f:84:4b:61:9d:03:4d:de:84:cd:2e:
         d4:ab:0c:2f:86:59:93:39:51:67:3d:83:32:36:5e:76:88:8f:
         f9:da:7c:06:cc:d0:ab:19:40:5a:1c:e7:91:42:3c:bc:53:db:
         34:f6:0d:21:66:5c:c0:6b:15:d6:c1:a8:37:4b:ef:de:b1:1c:
         31:23:76:dc
-----BEGIN CERTIFICATE-----
MIIEKDCCAxCgAwIBAgICEBcwDQYJKoZIhvcNAQELBQAwczELMAkGA1UEBhMCRlIx
DDAKBgNVBAgTA0lERjEOMAwGA1UEBxMFUGFyaXMxLzAtBgNVBAoTJkxvY2FsIE5P
REUtT1BDVUEgQ2VydGlmaWNhdGUgQXV0aG9yaXR5MRUwEwYDVQQDEwxOb2RlT1BD
VUEtQ0EwHhcNMjMxMDEwMDAyNDIwWhcNMjQxMDA5MDAyNDIwWjA1MQswCQYDVQQG
EwJGUjESMBAGA1UECgwJTm9kZU9QQ1VBMRIwEAYDVQQDDAlOb2RlT1BDVUEwgZ8w
DQYJKoZIhvcNAQEBBQADgY0AMIGJAoGBANxrU8rfQWRi8ceD6T1TCuvdRFSQNTNt
pt8rYKBCbtriUPLOtqE2m3/yjiF+AcEtMDr45FP7NGS/6r9zy4glTgiNYBzVzT3Q
VrNTW6l5nDCJoJKsrBJuqb+Hvqcw0Z+0SEaLPqWLN1Sg+ods21kT879qy9mu2mcB
xfMHLQqQGyDhAgMBAAGjggGGMIIBgjAMBgNVHRMBAf8EAjAAMB0GA1UdDgQWBBSK
tIG8nkoemwrepqDunhz9+CjChDCBsAYDVR0jBIGoMIGlgBSnFWGatYHH99B2ZQ3a
f+ze8k/I66F3pHUwczELMAkGA1UEBhMCRlIxDDAKBgNVBAgTA0lERjEOMAwGA1UE
BxMFUGFyaXMxLzAtBgNVBAoTJkxvY2FsIE5PREUtT1BDVUEgQ2VydGlmaWNhdGUg
QXV0aG9yaXR5MRUwEwYDVQQDEwxOb2RlT1BDVUEtQ0GCFCWhzKCh2pRSUh3n4Lfn
MNl9+BDdMEAGA1UdEQQ5MDeGIXVybjpiYzk2ZDczZmIzYjY6Tm9kZU9QQ1VBLVNl
cnZlcoIMYmM5NmQ3M2ZiM2I2hwR/AAABMCwGCWCGSAGG+EIBDQQfFh1PcGVuU1NM
IEdlbmVyYXRlZCBDZXJ0aWZpY2F0ZTAOBgNVHQ8BAf8EBAMCAvwwIAYDVR0lAQH/
BBYwFAYIKwYBBQUHAwEGCCsGAQUFBwMCMA0GCSqGSIb3DQEBCwUAA4IBAQB6EZ4A
R+7K+6kC3NQ8E/CLwNWVPV1obOua8vYi2iNeVsriLkLQFKn+7899uSFyGec55UGn
ZJbx0H4eBz4/KE28GoDM3H0Gs4G3XNI0jLGYT2DheP8wic0EF4wuvYD7b/I1NaFd
lRkxqvHRdI23ybpBzIUrYvTDDZ/GIBAtw1+jSGpm11TjwMmwvNqIGfpREuh9PK+L
gfpKEiRyF+xSBUNNInGaV9zfmBxki2J2AAukll/YuWykRsNLRcSuf4RLYZ0DTd6E
zS7UqwwvhlmTOVFnPYMyNl52iI/52nwGzNCrGUBaHOeRQjy8U9s09g0hZlzAaxXW
wag3S+/esRwxI3bc
-----END CERTIFICATE-----
