Certificate:
    Data:
        Version: 3 (0x2)
        Serial Number: 4120 (0x1018)
        Signature Algorithm: sha256WithRSAEncryption
        Issuer: C=FR, ST=IDF, L=Paris, O=Local NODE-OPCUA Certificate Authority, CN=NodeOPCUA-CA
        Validity
            Not Before: Oct  9 00:24:20 2022 GMT
            Not After : Oct  9 00:24:20 2023 GMT
        Subject: C=FR, O=NodeOPCUA, CN=NodeOPCUA
        Subject Public Key Info:
            Public Key Algorithm: rsaEncryption
                RSA Public-Key: (1024 bit)
                Modulus:
                    00:dc:6b:53:ca:df:41:64:62:f1:c7:83:e9:3d:53:
                    0a:eb:dd:44:54:90:35:33:6d:a6:df:2b:60:a0:42:
                    6e:da:e2:50:f2:ce:b6:a1:36:9b:7f:f2:8e:21:7e:
                    01:c1:2d:30:3a:f8:e4:53:fb:34:64:bf:ea:bf:73:
                    cb:88:25:4e:08:8d:60:1c:d5:cd:3d:d0:56:b3:53:
                    5b:a9:79:9c:30:89:a0:92:ac:ac:12:6e:a9:bf:87:
                    be:a7:30:d1:9f:b4:48:46:8b:3e:a5:8b:37:54:a0:
                    fa:87:6c:db:59:13:f3:bf:6a:cb:d9:ae:da:67:01:
                    c5:f3:07:2d:0a:90:1b:20:e1
                Exponent: 65537 (0x10001)
        X509v3 extensions:
            X509v3 Basic Constraints: critical
                CA:FALSE
            X509v3 Subject Key Identifier: 
                8A:B4:81:BC:9E:4A:1E:9B:0A:DE:A6:A0:EE:9E:1C:FD:F8:28:C2:84
            X509v3 Authority Key Identifier: 
                keyid:A7:15:61:9A:B5:81:C7:F7:D0:76:65:0D:DA:7F:EC:DE:F2:4F:C8:EB
                DirName:/C=FR/ST=IDF/L=Paris/O=Local NODE-OPCUA Certificate Authority/CN=NodeOPCUA-CA
                serial:25:A1:CC:A0:A1:DA:94:52:52:1D:E7:E0:B7:E7:30:D9:7D:F8:10:DD

            X509v3 Subject Alternative Name: 
                URI:urn:bc96d73fb3b6:NodeOPCUA-ServerRevoked, DNS:bc96d73fb3b6, IP Address:127.0.0.1
            Netscape Comment: 
                OpenSSL Generated Certificate
            X509v3 Key Usage: critical
                Digital Signature, Non Repudiation, Key Encipherment, Data Encipherment, Key Agreement, Certificate Sign
            X509v3 Extended Key Usage: critical
                TLS Web Server Authentication, TLS Web Client Authentication
    Signature Algorithm: sha256WithRSAEncryption
         3d:94:26:9c:e3:25:f3:2e:49:e4:b9:52:d6:1b:65:b2:e3:a7:
         1f:9d:15:ee:78:e3:be:9c:27:96:ee:26:0d:af:58:b1:cb:91:
         8e:a6:37:b4:29:8a:97:2e:ec:10:07:21:57:0e:41:17:e2:cb:
         9a:1b:20:c2:ac:3c:fc:ba:49:b6:5e:1e:0a:4c:35:fb:6a:31:
         49:83:26:ff:8a:01:99:1f:0e:46:16:7e:73:de:58:a5:1c:b0:
         b2:60:12:75:b7:cb:fd:f0:cc:ff:3e:39:16:de:41:1b:e6:de:
         3b:95:da:16:6c:66:97:a6:5d:76:3e:6e:38:bb:2d:99:0a:f5:
         a3:91:99:da:bb:2e:a9:2b:8a:70:21:ab:b8:01:58:91:e0:29:
         33:78:75:c2:78:24:e8:ae:d9:0f:90:49:2f:d0:c1:f2:e6:43:
         ce:b8:ca:19:6b:87:be:f7:5f:7b:25:4b:40:a0:de:5d:ba:c9:
         49:98:32:8c:20:b9:79:3f:04:37:f3:31:fa:24:27:40:95:e6:
         b6:7a:f6:50:65:f4:de:b8:8b:e0:44:64:03:77:ce:10:f9:fb:
         95:0a:3e:42:d9:b0:bf:b8:88:7f:ab:27:18:ec:6e:28:23:f9:
         d5:ef:4b:f5:ea:49:5a:b8:ab:d8:af:4e:fb:d7:87:00:f6:f8:
         f7:3e:62:95
-----BEGIN CERTIFICATE-----
MIIELzCCAxegAwIBAgICEBgwDQYJKoZIhvcNAQELBQAwczELMAkGA1UEBhMCRlIx
DDAKBgNVBAgTA0lERjEOMAwGA1UEBxMFUGFyaXMxLzAtBgNVBAoTJkxvY2FsIE5P
REUtT1BDVUEgQ2VydGlmaWNhdGUgQXV0aG9yaXR5MRUwEwYDVQQDEwxOb2RlT1BD
VUEtQ0EwHhcNMjIxMDA5MDAyNDIwWhcNMjMxMDA5MDAyNDIwWjA1MQswCQYDVQQG
EwJGUjESMBAGA1UECgwJTm9kZU9QQ1VBMRIwEAYDVQQDDAlOb2RlT1BDVUEwgZ8w
DQYJKoZIhvcNAQEBBQADgY0AMIGJAoGBANxrU8rfQWRi8ceD6T1TCuvdRFSQNTNt
pt8rYKBCbtriUPLOtqE2m3/yjiF+AcEtMDr45FP7NGS/6r9zy4glTgiNYBzVzT3Q
VrNTW6l5nDCJoJKsrBJuqb+Hvqcw0Z+0SEaLPqWLN1Sg+ods21kT879qy9mu2mcB
xfMHLQqQGyDhAgMBAAGjggGNMIIBiTAMBgNVHRMBAf8EAjAAMB0GA1UdDgQWBBSK
tIG8nkoemwrepqDunhz9+CjChDCBsAYDVR0jBIGoMIGlgBSnFWGatYHH99B2ZQ3a
f+ze8k/I66F3pHUwczELMAkGA1UEBhMCRlIxDDAKBgNVBAgTA0lERjEOMAwGA1UE
BxMFUGFyaXMxLzAtBgNVBAoTJkxvY2FsIE5PREUtT1BDVUEgQ2VydGlmaWNhdGUg
QXV0aG9yaXR5MRUwEwYDVQQDEwxOb2RlT1BDVUEtQ0GCFCWhzKCh2pRSUh3n4Lfn
MNl9+BDdMEcGA1UdEQRAMD6GKHVybjpiYzk2ZDczZmIzYjY6Tm9kZU9QQ1VBLVNl
cnZlclJldm9rZWSCDGJjOTZkNzNmYjNiNocEfwAAATAsBglghkgBhvhCAQ0EHxYd
T3BlblNTTCBHZW5lcmF0ZWQgQ2VydGlmaWNhdGUwDgYDVR0PAQH/BAQDAgL8MCAG
A1UdJQEB/wQWMBQGCCsGAQUFBwMBBggrBgEFBQcDAjANBgkqhkiG9w0BAQsFAAOC
AQEAPZQmnOMl8y5J5LlS1htlsuOnH50V7njjvpwnlu4mDa9YscuRjqY3tCmKly7s
EAchVw5BF+LLmhsgwqw8/LpJtl4eCkw1+2oxSYMm/4oBmR8ORhZ+c95YpRywsmAS
dbfL/fDM/z45Ft5BG+beO5XaFmxml6Zddj5uOLstmQr1o5GZ2rsuqSuKcCGruAFY
keApM3h1wngk6K7ZD5BJL9DB8uZDzrjKGWuHvvdfeyVLQKDeXbrJSZgyjCC5eT8E
N/Mx+iQnQJXmtnr2UGX03riL4ERkA3fOEPn7lQo+Qtmwv7iIf6snGOxuKCP51e9L
9epJWrir2K9O+9eHAPb49z5ilQ==
-----END CERTIFICATE-----
