Certificate:
    Data:
        Version: 3 (0x2)
        Serial Number: 4123 (0x101b)
        Signature Algorithm: sha256WithRSAEncryption
        Issuer: C=FR, ST=IDF, L=Paris, O=Local NODE-OPCUA Certificate Authority, CN=NodeOPCUA-CA
        Validity
            Not Before: Oct 10 00:24:20 2020 GMT
            Not After : Oct 10 00:24:20 2021 GMT
        Subject: C=FR, O=NodeOPCUA, CN=NodeOPCUA
        Subject Public Key Info:
            Public Key Algorithm: rsaEncryption
                RSA Public-Key: (2048 bit)
                Modulus:
                    00:d8:1e:47:ae:b2:80:ec:27:25:e0:98:ab:f5:27:
                    e7:2d:8c:13:d6:66:e7:f8:e6:f9:8a:63:a8:2b:cf:
                    16:74:49:ac:f6:e0:ea:dc:9c:4e:f0:9b:2a:a4:5d:
                    76:1a:42:f4:dc:4a:b8:f5:99:24:c2:96:fe:a7:ab:
                    1c:af:09:15:d9:38:f7:78:f6:4c:7e:66:94:c5:4f:
                    0b:86:a8:43:84:d7:d0:c5:4d:6a:3b:ad:d1:4e:39:
                    d6:58:64:6d:50:1a:f2:ec:9d:b5:a8:b7:51:f4:d6:
                    ac:ad:aa:20:c8:50:ec:d9:3f:5e:b1:69:65:ee:44:
                    52:56:b3:43:3f:67:18:ce:c6:a8:9d:93:4f:f8:44:
                    02:0b:7f:25:21:30:8e:3a:46:84:ae:34:08:a5:dd:
                    de:5a:d0:30:07:04:43:4d:74:dd:0c:d8:1a:7d:7d:
                    b9:85:65:ab:f6:db:a9:d1:a2:7d:17:56:4f:3a:44:
                    76:19:1e:46:d2:e6:72:0b:c0:1b:0a:e9:d6:43:74:
                    f1:a5:bd:e9:12:36:4b:b3:50:0c:10:c8:c0:9c:a2:
                    6d:2d:89:4d:ba:b1:6a:01:12:70:13:d6:22:bc:30:
                    70:e0:2a:03:0d:b7:e5:1d:b5:a9:df:3c:3c:4a:db:
                    72:cb:c9:06:42:4a:09:a5:1b:75:88:b5:2b:c3:fe:
                    aa:ad
                Exponent: 65537 (0x10001)
        X509v3 extensions:
            X509v3 Basic Constraints: critical
                CA:FALSE
            X509v3 Subject Key Identifier: 
                F2:CB:3A:3E:73:57:32:A8:2F:5C:63:43:57:36:50:E5:DB:56:89:48
            X509v3 Authority Key Identifier: 
                keyid:A7:15:61:9A:B5:81:C7:F7:D0:76:65:0D:DA:7F:EC:DE:F2:4F:C8:EB
                DirName:/C=FR/ST=IDF/L=Paris/O=Local NODE-OPCUA Certificate Authority/CN=NodeOPCUA-CA
                serial:25:A1:CC:A0:A1:DA:94:52:52:1D:E7:E0:B7:E7:30:D9:7D:F8:10:DD

            X509v3 Subject Alternative Name: 
                URI:urn:bc96d73fb3b6:NodeOPCUA-Server, DNS:bc96d73fb3b6, IP Address:127.0.0.1
            Netscape Comment: 
                OpenSSL Generated Certificate
            X509v3 Key Usage: critical
                Digital Signature, Non Repudiation, Key Encipherment, Data Encipherment, Key Agreement, Certificate Sign
            X509v3 Extended Key Usage: critical
                TLS Web Server Authentication, TLS Web Client Authentication
    Signature Algorithm: sha256WithRSAEncryption
         16:58:ec:bd:57:a7:3a:fb:f3:55:d0:6e:45:dc:85:c5:24:5f:
         27:73:a2:c7:8e:08:f1:a8:bf:23:ed:35:f4:da:38:a4:a2:a1:
         d2:a0:23:a3:80:6a:cb:cc:d4:34:5d:30:ca:b0:65:72:a0:fd:
         4a:62:bc:3d:14:1f:3c:36:2f:11:2a:2b:e1:a2:0d:e0:57:19:
         75:d4:27:5e:1d:f6:af:77:b1:a3:13:ae:d1:e1:4f:56:92:ff:
         4b:4e:c5:c6:95:45:c2:46:7d:98:ea:07:f2:e6:76:aa:35:b4:
         1b:a7:9b:ef:f9:30:c5:64:f0:a7:58:08:1a:1e:91:88:27:ec:
         03:ad:71:ef:e1:1b:94:d6:d5:b8:83:ef:39:61:8a:6f:03:82:
         96:86:5c:79:c5:60:88:71:15:1a:31:c1:7c:29:30:ef:a8:f4:
         37:57:fa:25:55:f8:82:83:b5:7d:72:a8:c8:7d:56:ca:f9:33:
         37:e0:a9:67:67:ea:22:80:99:dc:33:03:a9:02:8a:3a:d7:64:
         8e:c7:46:e0:df:a5:94:83:7d:19:e1:d8:88:cb:de:5b:03:a6:
         7e:d6:47:de:a0:5d:e5:42:6a:40:bf:29:85:b4:d8:93:47:23:
         c7:49:6d:fa:26:88:00:8e:50:78:f4:5c:b1:c9:74:52:9a:84:
         fe:8a:0a:fc
-----BEGIN CERTIFICATE-----
MIIErDCCA5SgAwIBAgICEBswDQYJKoZIhvcNAQELBQAwczELMAkGA1UEBhMCRlIx
DDAKBgNVBAgTA0lERjEOMAwGA1UEBxMFUGFyaXMxLzAtBgNVBAoTJkxvY2FsIE5P
REUtT1BDVUEgQ2VydGlmaWNhdGUgQXV0aG9yaXR5MRUwEwYDVQQDEwxOb2RlT1BD
VUEtQ0EwHhcNMjAxMDEwMDAyNDIwWhcNMjExMDEwMDAyNDIwWjA1MQswCQYDVQQG
EwJGUjESMBAGA1UECgwJTm9kZU9QQ1VBMRIwEAYDVQQDDAlOb2RlT1BDVUEwggEi
MA0GCSqGSIb3DQEBAQUAA4IBDwAwggEKAoIBAQDYHkeusoDsJyXgmKv1J+ctjBPW
Zuf45vmKY6grzxZ0Saz24OrcnE7wmyqkXXYaQvTcSrj1mSTClv6nqxyvCRXZOPd4
9kx+ZpTFTwuGqEOE19DFTWo7rdFOOdZYZG1QGvLsnbWot1H01qytqiDIUOzZP16x
aWXuRFJWs0M/ZxjOxqidk0/4RAILfyUhMI46RoSuNAil3d5a0DAHBENNdN0M2Bp9
fbmFZav226nRon0XVk86RHYZHkbS5nILwBsK6dZDdPGlvekSNkuzUAwQyMCcom0t
iU26sWoBEnAT1iK8MHDgKgMNt+UdtanfPDxK23LLyQZCSgmlG3WItSvD/qqtAgMB
AAGjggGGMIIBgjAMBgNVHRMBAf8EAjAAMB0GA1UdDgQWBBTyyzo+c1cyqC9cY0NX
NlDl21aJSDCBsAYDVR0jBIGoMIGlgBSnFWGatYHH99B2ZQ3af+ze8k/I66F3pHUw
czELMAkGA1UEBhMCRlIxDDAKBgNVBAgTA0lERjEOMAwGA1UEBxMFUGFyaXMxLzAt
BgNVBAoTJkxvY2FsIE5PREUtT1BDVUEgQ2VydGlmaWNhdGUgQXV0aG9yaXR5MRUw
EwYDVQQDEwxOb2RlT1BDVUEtQ0GCFCWhzKCh2pRSUh3n4LfnMNl9+BDdMEAGA1Ud
EQQ5MDeGIXVybjpiYzk2ZDczZmIzYjY6Tm9kZU9QQ1VBLVNlcnZlcoIMYmM5NmQ3
M2ZiM2I2hwR/AAABMCwGCWCGSAGG+EIBDQQfFh1PcGVuU1NMIEdlbmVyYXRlZCBD
ZXJ0aWZpY2F0ZTAOBgNVHQ8BAf8EBAMCAvwwIAYDVR0lAQH/BBYwFAYIKwYBBQUH
AwEGCCsGAQUFBwMCMA0GCSqGSIb3DQEBCwUAA4IBAQAWWOy9V6c6+/NV0G5F3IXF
JF8nc6LHjgjxqL8j7TX02jikoqHSoCOjgGrLzNQ0XTDKsGVyoP1KYrw9FB88Ni8R
Kivhog3gVxl11CdeHfavd7GjE67R4U9Wkv9LTsXGlUXCRn2Y6gfy5naqNbQbp5vv
+TDFZPCnWAgaHpGIJ+wDrXHv4RuU1tW4g+85YYpvA4KWhlx5xWCIcRUaMcF8KTDv
qPQ3V/olVfiCg7V9cqjIfVbK+TM34KlnZ+oigJncMwOpAoo612SOx0bg36WUg30Z
4diIy95bA6Z+1kfeoF3lQmpAvymFtNiTRyPHSW36JogAjlB49FyxyXRSmoT+igr8
-----END CERTIFICATE-----
