Certificate:
    Data:
        Version: 3 (0x2)
        Serial Number: 4124 (0x101c)
        Signature Algorithm: sha256WithRSAEncryption
        Issuer: C=FR, ST=IDF, L=Paris, O=Local NODE-OPCUA Certificate Authority, CN=NodeOPCUA-CA
        Validity
            Not Before: Oct 10 00:24:20 2023 GMT
            Not After : Oct  9 00:24:20 2024 GMT
        Subject: C=FR, O=NodeOPCUA, CN=NodeOPCUA
        Subject Public Key Info:
            Public Key Algorithm: rsaEncryption
                RSA Public-Key: (2048 bit)
                Modulus:
                    00:d8:1e:47:ae:b2:80:ec:27:25:e0:98:ab:f5:27:
                    e7:2d:8c:13:d6:66:e7:f8:e6:f9:8a:63:a8:2b:cf:
                    16:74:49:ac:f6:e0:ea:dc:9c:4e:f0:9b:2a:a4:5d:
                    76:1a:42:f4:dc:4a:b8:f5:99:24:c2:96:fe:a7:ab:
                    1c:af:09:15:d9:38:f7:78:f6:4c:7e:66:94:c5:4f:
                    0b:86:a8:43:84:d7:d0:c5:4d:6a:3b:ad:d1:4e:39:
                    d6:58:64:6d:50:1a:f2:ec:9d:b5:a8:b7:51:f4:d6:
                    ac:ad:aa:20:c8:50:ec:d9:3f:5e:b1:69:65:ee:44:
                    52:56:b3:43:3f:67:18:ce:c6:a8:9d:93:4f:f8:44:
                    02:0b:7f:25:21:30:8e:3a:46:84:ae:34:08:a5:dd:
                    de:5a:d0:30:07:04:43:4d:74:dd:0c:d8:1a:7d:7d:
                    b9:85:65:ab:f6:db:a9:d1:a2:7d:17:56:4f:3a:44:
                    76:19:1e:46:d2:e6:72:0b:c0:1b:0a:e9:d6:43:74:
                    f1:a5:bd:e9:12:36:4b:b3:50:0c:10:c8:c0:9c:a2:
                    6d:2d:89:4d:ba:b1:6a:01:12:70:13:d6:22:bc:30:
                    70:e0:2a:03:0d:b7:e5:1d:b5:a9:df:3c:3c:4a:db:
                    72:cb:c9:06:42:4a:09:a5:1b:75:88:b5:2b:c3:fe:
                    aa:ad
                Exponent: 65537 (0x10001)
        X509v3 extensions:
            X509v3 Basic Constraints: critical
                CA:FALSE
            X509v3 Subject Key Identifier: 
                F2:CB:3A:3E:73:57:32:A8:2F:5C:63:43:57:36:50:E5:DB:56:89:48
            X509v3 Authority Key Identifier: 
                keyid:A7:15:61:9A:B5:81:C7:F7:D0:76:65:0D:DA:7F:EC:DE:F2:4F:C8:EB
                DirName:/C=FR/ST=IDF/L=Paris/O=Local NODE-OPCUA Certificate Authority/CN=NodeOPCUA-CA
                serial:25:A1:CC:A0:A1:DA:94:52:52:1D:E7:E0:B7:E7:30:D9:7D:F8:10:DD

            X509v3 Subject Alternative Name: 
                URI:urn:bc96d73fb3b6:NodeOPCUA-Server, DNS:bc96d73fb3b6, IP Address:127.0.0.1
            Netscape Comment: 
                OpenSSL Generated Certificate
            X509v3 Key Usage: critical
                Digital Signature, Non Repudiation, Key Encipherment, Data Encipherment, Key Agreement, Certificate Sign
            X509v3 Extended Key Usage: critical
                TLS Web Server Authentication, TLS Web Client Authentication
    Signature Algorithm: sha256WithRSAEncryption
         51:d7:b5:32:9e:e5:26:04:4c:3f:5c:1d:fc:35:0b:ca:c0:54:
         8d:45:25:e6:35:3e:cd:0a:3d:6b:17:b5:66:ae:d0:61:a7:45:
         fc:79:40:08:e9:bc:f3:6d:5c:e6:21:11:d7:17:49:8b:ef:6b:
         b4:f7:d4:74:5f:f6:fa:a5:3d:94:ec:40:dd:1d:e5:5a:c5:f1:
         95:14:11:4c:23:8b:b0:2a:e6:40:63:10:0f:2f:65:eb:b9:bf:
         45:2e:37:6a:06:c5:84:4f:c8:1e:5f:28:a9:3a:be:09:47:73:
         cd:96:99:56:fd:31:33:d7:5f:e1:c5:3e:d4:12:80:19:78:b5:
         90:44:58:3f:55:71:32:0d:aa:85:85:6a:bd:ed:28:87:42:85:
         ee:94:0a:8d:76:d9:0a:6a:d8:a4:88:f4:ca:04:f4:7d:8a:70:
         ce:89:e8:12:4b:7c:93:f7:55:ea:75:35:6d:06:7b:e9:5c:e1:
         0f:8b:b1:cb:e1:08:30:11:56:d1:bc:41:02:d5:72:54:c8:54:
         c5:d6:c4:93:bc:c5:97:d2:5f:66:65:dc:d4:b1:62:cb:2d:fd:
         8c:bf:ce:41:e5:21:33:13:e3:2d:95:a9:76:84:cc:8d:2e:90:
         e8:15:46:c2:41:6c:0b:82:7a:17:de:ae:16:a3:1f:86:1c:ba:
         c7:75:78:dd
-----BEGIN CERTIFICATE-----
MIIErDCCA5SgAwIBAgICEBwwDQYJKoZIhvcNAQELBQAwczELMAkGA1UEBhMCRlIx
DDAKBgNVBAgTA0lERjEOMAwGA1UEBxMFUGFyaXMxLzAtBgNVBAoTJkxvY2FsIE5P
REUtT1BDVUEgQ2VydGlmaWNhdGUgQXV0aG9yaXR5MRUwEwYDVQQDEwxOb2RlT1BD
VUEtQ0EwHhcNMjMxMDEwMDAyNDIwWhcNMjQxMDA5MDAyNDIwWjA1MQswCQYDVQQG
EwJGUjESMBAGA1UECgwJTm9kZU9QQ1VBMRIwEAYDVQQDDAlOb2RlT1BDVUEwggEi
MA0GCSqGSIb3DQEBAQUAA4IBDwAwggEKAoIBAQDYHkeusoDsJyXgmKv1J+ctjBPW
Zuf45vmKY6grzxZ0Saz24OrcnE7wmyqkXXYaQvTcSrj1mSTClv6nqxyvCRXZOPd4
9kx+ZpTFTwuGqEOE19DFTWo7rdFOOdZYZG1QGvLsnbWot1H01qytqiDIUOzZP16x
aWXuRFJWs0M/ZxjOxqidk0/4RAILfyUhMI46RoSuNAil3d5a0DAHBENNdN0M2Bp9
fbmFZav226nRon0XVk86RHYZHkbS5nILwBsK6dZDdPGlvekSNkuzUAwQyMCcom0t
iU26sWoBEnAT1iK8MHDgKgMNt+UdtanfPDxK23LLyQZCSgmlG3WItSvD/qqtAgMB
AAGjggGGMIIBgjAMBgNVHRMBAf8EAjAAMB0GA1UdDgQWBBTyyzo+c1cyqC9cY0NX
NlDl21aJSDCBsAYDVR0jBIGoMIGlgBSnFWGatYHH99B2ZQ3af+ze8k/I66F3pHUw
czELMAkGA1UEBhMCRlIxDDAKBgNVBAgTA0lERjEOMAwGA1UEBxMFUGFyaXMxLzAt
BgNVBAoTJkxvY2FsIE5PREUtT1BDVUEgQ2VydGlmaWNhdGUgQXV0aG9yaXR5MRUw
EwYDVQQDEwxOb2RlT1BDVUEtQ0GCFCWhzKCh2pRSUh3n4LfnMNl9+BDdMEAGA1Ud
EQQ5MDeGIXVybjpiYzk2ZDczZmIzYjY6Tm9kZU9QQ1VBLVNlcnZlcoIMYmM5NmQ3
M2ZiM2I2hwR/AAABMCwGCWCGSAGG+EIBDQQfFh1PcGVuU1NMIEdlbmVyYXRlZCBD
ZXJ0aWZpY2F0ZTAOBgNVHQ8BAf8EBAMCAvwwIAYDVR0lAQH/BBYwFAYIKwYBBQUH
AwEGCCsGAQUFBwMCMA0GCSqGSIb3DQEBCwUAA4IBAQBR17UynuUmBEw/XB38NQvK
wFSNRSXmNT7NCj1rF7VmrtBhp0X8eUAI6bzzbVzmIRHXF0mL72u099R0X/b6pT2U
7EDdHeVaxfGVFBFMI4uwKuZAYxAPL2Xrub9FLjdqBsWET8geXyipOr4JR3PNlplW
/TEz11/hxT7UEoAZeLWQRFg/VXEyDaqFhWq97SiHQoXulAqNdtkKatikiPTKBPR9
inDOiegSS3yT91XqdTVtBnvpXOEPi7HL4QgwEVbRvEEC1XJUyFTF1sSTvMWX0l9m
ZdzUsWLLLf2Mv85B5SEzE+Mtlal2hMyNLpDoFUbCQWwLgnoX3q4Wox+GHLrHdXjd
-----END CERTIFICATE-----
