Certificate:
    Data:
        Version: 3 (0x2)
        Serial Number: 4125 (0x101d)
        Signature Algorithm: sha256WithRSAEncryption
        Issuer: C=FR, ST=IDF, L=Paris, O=Local NODE-OPCUA Certificate Authority, CN=NodeOPCUA-CA
        Validity
            Not Before: Oct  9 00:24:20 2022 GMT
            Not After : Oct  9 00:24:20 2023 GMT
        Subject: C=FR, O=NodeOPCUA, CN=NodeOPCUA
        Subject Public Key Info:
            Public Key Algorithm: rsaEncryption
                RSA Public-Key: (2048 bit)
                Modulus:
                    00:d8:1e:47:ae:b2:80:ec:27:25:e0:98:ab:f5:27:
                    e7:2d:8c:13:d6:66:e7:f8:e6:f9:8a:63:a8:2b:cf:
                    16:74:49:ac:f6:e0:ea:dc:9c:4e:f0:9b:2a:a4:5d:
                    76:1a:42:f4:dc:4a:b8:f5:99:24:c2:96:fe:a7:ab:
                    1c:af:09:15:d9:38:f7:78:f6:4c:7e:66:94:c5:4f:
                    0b:86:a8:43:84:d7:d0:c5:4d:6a:3b:ad:d1:4e:39:
                    d6:58:64:6d:50:1a:f2:ec:9d:b5:a8:b7:51:f4:d6:
                    ac:ad:aa:20:c8:50:ec:d9:3f:5e:b1:69:65:ee:44:
                    52:56:b3:43:3f:67:18:ce:c6:a8:9d:93:4f:f8:44:
                    02:0b:7f:25:21:30:8e:3a:46:84:ae:34:08:a5:dd:
                    de:5a:d0:30:07:04:43:4d:74:dd:0c:d8:1a:7d:7d:
                    b9:85:65:ab:f6:db:a9:d1:a2:7d:17:56:4f:3a:44:
                    76:19:1e:46:d2:e6:72:0b:c0:1b:0a:e9:d6:43:74:
                    f1:a5:bd:e9:12:36:4b:b3:50:0c:10:c8:c0:9c:a2:
                    6d:2d:89:4d:ba:b1:6a:01:12:70:13:d6:22:bc:30:
                    70:e0:2a:03:0d:b7:e5:1d:b5:a9:df:3c:3c:4a:db:
                    72:cb:c9:06:42:4a:09:a5:1b:75:88:b5:2b:c3:fe:
                    aa:ad
                Exponent: 65537 (0x10001)
        X509v3 extensions:
            X509v3 Basic Constraints: critical
                CA:FALSE
            X509v3 Subject Key Identifier: 
                F2:CB:3A:3E:73:57:32:A8:2F:5C:63:43:57:36:50:E5:DB:56:89:48
            X509v3 Authority Key Identifier: 
                keyid:A7:15:61:9A:B5:81:C7:F7:D0:76:65:0D:DA:7F:EC:DE:F2:4F:C8:EB
                DirName:/C=FR/ST=IDF/L=Paris/O=Local NODE-OPCUA Certificate Authority/CN=NodeOPCUA-CA
                serial:25:A1:CC:A0:A1:DA:94:52:52:1D:E7:E0:B7:E7:30:D9:7D:F8:10:DD

            X509v3 Subject Alternative Name: 
                URI:urn:bc96d73fb3b6:NodeOPCUA-ServerRevoked, DNS:bc96d73fb3b6, IP Address:127.0.0.1
            Netscape Comment: 
                OpenSSL Generated Certificate
            X509v3 Key Usage: critical
                Digital Signature, Non Repudiation, Key Encipherment, Data Encipherment, Key Agreement, Certificate Sign
            X509v3 Extended Key Usage: critical
                TLS Web Server Authentication, TLS Web Client Authentication
    Signature Algorithm: sha256WithRSAEncryption
         41:4c:30:21:d4:9b:be:b3:3b:90:88:2f:ba:26:50:f2:40:42:
         32:ee:09:14:a7:f2:90:f4:c8:3b:90:b7:76:02:cd:57:a5:ed:
         9e:40:fc:de:dd:9a:4e:06:c9:12:18:5f:6a:0f:54:5d:b1:27:
         f6:49:71:aa:ea:f0:80:52:16:97:68:50:c9:49:3b:21:2f:06:
         b9:e7:7e:a1:db:ec:3b:74:74:7c:4b:c5:4e:eb:04:bd:b4:2e:
         12:01:fe:9b:bd:d0:72:e6:66:ec:75:e3:31:70:38:c6:d9:9d:
         da:0d:91:31:99:e2:bf:f4:29:01:3f:47:0d:04:9d:2d:f6:29:
         7e:d0:a8:db:65:99:af:a2:1b:00:1c:dc:00:95:09:91:e9:6a:
         49:b1:9f:5d:ae:b6:55:90:8e:d3:f6:ff:28:da:2e:cb:2e:74:
         2c:c0:68:ef:61:9f:dd:97:c0:74:da:67:f6:b5:bb:f4:3e:f3:
         0c:f7:c8:dc:07:88:48:a9:b0:a6:e3:f2:38:5f:86:06:55:17:
         34:c9:33:af:36:aa:39:07:b7:49:84:d9:94:1d:78:16:be:5d:
         2e:95:13:bd:f2:8a:93:14:e8:da:d3:a5:20:80:45:de:59:b6:
         cb:60:ca:07:49:33:31:3d:aa:f1:66:1b:bd:7a:b0:27:2a:e1:
         9d:ab:37:fe
-----BEGIN CERTIFICATE-----
MIIEszCCA5ugAwIBAgICEB0wDQYJKoZIhvcNAQELBQAwczELMAkGA1UEBhMCRlIx
DDAKBgNVBAgTA0lERjEOMAwGA1UEBxMFUGFyaXMxLzAtBgNVBAoTJkxvY2FsIE5P
REUtT1BDVUEgQ2VydGlmaWNhdGUgQXV0aG9yaXR5MRUwEwYDVQQDEwxOb2RlT1BD
VUEtQ0EwHhcNMjIxMDA5MDAyNDIwWhcNMjMxMDA5MDAyNDIwWjA1MQswCQYDVQQG
EwJGUjESMBAGA1UECgwJTm9kZU9QQ1VBMRIwEAYDVQQDDAlOb2RlT1BDVUEwggEi
MA0GCSqGSIb3DQEBAQUAA4IBDwAwggEKAoIBAQDYHkeusoDsJyXgmKv1J+ctjBPW
Zuf45vmKY6grzxZ0Saz24OrcnE7wmyqkXXYaQvTcSrj1mSTClv6nqxyvCRXZOPd4
9kx+ZpTFTwuGqEOE19DFTWo7rdFOOdZYZG1QGvLsnbWot1H01qytqiDIUOzZP16x
aWXuRFJWs0M/ZxjOxqidk0/4RAILfyUhMI46RoSuNAil3d5a0DAHBENNdN0M2Bp9
fbmFZav226nRon0XVk86RHYZHkbS5nILwBsK6dZDdPGlvekSNkuzUAwQyMCcom0t
iU26sWoBEnAT1iK8MHDgKgMNt+UdtanfPDxK23LLyQZCSgmlG3WItSvD/qqtAgMB
AAGjggGNMIIBiTAMBgNVHRMBAf8EAjAAMB0GA1UdDgQWBBTyyzo+c1cyqC9cY0NX
NlDl21aJSDCBsAYDVR0jBIGoMIGlgBSnFWGatYHH99B2ZQ3af+ze8k/I66F3pHUw
czELMAkGA1UEBhMCRlIxDDAKBgNVBAgTA0lERjEOMAwGA1UEBxMFUGFyaXMxLzAt
BgNVBAoTJkxvY2FsIE5PREUtT1BDVUEgQ2VydGlmaWNhdGUgQXV0aG9yaXR5MRUw
EwYDVQQDEwxOb2RlT1BDVUEtQ0GCFCWhzKCh2pRSUh3n4LfnMNl9+BDdMEcGA1Ud
EQRAMD6GKHVybjpiYzk2ZDczZmIzYjY6Tm9kZU9QQ1VBLVNlcnZlclJldm9rZWSC
DGJjOTZkNzNmYjNiNocEfwAAATAsBglghkgBhvhCAQ0EHxYdT3BlblNTTCBHZW5l
cmF0ZWQgQ2VydGlmaWNhdGUwDgYDVR0PAQH/BAQDAgL8MCAGA1UdJQEB/wQWMBQG
CCsGAQUFBwMBBggrBgEFBQcDAjANBgkqhkiG9w0BAQsFAAOCAQEAQUwwIdSbvrM7
kIgvuiZQ8kBCMu4JFKfykPTIO5C3dgLNV6XtnkD83t2aTgbJEhhfag9UXbEn9klx
qurwgFIWl2hQyUk7IS8Gued+odvsO3R0fEvFTusEvbQuEgH+m73QcuZm7HXjMXA4
xtmd2g2RMZniv/QpAT9HDQSdLfYpftCo22WZr6IbABzcAJUJkelqSbGfXa62VZCO
0/b/KNouyy50LMBo72Gf3ZfAdNpn9rW79D7zDPfI3AeISKmwpuPyOF+GBlUXNMkz
rzaqOQe3SYTZlB14Fr5dLpUTvfKKkxTo2tOlIIBF3lm2y2DKB0kzMT2q8WYbvXqw
Jyrhnas3/g==
-----END CERTIFICATE-----
