Certificate:
    Data:
        Version: 3 (0x2)
        Serial Number: 4127 (0x101f)
        Signature Algorithm: sha256WithRSAEncryption
        Issuer: O=NodeOPCUA, CN=NodeOPCUA
        Validity
            Not Before: Oct  9 00:24:20 2022 GMT
            Not After : Oct  9 00:24:20 2023 GMT
        Subject: O=NodeOPCUA, CN=NodeOPCUA
        Subject Public Key Info:
            Public Key Algorithm: rsaEncryption
                RSA Public-Key: (3072 bit)
                Modulus:
                    00:d1:04:f7:c8:3a:0d:85:d0:41:c7:5b:1e:ee:3b:
                    af:36:54:db:2e:31:a9:c4:d7:06:4c:98:50:c1:2c:
                    40:26:03:f1:4d:9e:47:0c:3b:3a:a6:3b:bb:71:a2:
                    59:89:0e:a1:79:00:15:42:7e:0a:1d:09:a1:e6:01:
                    49:a3:0e:bf:c3:b9:ef:73:b0:b8:76:a2:55:8b:c5:
                    f0:6d:db:a4:09:f3:da:33:48:0e:ca:4c:f9:e3:77:
                    e4:be:9c:f5:09:ca:05:18:91:15:a8:86:08:09:8b:
                    73:40:18:24:88:55:10:38:f9:13:33:eb:01:d8:59:
                    68:db:1f:54:00:6b:26:37:83:d0:85:39:f2:a5:c6:
                    ff:00:84:56:60:6b:86:5c:b0:65:3c:ac:97:7d:61:
                    72:b8:2f:8c:4e:ad:56:a9:21:45:59:1a:06:5a:ed:
                    90:3e:c0:ce:21:e5:7c:e5:3d:2e:2e:45:e9:b7:84:
                    3b:fb:ba:c4:88:53:8a:6a:f9:87:4d:9a:9a:3d:46:
                    54:b8:53:d1:4e:c9:5b:1d:0f:a0:b4:38:29:14:00:
                    ad:17:68:47:df:fb:70:17:41:f0:85:3b:02:22:01:
                    f1:15:6f:72:39:75:c2:97:16:9f:df:84:6f:0d:28:
                    49:7c:4a:6b:36:39:c3:13:c4:fd:16:ce:7a:96:8f:
                    2a:ca:a2:31:a2:0e:9d:bd:f4:4a:af:10:e3:66:fe:
                    3d:89:4d:50:03:32:97:fb:e4:49:98:35:0e:e1:e9:
                    c7:45:fd:3a:2d:10:fa:76:6b:c8:21:a9:ff:a0:ac:
                    b2:0b:a1:cf:4b:53:84:15:e3:98:11:0a:e4:1f:6e:
                    73:64:af:d2:a4:b8:f3:86:de:44:33:6c:1f:7d:49:
                    dc:e5:f0:b2:34:a3:5f:04:65:42:c9:74:e7:3f:92:
                    6f:19:8e:11:58:d8:2f:cc:4f:d2:a9:fa:bd:61:01:
                    74:3e:fd:87:bc:d2:6f:01:5b:3c:b9:87:31:61:88:
                    f5:40:bf:0f:25:39:8b:6f:f7:8d
                Exponent: 65537 (0x10001)
        X509v3 extensions:
            X509v3 Basic Constraints: critical
                CA:FALSE
            X509v3 Subject Key Identifier: 
                C9:FF:89:EA:EE:8C:85:81:4B:01:CA:0A:96:27:85:29:DB:5E:17:69
            X509v3 Authority Key Identifier: 
                keyid:C9:FF:89:EA:EE:8C:85:81:4B:01:CA:0A:96:27:85:29:DB:5E:17:69
                DirName:/O=NodeOPCUA/CN=NodeOPCUA
                serial:10:1F

            X509v3 Subject Alternative Name: 
                URI:urn:bc96d73fb3b6:NodeOPCUA-Server, DNS:bc96d73fb3b6
            Netscape Comment: 
                OpenSSL Generated Certificate
            X509v3 Key Usage: critical
                Digital Signature, Non Repudiation, Key Encipherment, Data Encipherment, Key Agreement, Certificate Sign
            X509v3 Extended Key Usage: critical
                TLS Web Server Authentication, TLS Web Client Authentication
    Signature Algorithm: sha256WithRSAEncryption
         93:b0:c5:3e:1c:e1:57:c2:a4:0e:51:70:96:32:ca:8d:ff:8d:
         f8:2e:3c:71:dc:5b:0e:16:37:88:d5:e5:d8:d9:c2:1a:6f:f1:
         f1:67:07:18:f0:4b:63:c1:bf:3b:0d:28:56:76:20:c1:c3:b8:
         b5:a5:e8:4d:08:7b:62:5a:fc:59:3f:e2:de:0a:8b:6e:00:c0:
         31:49:33:30:59:75:3e:f0:88:89:19:e5:9e:84:d5:ac:f7:0b:
         ff:48:74:6b:71:bb:26:56:ee:3e:84:3c:90:87:ba:56:1f:3b:
         7b:63:07:c1:b5:44:8d:fc:76:4c:4b:c7:55:60:e5:f9:8e:5f:
         2e:79:e0:a6:1c:6d:0a:fe:8b:3d:41:2e:1b:c5:f1:aa:b1:ee:
         6d:aa:3c:f0:4e:f7:8d:54:ee:14:13:8a:53:ed:ee:ff:a4:19:
         28:12:5f:7b:df:8e:d3:16:d9:c8:8a:c5:ac:62:e4:9a:82:f9:
         5b:aa:26:71:b2:f9:9f:b2:89:0b:60:50:b5:d5:67:12:fd:52:
         44:32:99:70:26:fd:75:dd:f8:31:4d:ba:0b:3b:11:32:b8:2a:
         a4:c2:51:ca:08:15:80:fe:dc:6b:f5:03:0e:92:3a:87:f5:33:
         58:d0:05:1c:36:62:00:64:2e:40:77:02:ad:f0:f3:bd:00:2b:
         be:3d:aa:34:92:8c:76:9c:f7:31:42:f7:8d:c6:6b:32:9e:5b:
         13:97:57:f8:6e:13:58:c4:f2:ce:cf:3f:a4:21:64:7f:76:24:
         5b:1e:dc:a1:79:e7:f9:be:4b:00:c2:4e:d2:fd:6a:d0:18:01:
         b6:68:ea:e3:7d:49:6c:ac:33:91:8e:1e:0e:bc:d9:72:34:63:
         3d:ed:1a:ca:f0:5f:64:7d:db:49:d1:58:f7:a3:8f:8a:2c:e4:
         3f:60:6f:68:37:c7:7b:97:f7:46:13:90:a3:b0:cf:9f:f4:55:
         d4:cd:97:8e:bf:16:cf:4b:94:38:4b:a6:b7:51:b8:23:db:75:
         1d:d6:14:7d:32:88
-----BEGIN CERTIFICATE-----
MIIE7jCCA1agAwIBAgICEB8wDQYJKoZIhvcNAQELBQAwKDESMBAGA1UEChMJTm9k
ZU9QQ1VBMRIwEAYDVQQDEwlOb2RlT1BDVUEwHhcNMjIxMDA5MDAyNDIwWhcNMjMx
MDA5MDAyNDIwWjAoMRIwEAYDVQQKEwlOb2RlT1BDVUExEjAQBgNVBAMTCU5vZGVP
UENVQTCCAaIwDQYJKoZIhvcNAQEBBQADggGPADCCAYoCggGBANEE98g6DYXQQcdb
Hu47rzZU2y4xqcTXBkyYUMEsQCYD8U2eRww7OqY7u3GiWYkOoXkAFUJ+Ch0JoeYB
SaMOv8O573OwuHaiVYvF8G3bpAnz2jNIDspM+eN35L6c9QnKBRiRFaiGCAmLc0AY
JIhVEDj5EzPrAdhZaNsfVABrJjeD0IU58qXG/wCEVmBrhlywZTysl31hcrgvjE6t
VqkhRVkaBlrtkD7AziHlfOU9Li5F6beEO/u6xIhTimr5h02amj1GVLhT0U7JWx0P
oLQ4KRQArRdoR9/7cBdB8IU7AiIB8RVvcjl1wpcWn9+Ebw0oSXxKazY5wxPE/RbO
epaPKsqiMaIOnb30Sq8Q42b+PYlNUAMyl/vkSZg1DuHpx0X9Oi0Q+nZryCGp/6Cs
sguhz0tThBXjmBEK5B9uc2Sv0qS484beRDNsH31J3OXwsjSjXwRlQsl05z+SbxmO
EVjYL8xP0qn6vWEBdD79h7zSbwFbPLmHMWGI9UC/DyU5i2/3jQIDAQABo4IBIDCC
ARwwDAYDVR0TAQH/BAIwADAdBgNVHQ4EFgQUyf+J6u6MhYFLAcoKlieFKdteF2kw
UQYDVR0jBEowSIAUyf+J6u6MhYFLAcoKlieFKdteF2mhLKQqMCgxEjAQBgNVBAoT
CU5vZGVPUENVQTESMBAGA1UEAxMJTm9kZU9QQ1VBggIQHzA6BgNVHREEMzAxhiF1
cm46YmM5NmQ3M2ZiM2I2Ok5vZGVPUENVQS1TZXJ2ZXKCDGJjOTZkNzNmYjNiNjAs
BglghkgBhvhCAQ0EHxYdT3BlblNTTCBHZW5lcmF0ZWQgQ2VydGlmaWNhdGUwDgYD
VR0PAQH/BAQDAgL8MCAGA1UdJQEB/wQWMBQGCCsGAQUFBwMBBggrBgEFBQcDAjAN
BgkqhkiG9w0BAQsFAAOCAYEAk7DFPhzhV8KkDlFwljLKjf+N+C48cdxbDhY3iNXl
2NnCGm/x8WcHGPBLY8G/Ow0oVnYgwcO4taXoTQh7Ylr8WT/i3gqLbgDAMUkzMFl1
PvCIiRnlnoTVrPcL/0h0a3G7JlbuPoQ8kIe6Vh87e2MHwbVEjfx2TEvHVWDl+Y5f
LnngphxtCv6LPUEuG8XxqrHubao88E73jVTuFBOKU+3u/6QZKBJfe9+O0xbZyIrF
rGLkmoL5W6omcbL5n7KJC2BQtdVnEv1SRDKZcCb9dd34MU26CzsRMrgqpMJRyggV
gP7ca/UDDpI6h/UzWNAFHDZiAGQuQHcCrfDzvQArvj2qNJKMdpz3MUL3jcZrMp5b
E5dX+G4TWMTyzs8/pCFkf3YkWx7coXnn+b5LAMJO0v1q0BgBtmjq431JbKwzkY4e
DrzZcjRjPe0ayvBfZH3bSdFY96OPiizkP2BvaDfHe5f3RhOQo7DPn/RV1M2Xjr8W
z0uUOEumt1G4I9t1HdYUfTKI
-----END CERTIFICATE-----
