Certificate:
    Data:
        Version: 3 (0x2)
        Serial Number: 4134 (0x1026)
        Signature Algorithm: sha256WithRSAEncryption
        Issuer: C=FR, ST=IDF, L=Paris, O=Local NODE-OPCUA Certificate Authority, CN=NodeOPCUA-CA
        Validity
            Not Before: Oct 10 00:24:20 2023 GMT
            Not After : Oct  9 00:24:20 2024 GMT
        Subject: C=FR, O=NodeOPCUA, CN=NodeOPCUA
        Subject Public Key Info:
            Public Key Algorithm: rsaEncryption
                RSA Public-Key: (4096 bit)
                Modulus:
                    00:ac:f4:43:7d:69:0e:a7:16:e4:9a:63:f5:ed:1d:
                    ed:d7:52:70:2a:43:ee:2b:3f:9f:35:fa:72:db:b8:
                    cf:e1:2a:63:81:6c:cf:ad:67:b3:75:19:c9:63:59:
                    57:b1:a0:be:05:b8:0e:f5:8b:ac:56:bc:73:30:8a:
                    54:fd:13:39:c8:c2:51:9d:e0:a6:28:c8:c0:61:7a:
                    ba:bc:66:26:c1:a2:47:f7:45:e6:9f:86:2e:d6:28:
                    75:d9:31:b2:ea:4c:1e:1f:8a:55:01:61:e1:2d:10:
                    ec:3a:65:b7:49:d6:6c:2b:26:23:41:05:a0:dc:a6:
                    1b:a5:d4:05:e0:3b:eb:b9:be:a9:03:45:18:03:be:
                    52:83:c8:f4:ea:23:4b:f7:4f:6c:b9:af:3f:80:b1:
                    36:6c:4e:78:9a:0c:73:61:04:0e:6a:62:f5:68:3d:
                    a3:08:70:d5:4a:e5:2f:05:cd:8b:41:ea:71:11:31:
                    5b:ea:6c:a7:6e:87:25:c0:59:8b:27:cc:a6:fb:26:
                    fe:1e:d6:b3:44:89:42:e7:a1:d0:fa:0a:bc:c2:4a:
                    3a:17:b1:1b:74:60:3f:50:4b:8f:06:4d:79:b9:e8:
                    a1:aa:41:e5:f3:d0:b2:95:70:8f:39:14:11:7d:9d:
                    52:84:32:63:61:7b:12:74:36:d8:4e:83:32:06:d8:
                    8d:34:6c:23:d7:5a:08:27:9e:a8:4b:12:26:ed:db:
                    c2:5d:5e:ca:b7:e4:0c:b6:2c:e3:c7:b1:a7:9a:f5:
                    30:25:9c:9a:37:5a:8e:52:8b:ae:72:4b:66:0a:26:
                    1a:67:6f:df:8e:2f:c4:25:08:e4:2b:0d:07:2d:7e:
                    a3:a5:c9:58:c8:62:4c:01:07:31:1c:45:e4:0d:1c:
                    be:09:8d:69:3d:f5:68:24:4a:35:02:b3:d3:d8:f3:
                    76:b6:e6:cc:01:d3:37:52:c1:d6:69:5c:6f:e6:80:
                    fa:6b:08:25:19:3f:2b:73:28:2e:a4:f2:38:db:bb:
                    f6:43:95:3b:85:ed:23:d6:b5:10:18:56:26:7c:02:
                    ae:b4:cd:d4:b5:57:1b:b7:6a:09:c0:13:5e:fe:05:
                    72:e2:92:bb:de:5c:c0:ac:6b:4c:5d:52:fa:9d:f5:
                    5e:94:04:34:6e:11:58:96:43:29:7b:e7:d8:a4:0b:
                    35:69:83:e3:8b:ac:81:e6:ea:2d:82:2d:42:50:78:
                    81:ea:36:c4:3e:55:d3:42:eb:66:cb:d0:be:d0:71:
                    85:93:f8:c2:d5:99:ea:e3:f5:90:0d:91:87:6f:74:
                    75:ff:f6:31:bd:7c:f4:5f:5c:8f:0b:f3:15:40:db:
                    f6:0d:45:83:f4:06:04:34:da:b6:3f:f6:ed:7f:81:
                    3b:21:a3
                Exponent: 65537 (0x10001)
        X509v3 extensions:
            X509v3 Basic Constraints: critical
                CA:FALSE
            X509v3 Subject Key Identifier: 
                E0:7A:83:CE:F0:7E:C8:25:58:C1:05:65:59:DC:A0:34:05:98:72:68
            X509v3 Authority Key Identifier: 
                keyid:A7:15:61:9A:B5:81:C7:F7:D0:76:65:0D:DA:7F:EC:DE:F2:4F:C8:EB
                DirName:/C=FR/ST=IDF/L=Paris/O=Local NODE-OPCUA Certificate Authority/CN=NodeOPCUA-CA
                serial:25:A1:CC:A0:A1:DA:94:52:52:1D:E7:E0:B7:E7:30:D9:7D:F8:10:DD

            X509v3 Subject Alternative Name: 
                URI:urn:bc96d73fb3b6:NodeOPCUA-Server, DNS:bc96d73fb3b6, IP Address:127.0.0.1
            Netscape Comment: 
                OpenSSL Generated Certificate
            X509v3 Key Usage: critical
                Digital Signature, Non Repudiation, Key Encipherment, Data Encipherment, Key Agreement, Certificate Sign
            X509v3 Extended Key Usage: critical
                TLS Web Server Authentication, TLS Web Client Authentication
    Signature Algorithm: sha256WithRSAEncryption
         20:b4:9b:95:0f:2b:98:77:80:af:e0:de:54:cc:f0:fe:f4:6a:
         bc:73:37:85:ab:33:45:19:2f:73:12:3e:27:3e:ab:50:14:de:
         7c:b3:dc:45:28:5b:32:a0:ba:d6:d2:67:23:f6:86:2b:cb:44:
         76:a8:3a:40:68:ea:ca:dc:08:c0:ec:fd:81:fe:89:99:56:b8:
         c6:9f:cb:f2:fe:e8:b9:91:ee:c5:58:f5:3d:d6:a1:53:88:7d:
         ae:10:80:f0:bc:f0:c0:69:05:1a:12:0c:6e:ea:98:3c:df:cc:
         32:f2:6c:f0:84:4a:45:a2:77:98:91:e9:2f:74:ab:1e:d0:26:
         b4:86:22:db:ea:b9:0a:4c:2f:d5:25:67:fc:eb:b1:0b:db:e7:
         73:65:87:1a:06:77:e6:33:e4:87:65:bf:a4:f9:90:29:fd:d7:
         a8:79:a3:d1:c1:f0:12:bb:9d:40:3a:34:37:b6:06:db:1c:9e:
         5d:52:4b:a5:a6:33:f3:28:f8:55:70:bc:2b:e4:1c:63:84:34:
         24:5b:1b:d1:13:e0:96:e0:97:86:17:8c:0b:a9:b0:b2:05:7d:
         a3:c2:35:ff:13:aa:c3:9f:59:5e:e6:32:54:10:c4:18:20:28:
         9a:4d:c8:b9:ed:29:53:2d:4d:52:e5:60:d4:4b:8e:fb:df:9e:
         8c:88:cc:d0
-----BEGIN CERTIFICATE-----
MIIFrDCCBJSgAwIBAgICECYwDQYJKoZIhvcNAQELBQAwczELMAkGA1UEBhMCRlIx
DDAKBgNVBAgTA0lERjEOMAwGA1UEBxMFUGFyaXMxLzAtBgNVBAoTJkxvY2FsIE5P
REUtT1BDVUEgQ2VydGlmaWNhdGUgQXV0aG9yaXR5MRUwEwYDVQQDEwxOb2RlT1BD
VUEtQ0EwHhcNMjMxMDEwMDAyNDIwWhcNMjQxMDA5MDAyNDIwWjA1MQswCQYDVQQG
EwJGUjESMBAGA1UECgwJTm9kZU9QQ1VBMRIwEAYDVQQDDAlOb2RlT1BDVUEwggIi
MA0GCSqGSIb3DQEBAQUAA4ICDwAwggIKAoICAQCs9EN9aQ6nFuSaY/XtHe3XUnAq
Q+4rP581+nLbuM/hKmOBbM+tZ7N1GcljWVexoL4FuA71i6xWvHMwilT9EznIwlGd
4KYoyMBherq8ZibBokf3Reafhi7WKHXZMbLqTB4filUBYeEtEOw6ZbdJ1mwrJiNB
BaDcphul1AXgO+u5vqkDRRgDvlKDyPTqI0v3T2y5rz+AsTZsTniaDHNhBA5qYvVo
PaMIcNVK5S8FzYtB6nERMVvqbKduhyXAWYsnzKb7Jv4e1rNEiULnodD6CrzCSjoX
sRt0YD9QS48GTXm56KGqQeXz0LKVcI85FBF9nVKEMmNhexJ0NthOgzIG2I00bCPX
WggnnqhLEibt28JdXsq35Ay2LOPHsaea9TAlnJo3Wo5Si65yS2YKJhpnb9+OL8Ql
COQrDQctfqOlyVjIYkwBBzEcReQNHL4JjWk99WgkSjUCs9PY83a25swB0zdSwdZp
XG/mgPprCCUZPytzKC6k8jjbu/ZDlTuF7SPWtRAYViZ8Aq60zdS1Vxu3agnAE17+
BXLikrveXMCsa0xdUvqd9V6UBDRuEViWQyl759ikCzVpg+OLrIHm6i2CLUJQeIHq
NsQ+VdNC62bL0L7QcYWT+MLVmerj9ZANkYdvdHX/9jG9fPRfXI8L8xVA2/YNRYP0
BgQ02rY/9u1/gTshowIDAQABo4IBhjCCAYIwDAYDVR0TAQH/BAIwADAdBgNVHQ4E
FgQU4HqDzvB+yCVYwQVlWdygNAWYcmgwgbAGA1UdIwSBqDCBpYAUpxVhmrWBx/fQ
dmUN2n/s3vJPyOuhd6R1MHMxCzAJBgNVBAYTAkZSMQwwCgYDVQQIEwNJREYxDjAM
BgNVBAcTBVBhcmlzMS8wLQYDVQQKEyZMb2NhbCBOT0RFLU9QQ1VBIENlcnRpZmlj
YXRlIEF1dGhvcml0eTEVMBMGA1UEAxMMTm9kZU9QQ1VBLUNBghQlocygodqUUlId
5+C35zDZffgQ3TBABgNVHREEOTA3hiF1cm46YmM5NmQ3M2ZiM2I2Ok5vZGVPUENV
QS1TZXJ2ZXKCDGJjOTZkNzNmYjNiNocEfwAAATAsBglghkgBhvhCAQ0EHxYdT3Bl
blNTTCBHZW5lcmF0ZWQgQ2VydGlmaWNhdGUwDgYDVR0PAQH/BAQDAgL8MCAGA1Ud
JQEB/wQWMBQGCCsGAQUFBwMBBggrBgEFBQcDAjANBgkqhkiG9w0BAQsFAAOCAQEA
ILSblQ8rmHeAr+DeVMzw/vRqvHM3haszRRkvcxI+Jz6rUBTefLPcRShbMqC61tJn
I/aGK8tEdqg6QGjqytwIwOz9gf6JmVa4xp/L8v7ouZHuxVj1PdahU4h9rhCA8Lzw
wGkFGhIMbuqYPN/MMvJs8IRKRaJ3mJHpL3SrHtAmtIYi2+q5Ckwv1SVn/OuxC9vn
c2WHGgZ35jPkh2W/pPmQKf3XqHmj0cHwErudQDo0N7YG2xyeXVJLpaYz8yj4VXC8
K+QcY4Q0JFsb0RPgluCXhheMC6mwsgV9o8I1/xOqw59ZXuYyVBDEGCAomk3Iue0p
Uy1NUuVg1EuO+9+ejIjM0A==
-----END CERTIFICATE-----
