Certificate:
    Data:
        Version: 3 (0x2)
        Serial Number: 4136 (0x1028)
        Signature Algorithm: sha256WithRSAEncryption
        Issuer: C=FR, ST=IDF, L=Paris, O=Local NODE-OPCUA Certificate Authority, CN=NodeOPCUA-CA
        Validity
            Not Before: Oct  9 00:24:20 2022 GMT
            Not After : Oct  9 00:24:20 2023 GMT
        Subject: C=FR, O=NodeOPCUA, CN=NodeOPCUA
        Subject Public Key Info:
            Public Key Algorithm: rsaEncryption
                RSA Public-Key: (1024 bit)
                Modulus:
                    00:a6:84:9a:06:dc:9c:df:4b:7b:73:ab:7b:e4:cc:
                    41:8c:63:4a:59:d6:7f:9b:78:6e:f4:f8:99:fc:63:
                    2f:cd:d4:2e:2e:ca:b7:7d:91:cd:65:87:ed:81:4a:
                    df:fe:2d:96:8a:fa:1a:04:51:0d:ab:b2:5f:e1:65:
                    c0:ff:ba:1e:a9:0d:74:27:fe:d9:51:9c:e0:e7:4c:
                    12:ee:c7:42:9a:cd:64:12:f4:67:0b:36:d4:1f:69:
                    fe:ab:3f:db:ce:90:ce:44:24:83:e5:aa:16:0d:1b:
                    00:f6:f5:45:e7:5a:c2:f9:60:06:95:d7:f1:ac:83:
                    8f:d3:5f:cf:0d:07:7c:e5:cf
                Exponent: 65537 (0x10001)
        X509v3 extensions:
            X509v3 Basic Constraints: critical
                CA:FALSE
            X509v3 Subject Key Identifier: 
                27:46:38:6C:97:E3:C4:59:9B:A4:8B:B8:CE:93:15:B7:AF:22:2F:29
            X509v3 Authority Key Identifier: 
                keyid:A7:15:61:9A:B5:81:C7:F7:D0:76:65:0D:DA:7F:EC:DE:F2:4F:C8:EB
                DirName:/C=FR/ST=IDF/L=Paris/O=Local NODE-OPCUA Certificate Authority/CN=NodeOPCUA-CA
                serial:25:A1:CC:A0:A1:DA:94:52:52:1D:E7:E0:B7:E7:30:D9:7D:F8:10:DD

            X509v3 Subject Alternative Name: 
                URI:urn:bc96d73fb3b6:NodeOPCUA-DiscoveryServer, DNS:bc96d73fb3b6, IP Address:127.0.0.1
            Netscape Comment: 
                OpenSSL Generated Certificate
            X509v3 Key Usage: critical
                Digital Signature, Non Repudiation, Key Encipherment, Data Encipherment, Key Agreement, Certificate Sign
            X509v3 Extended Key Usage: critical
                TLS Web Server Authentication, TLS Web Client Authentication
    Signature Algorithm: sha256WithRSAEncryption
         91:15:ca:22:35:02:19:f9:f0:53:46:a3:50:fe:d3:65:6e:64:
         1a:ad:1f:5f:17:2d:3c:9c:6c:6c:fb:93:7f:ec:8c:0f:0e:d2:
         ab:44:d9:fb:59:1b:1c:dd:fd:02:4a:9a:a4:c0:b1:94:e9:2c:
         c1:4b:6f:81:53:28:08:b3:40:d0:9e:7e:e6:e0:c7:f4:d8:de:
         52:8f:c5:b4:73:58:91:db:0f:4f:91:ea:e4:cc:e2:ab:34:ba:
         d7:f8:cd:b3:b7:ca:d2:f1:57:29:3a:59:4c:a3:95:3f:76:b4:
         d6:d0:a3:a0:44:aa:5d:41:21:dc:d2:89:aa:48:13:15:e1:95:
         04:fb:5b:d4:39:c3:5e:63:1f:7f:5d:ce:f3:77:aa:06:69:33:
         3c:38:f6:55:86:4f:c2:91:dd:78:2f:d8:f7:de:c0:ae:10:9e:
         d7:bd:d9:47:89:31:74:80:c2:41:88:8a:0f:4e:65:b6:d0:e5:
         0a:65:69:77:32:10:25:90:95:37:f0:cd:87:25:68:bc:6e:f9:
         e4:3f:f0:2c:aa:7c:2c:03:ab:ea:6e:5e:b4:c1:42:b8:79:a2:
         b1:7c:e3:75:eb:b4:ec:87:4a:7d:67:7c:b1:11:d0:6e:01:e8:
         ba:56:d6:d2:96:74:12:9a:64:b1:de:42:ff:0a:f9:ad:28:07:
         4e:ad:e0:08
-----BEGIN CERTIFICATE-----
MIIEMTCCAxmgAwIBAgICECgwDQYJKoZIhvcNAQELBQAwczELMAkGA1UEBhMCRlIx
DDAKBgNVBAgTA0lERjEOMAwGA1UEBxMFUGFyaXMxLzAtBgNVBAoTJkxvY2FsIE5P
REUtT1BDVUEgQ2VydGlmaWNhdGUgQXV0aG9yaXR5MRUwEwYDVQQDEwxOb2RlT1BD
VUEtQ0EwHhcNMjIxMDA5MDAyNDIwWhcNMjMxMDA5MDAyNDIwWjA1MQswCQYDVQQG
EwJGUjESMBAGA1UECgwJTm9kZU9QQ1VBMRIwEAYDVQQDDAlOb2RlT1BDVUEwgZ8w
DQYJKoZIhvcNAQEBBQADgY0AMIGJAoGBAKaEmgbcnN9Le3Ore+TMQYxjSlnWf5t4
bvT4mfxjL83ULi7Kt32RzWWH7YFK3/4tlor6GgRRDauyX+FlwP+6HqkNdCf+2VGc
4OdMEu7HQprNZBL0Zws21B9p/qs/286QzkQkg+WqFg0bAPb1RedawvlgBpXX8ayD
j9Nfzw0HfOXPAgMBAAGjggGPMIIBizAMBgNVHRMBAf8EAjAAMB0GA1UdDgQWBBQn
Rjhsl+PEWZuki7jOkxW3ryIvKTCBsAYDVR0jBIGoMIGlgBSnFWGatYHH99B2ZQ3a
f+ze8k/I66F3pHUwczELMAkGA1UEBhMCRlIxDDAKBgNVBAgTA0lERjEOMAwGA1UE
BxMFUGFyaXMxLzAtBgNVBAoTJkxvY2FsIE5PREUtT1BDVUEgQ2VydGlmaWNhdGUg
QXV0aG9yaXR5MRUwEwYDVQQDEwxOb2RlT1BDVUEtQ0GCFCWhzKCh2pRSUh3n4Lfn
MNl9+BDdMEkGA1UdEQRCMECGKnVybjpiYzk2ZDczZmIzYjY6Tm9kZU9QQ1VBLURp
c2NvdmVyeVNlcnZlcoIMYmM5NmQ3M2ZiM2I2hwR/AAABMCwGCWCGSAGG+EIBDQQf
Fh1PcGVuU1NMIEdlbmVyYXRlZCBDZXJ0aWZpY2F0ZTAOBgNVHQ8BAf8EBAMCAvww
IAYDVR0lAQH/BBYwFAYIKwYBBQUHAwEGCCsGAQUFBwMCMA0GCSqGSIb3DQEBCwUA
A4IBAQCRFcoiNQIZ+fBTRqNQ/tNlbmQarR9fFy08nGxs+5N/7IwPDtKrRNn7WRsc
3f0CSpqkwLGU6SzBS2+BUygIs0DQnn7m4Mf02N5Sj8W0c1iR2w9PkerkzOKrNLrX
+M2zt8rS8VcpOllMo5U/drTW0KOgRKpdQSHc0omqSBMV4ZUE+1vUOcNeYx9/Xc7z
d6oGaTM8OPZVhk/Ckd14L9j33sCuEJ7XvdlHiTF0gMJBiIoPTmW20OUKZWl3MhAl
kJU38M2HJWi8bvnkP/AsqnwsA6vqbl60wUK4eaKxfON167Tsh0p9Z3yxEdBuAei6
VtbSlnQSmmSx3kL/CvmtKAdOreAI
-----END CERTIFICATE-----
