Certificate:
    Data:
        Version: 3 (0x2)
        Serial Number: 4138 (0x102a)
        Signature Algorithm: sha256WithRSAEncryption
        Issuer: C=FR, ST=IDF, L=Paris, O=Local NODE-OPCUA Certificate Authority, CN=NodeOPCUA-CA
        Validity
            Not Before: Oct 10 00:24:20 2020 GMT
            Not After : Oct 10 00:24:20 2021 GMT
        Subject: C=FR, O=NodeOPCUA, CN=NodeOPCUA
        Subject Public Key Info:
            Public Key Algorithm: rsaEncryption
                RSA Public-Key: (1024 bit)
                Modulus:
                    00:a6:84:9a:06:dc:9c:df:4b:7b:73:ab:7b:e4:cc:
                    41:8c:63:4a:59:d6:7f:9b:78:6e:f4:f8:99:fc:63:
                    2f:cd:d4:2e:2e:ca:b7:7d:91:cd:65:87:ed:81:4a:
                    df:fe:2d:96:8a:fa:1a:04:51:0d:ab:b2:5f:e1:65:
                    c0:ff:ba:1e:a9:0d:74:27:fe:d9:51:9c:e0:e7:4c:
                    12:ee:c7:42:9a:cd:64:12:f4:67:0b:36:d4:1f:69:
                    fe:ab:3f:db:ce:90:ce:44:24:83:e5:aa:16:0d:1b:
                    00:f6:f5:45:e7:5a:c2:f9:60:06:95:d7:f1:ac:83:
                    8f:d3:5f:cf:0d:07:7c:e5:cf
                Exponent: 65537 (0x10001)
        X509v3 extensions:
            X509v3 Basic Constraints: critical
                CA:FALSE
            X509v3 Subject Key Identifier: 
                27:46:38:6C:97:E3:C4:59:9B:A4:8B:B8:CE:93:15:B7:AF:22:2F:29
            X509v3 Authority Key Identifier: 
                keyid:A7:15:61:9A:B5:81:C7:F7:D0:76:65:0D:DA:7F:EC:DE:F2:4F:C8:EB
                DirName:/C=FR/ST=IDF/L=Paris/O=Local NODE-OPCUA Certificate Authority/CN=NodeOPCUA-CA
                serial:25:A1:CC:A0:A1:DA:94:52:52:1D:E7:E0:B7:E7:30:D9:7D:F8:10:DD

            X509v3 Subject Alternative Name: 
                URI:urn:bc96d73fb3b6:NodeOPCUA-DiscoveryServer, DNS:bc96d73fb3b6, IP Address:127.0.0.1
            Netscape Comment: 
                OpenSSL Generated Certificate
            X509v3 Key Usage: critical
                Digital Signature, Non Repudiation, Key Encipherment, Data Encipherment, Key Agreement, Certificate Sign
            X509v3 Extended Key Usage: critical
                TLS Web Server Authentication, TLS Web Client Authentication
    Signature Algorithm: sha256WithRSAEncryption
         70:cd:af:c3:4f:29:5c:05:4b:e2:af:51:40:b5:7b:0b:f4:1c:
         4a:18:9f:0b:4e:8f:81:0b:9e:4a:ec:d4:c6:0e:ec:7c:2f:ef:
         fe:47:1c:ca:48:2d:0b:ac:f6:5c:e7:a0:e8:a8:1d:f1:12:c4:
         97:c3:02:16:6c:ee:61:47:01:6c:c4:1f:33:8e:ea:9a:bc:67:
         bf:23:90:e7:d8:5b:5c:23:3b:e2:99:02:19:bb:c0:8e:2b:7a:
         95:e6:d1:d1:92:4c:d9:33:25:c8:c4:b1:aa:34:59:a6:c9:b0:
         35:3b:31:5f:42:74:e6:e7:f5:de:f3:12:1b:3e:e7:67:56:3e:
         71:8c:71:e1:4e:62:e0:87:80:11:65:6f:f8:87:4f:71:d9:57:
         19:69:c3:9f:36:31:2a:60:30:80:b5:3d:d1:a4:0b:cf:f8:7b:
         23:a5:5a:47:74:ff:5e:07:31:b7:e7:4e:88:5b:d1:d2:a5:d3:
         93:83:9d:55:8e:24:5f:c0:d0:4f:d6:fb:5e:e1:d1:09:2b:0f:
         18:d6:b0:14:68:52:8a:f4:3e:ec:ea:01:0a:35:de:7f:10:1d:
         12:9e:2f:0f:0c:d1:88:39:93:89:b0:d3:3f:0c:c1:28:51:5b:
         7b:43:31:43:fc:c5:9d:36:14:c1:fb:4c:a1:04:df:92:a2:23:
         f2:a9:1b:15
-----BEGIN CERTIFICATE-----
MIIEMTCCAxmgAwIBAgICECowDQYJKoZIhvcNAQELBQAwczELMAkGA1UEBhMCRlIx
DDAKBgNVBAgTA0lERjEOMAwGA1UEBxMFUGFyaXMxLzAtBgNVBAoTJkxvY2FsIE5P
REUtT1BDVUEgQ2VydGlmaWNhdGUgQXV0aG9yaXR5MRUwEwYDVQQDEwxOb2RlT1BD
VUEtQ0EwHhcNMjAxMDEwMDAyNDIwWhcNMjExMDEwMDAyNDIwWjA1MQswCQYDVQQG
EwJGUjESMBAGA1UECgwJTm9kZU9QQ1VBMRIwEAYDVQQDDAlOb2RlT1BDVUEwgZ8w
DQYJKoZIhvcNAQEBBQADgY0AMIGJAoGBAKaEmgbcnN9Le3Ore+TMQYxjSlnWf5t4
bvT4mfxjL83ULi7Kt32RzWWH7YFK3/4tlor6GgRRDauyX+FlwP+6HqkNdCf+2VGc
4OdMEu7HQprNZBL0Zws21B9p/qs/286QzkQkg+WqFg0bAPb1RedawvlgBpXX8ayD
j9Nfzw0HfOXPAgMBAAGjggGPMIIBizAMBgNVHRMBAf8EAjAAMB0GA1UdDgQWBBQn
Rjhsl+PEWZuki7jOkxW3ryIvKTCBsAYDVR0jBIGoMIGlgBSnFWGatYHH99B2ZQ3a
f+ze8k/I66F3pHUwczELMAkGA1UEBhMCRlIxDDAKBgNVBAgTA0lERjEOMAwGA1UE
BxMFUGFyaXMxLzAtBgNVBAoTJkxvY2FsIE5PREUtT1BDVUEgQ2VydGlmaWNhdGUg
QXV0aG9yaXR5MRUwEwYDVQQDEwxOb2RlT1BDVUEtQ0GCFCWhzKCh2pRSUh3n4Lfn
MNl9+BDdMEkGA1UdEQRCMECGKnVybjpiYzk2ZDczZmIzYjY6Tm9kZU9QQ1VBLURp
c2NvdmVyeVNlcnZlcoIMYmM5NmQ3M2ZiM2I2hwR/AAABMCwGCWCGSAGG+EIBDQQf
Fh1PcGVuU1NMIEdlbmVyYXRlZCBDZXJ0aWZpY2F0ZTAOBgNVHQ8BAf8EBAMCAvww
IAYDVR0lAQH/BBYwFAYIKwYBBQUHAwEGCCsGAQUFBwMCMA0GCSqGSIb3DQEBCwUA
A4IBAQBwza/DTylcBUvir1FAtXsL9BxKGJ8LTo+BC55K7NTGDux8L+/+RxzKSC0L
rPZc56DoqB3xEsSXwwIWbO5hRwFsxB8zjuqavGe/I5Dn2FtcIzvimQIZu8COK3qV
5tHRkkzZMyXIxLGqNFmmybA1OzFfQnTm5/Xe8xIbPudnVj5xjHHhTmLgh4ARZW/4
h09x2VcZacOfNjEqYDCAtT3RpAvP+HsjpVpHdP9eBzG3506IW9HSpdOTg51VjiRf
wNBP1vte4dEJKw8Y1rAUaFKK9D7s6gEKNd5/EB0Sni8PDNGIOZOJsNM/DMEoUVt7
QzFD/MWdNhTB+0yhBN+SoiPyqRsV
-----END CERTIFICATE-----
