Certificate:
    Data:
        Version: 3 (0x2)
        Serial Number: 4139 (0x102b)
        Signature Algorithm: sha256WithRSAEncryption
        Issuer: C=FR, ST=IDF, L=Paris, O=Local NODE-OPCUA Certificate Authority, CN=NodeOPCUA-CA
        Validity
            Not Before: Oct 10 00:24:20 2023 GMT
            Not After : Oct  9 00:24:20 2024 GMT
        Subject: C=FR, O=NodeOPCUA, CN=NodeOPCUA
        Subject Public Key Info:
            Public Key Algorithm: rsaEncryption
                RSA Public-Key: (1024 bit)
                Modulus:
                    00:a6:84:9a:06:dc:9c:df:4b:7b:73:ab:7b:e4:cc:
                    41:8c:63:4a:59:d6:7f:9b:78:6e:f4:f8:99:fc:63:
                    2f:cd:d4:2e:2e:ca:b7:7d:91:cd:65:87:ed:81:4a:
                    df:fe:2d:96:8a:fa:1a:04:51:0d:ab:b2:5f:e1:65:
                    c0:ff:ba:1e:a9:0d:74:27:fe:d9:51:9c:e0:e7:4c:
                    12:ee:c7:42:9a:cd:64:12:f4:67:0b:36:d4:1f:69:
                    fe:ab:3f:db:ce:90:ce:44:24:83:e5:aa:16:0d:1b:
                    00:f6:f5:45:e7:5a:c2:f9:60:06:95:d7:f1:ac:83:
                    8f:d3:5f:cf:0d:07:7c:e5:cf
                Exponent: 65537 (0x10001)
        X509v3 extensions:
            X509v3 Basic Constraints: critical
                CA:FALSE
            X509v3 Subject Key Identifier: 
                27:46:38:6C:97:E3:C4:59:9B:A4:8B:B8:CE:93:15:B7:AF:22:2F:29
            X509v3 Authority Key Identifier: 
                keyid:A7:15:61:9A:B5:81:C7:F7:D0:76:65:0D:DA:7F:EC:DE:F2:4F:C8:EB
                DirName:/C=FR/ST=IDF/L=Paris/O=Local NODE-OPCUA Certificate Authority/CN=NodeOPCUA-CA
                serial:25:A1:CC:A0:A1:DA:94:52:52:1D:E7:E0:B7:E7:30:D9:7D:F8:10:DD

            X509v3 Subject Alternative Name: 
                URI:urn:bc96d73fb3b6:NodeOPCUA-DiscoveryServer, DNS:bc96d73fb3b6, IP Address:127.0.0.1
            Netscape Comment: 
                OpenSSL Generated Certificate
            X509v3 Key Usage: critical
                Digital Signature, Non Repudiation, Key Encipherment, Data Encipherment, Key Agreement, Certificate Sign
            X509v3 Extended Key Usage: critical
                TLS Web Server Authentication, TLS Web Client Authentication
    Signature Algorithm: sha256WithRSAEncryption
         4d:ad:01:d8:19:36:15:bc:a1:3c:a2:bf:17:22:30:0c:db:68:
         10:b5:21:28:20:39:55:b0:19:d8:a0:e1:02:1d:96:55:c3:8a:
         dc:15:04:1c:db:0b:38:3d:5e:01:36:2a:e7:d2:ff:6f:8b:15:
         20:af:15:7e:3f:db:29:ca:7e:99:d1:92:c6:1a:69:44:6f:a3:
         28:93:0d:3d:7c:14:32:60:1f:3c:4c:2e:67:d0:ad:a4:49:5c:
         43:5d:e6:59:b7:20:68:d3:63:08:77:64:d1:b0:7d:c3:13:56:
         8a:2f:19:14:ff:82:03:f9:50:25:34:3e:a4:4b:b5:b3:1b:74:
         72:f0:61:f2:5d:2f:3c:24:34:9f:af:8f:f7:cf:78:73:4e:6b:
         73:f9:f4:bc:3e:4d:8f:7b:20:7b:62:09:e5:5e:eb:06:03:a0:
         64:9f:27:89:65:56:80:d5:76:f4:eb:c8:64:30:13:79:8e:58:
         83:31:2a:31:ef:f1:b8:96:68:36:b3:d8:c9:7f:f9:b9:9c:6f:
         2f:13:cd:c3:eb:69:05:33:3d:5b:94:13:48:42:9b:cd:7e:5b:
         ff:07:63:4b:ad:46:a8:19:77:95:ad:fe:6a:c0:a7:74:05:21:
         93:40:c1:5c:92:d0:ab:0f:44:30:7d:34:4f:56:9a:20:f6:8d:
         d6:06:c9:36
-----BEGIN CERTIFICATE-----
MIIEMTCCAxmgAwIBAgICECswDQYJKoZIhvcNAQELBQAwczELMAkGA1UEBhMCRlIx
DDAKBgNVBAgTA0lERjEOMAwGA1UEBxMFUGFyaXMxLzAtBgNVBAoTJkxvY2FsIE5P
REUtT1BDVUEgQ2VydGlmaWNhdGUgQXV0aG9yaXR5MRUwEwYDVQQDEwxOb2RlT1BD
VUEtQ0EwHhcNMjMxMDEwMDAyNDIwWhcNMjQxMDA5MDAyNDIwWjA1MQswCQYDVQQG
EwJGUjESMBAGA1UECgwJTm9kZU9QQ1VBMRIwEAYDVQQDDAlOb2RlT1BDVUEwgZ8w
DQYJKoZIhvcNAQEBBQADgY0AMIGJAoGBAKaEmgbcnN9Le3Ore+TMQYxjSlnWf5t4
bvT4mfxjL83ULi7Kt32RzWWH7YFK3/4tlor6GgRRDauyX+FlwP+6HqkNdCf+2VGc
4OdMEu7HQprNZBL0Zws21B9p/qs/286QzkQkg+WqFg0bAPb1RedawvlgBpXX8ayD
j9Nfzw0HfOXPAgMBAAGjggGPMIIBizAMBgNVHRMBAf8EAjAAMB0GA1UdDgQWBBQn
Rjhsl+PEWZuki7jOkxW3ryIvKTCBsAYDVR0jBIGoMIGlgBSnFWGatYHH99B2ZQ3a
f+ze8k/I66F3pHUwczELMAkGA1UEBhMCRlIxDDAKBgNVBAgTA0lERjEOMAwGA1UE
BxMFUGFyaXMxLzAtBgNVBAoTJkxvY2FsIE5PREUtT1BDVUEgQ2VydGlmaWNhdGUg
QXV0aG9yaXR5MRUwEwYDVQQDEwxOb2RlT1BDVUEtQ0GCFCWhzKCh2pRSUh3n4Lfn
MNl9+BDdMEkGA1UdEQRCMECGKnVybjpiYzk2ZDczZmIzYjY6Tm9kZU9QQ1VBLURp
c2NvdmVyeVNlcnZlcoIMYmM5NmQ3M2ZiM2I2hwR/AAABMCwGCWCGSAGG+EIBDQQf
Fh1PcGVuU1NMIEdlbmVyYXRlZCBDZXJ0aWZpY2F0ZTAOBgNVHQ8BAf8EBAMCAvww
IAYDVR0lAQH/BBYwFAYIKwYBBQUHAwEGCCsGAQUFBwMCMA0GCSqGSIb3DQEBCwUA
A4IBAQBNrQHYGTYVvKE8or8XIjAM22gQtSEoIDlVsBnYoOECHZZVw4rcFQQc2ws4
PV4BNirn0v9vixUgrxV+P9spyn6Z0ZLGGmlEb6Mokw09fBQyYB88TC5n0K2kSVxD
XeZZtyBo02MId2TRsH3DE1aKLxkU/4ID+VAlND6kS7WzG3Ry8GHyXS88JDSfr4/3
z3hzTmtz+fS8Pk2PeyB7YgnlXusGA6BknyeJZVaA1Xb068hkMBN5jliDMSox7/G4
lmg2s9jJf/m5nG8vE83D62kFMz1blBNIQpvNflv/B2NLrUaoGXeVrf5qwKd0BSGT
QMFcktCrD0QwfTRPVpog9o3WBsk2
-----END CERTIFICATE-----
