Certificate:
    Data:
        Version: 3 (0x2)
        Serial Number: 4140 (0x102c)
        Signature Algorithm: sha256WithRSAEncryption
        Issuer: C=FR, ST=IDF, L=Paris, O=Local NODE-OPCUA Certificate Authority, CN=NodeOPCUA-CA
        Validity
            Not Before: Oct  9 00:24:20 2022 GMT
            Not After : Oct  9 00:24:20 2023 GMT
        Subject: C=FR, O=NodeOPCUA, CN=NodeOPCUA
        Subject Public Key Info:
            Public Key Algorithm: rsaEncryption
                RSA Public-Key: (1024 bit)
                Modulus:
                    00:a6:84:9a:06:dc:9c:df:4b:7b:73:ab:7b:e4:cc:
                    41:8c:63:4a:59:d6:7f:9b:78:6e:f4:f8:99:fc:63:
                    2f:cd:d4:2e:2e:ca:b7:7d:91:cd:65:87:ed:81:4a:
                    df:fe:2d:96:8a:fa:1a:04:51:0d:ab:b2:5f:e1:65:
                    c0:ff:ba:1e:a9:0d:74:27:fe:d9:51:9c:e0:e7:4c:
                    12:ee:c7:42:9a:cd:64:12:f4:67:0b:36:d4:1f:69:
                    fe:ab:3f:db:ce:90:ce:44:24:83:e5:aa:16:0d:1b:
                    00:f6:f5:45:e7:5a:c2:f9:60:06:95:d7:f1:ac:83:
                    8f:d3:5f:cf:0d:07:7c:e5:cf
                Exponent: 65537 (0x10001)
        X509v3 extensions:
            X509v3 Basic Constraints: critical
                CA:FALSE
            X509v3 Subject Key Identifier: 
                27:46:38:6C:97:E3:C4:59:9B:A4:8B:B8:CE:93:15:B7:AF:22:2F:29
            X509v3 Authority Key Identifier: 
                keyid:A7:15:61:9A:B5:81:C7:F7:D0:76:65:0D:DA:7F:EC:DE:F2:4F:C8:EB
                DirName:/C=FR/ST=IDF/L=Paris/O=Local NODE-OPCUA Certificate Authority/CN=NodeOPCUA-CA
                serial:25:A1:CC:A0:A1:DA:94:52:52:1D:E7:E0:B7:E7:30:D9:7D:F8:10:DD

            X509v3 Subject Alternative Name: 
                URI:urn:bc96d73fb3b6:NodeOPCUA-DiscoveryServerRevoked, DNS:bc96d73fb3b6, IP Address:127.0.0.1
            Netscape Comment: 
                OpenSSL Generated Certificate
            X509v3 Key Usage: critical
                Digital Signature, Non Repudiation, Key Encipherment, Data Encipherment, Key Agreement, Certificate Sign
            X509v3 Extended Key Usage: critical
                TLS Web Server Authentication, TLS Web Client Authentication
    Signature Algorithm: sha256WithRSAEncryption
         43:b0:86:1f:83:ca:26:9b:46:22:53:34:1b:26:34:15:b5:2b:
         e8:cf:c9:6e:d3:5b:b9:3a:e9:d4:48:10:f1:92:a2:1e:4d:77:
         50:e1:21:e4:7c:1a:65:ad:2f:d7:0f:49:bb:3f:d6:56:a4:68:
         62:5e:db:8e:22:99:6d:ed:d1:4c:35:79:bd:72:c3:c9:5e:50:
         86:8b:6a:e9:cd:f3:03:64:7e:a3:c2:a1:e5:9f:41:c8:3e:64:
         aa:fd:80:18:29:46:56:2d:b8:84:8e:6d:06:1d:f2:26:d7:ec:
         ed:f4:42:60:4b:cd:ed:e6:ef:c8:4e:b4:a2:e0:13:aa:dd:ec:
         60:fc:e8:92:2f:8c:14:2e:f5:94:50:49:3a:d1:11:cb:14:23:
         73:27:7d:78:28:0b:cb:95:04:86:a2:6f:97:2d:9f:82:ae:b8:
         95:38:5a:79:2b:61:6a:56:32:cd:d0:b7:3b:e9:e3:49:b4:ad:
         7b:74:ed:b2:5d:11:2d:8f:17:b8:83:16:b4:94:9f:b8:05:ed:
         85:59:95:47:cc:2e:45:75:23:f3:68:33:c6:a4:13:bd:43:0f:
         ca:47:5e:7f:3c:6e:61:5b:99:e3:79:12:e4:b4:a6:7d:6a:85:
         8e:92:d4:4f:5a:27:53:cd:a7:4a:04:21:74:6c:c4:c2:a3:a1:
         11:2c:74:93
-----BEGIN CERTIFICATE-----
MIIEODCCAyCgAwIBAgICECwwDQYJKoZIhvcNAQELBQAwczELMAkGA1UEBhMCRlIx
DDAKBgNVBAgTA0lERjEOMAwGA1UEBxMFUGFyaXMxLzAtBgNVBAoTJkxvY2FsIE5P
REUtT1BDVUEgQ2VydGlmaWNhdGUgQXV0aG9yaXR5MRUwEwYDVQQDEwxOb2RlT1BD
VUEtQ0EwHhcNMjIxMDA5MDAyNDIwWhcNMjMxMDA5MDAyNDIwWjA1MQswCQYDVQQG
EwJGUjESMBAGA1UECgwJTm9kZU9QQ1VBMRIwEAYDVQQDDAlOb2RlT1BDVUEwgZ8w
DQYJKoZIhvcNAQEBBQADgY0AMIGJAoGBAKaEmgbcnN9Le3Ore+TMQYxjSlnWf5t4
bvT4mfxjL83ULi7Kt32RzWWH7YFK3/4tlor6GgRRDauyX+FlwP+6HqkNdCf+2VGc
4OdMEu7HQprNZBL0Zws21B9p/qs/286QzkQkg+WqFg0bAPb1RedawvlgBpXX8ayD
j9Nfzw0HfOXPAgMBAAGjggGWMIIBkjAMBgNVHRMBAf8EAjAAMB0GA1UdDgQWBBQn
Rjhsl+PEWZuki7jOkxW3ryIvKTCBsAYDVR0jBIGoMIGlgBSnFWGatYHH99B2ZQ3a
f+ze8k/I66F3pHUwczELMAkGA1UEBhMCRlIxDDAKBgNVBAgTA0lERjEOMAwGA1UE
BxMFUGFyaXMxLzAtBgNVBAoTJkxvY2FsIE5PREUtT1BDVUEgQ2VydGlmaWNhdGUg
QXV0aG9yaXR5MRUwEwYDVQQDEwxOb2RlT1BDVUEtQ0GCFCWhzKCh2pRSUh3n4Lfn
MNl9+BDdMFAGA1UdEQRJMEeGMXVybjpiYzk2ZDczZmIzYjY6Tm9kZU9QQ1VBLURp
c2NvdmVyeVNlcnZlclJldm9rZWSCDGJjOTZkNzNmYjNiNocEfwAAATAsBglghkgB
hvhCAQ0EHxYdT3BlblNTTCBHZW5lcmF0ZWQgQ2VydGlmaWNhdGUwDgYDVR0PAQH/
BAQDAgL8MCAGA1UdJQEB/wQWMBQGCCsGAQUFBwMBBggrBgEFBQcDAjANBgkqhkiG
9w0BAQsFAAOCAQEAQ7CGH4PKJptGIlM0GyY0FbUr6M/JbtNbuTrp1EgQ8ZKiHk13
UOEh5HwaZa0v1w9Juz/WVqRoYl7bjiKZbe3RTDV5vXLDyV5Qhotq6c3zA2R+o8Kh
5Z9ByD5kqv2AGClGVi24hI5tBh3yJtfs7fRCYEvN7ebvyE60ouATqt3sYPzoki+M
FC71lFBJOtERyxQjcyd9eCgLy5UEhqJvly2fgq64lThaeSthalYyzdC3O+njSbSt
e3Ttsl0RLY8XuIMWtJSfuAXthVmVR8wuRXUj82gzxqQTvUMPykdefzxuYVuZ43kS
5LSmfWqFjpLUT1onU82nSgQhdGzEwqOhESx0kw==
-----END CERTIFICATE-----
