Certificate:
    Data:
        Version: 3 (0x2)
        Serial Number: 4142 (0x102e)
        Signature Algorithm: sha256WithRSAEncryption
        Issuer: O=NodeOPCUA, CN=NodeOPCUA
        Validity
            Not Before: Oct  9 00:24:20 2022 GMT
            Not After : Oct  9 00:24:20 2023 GMT
        Subject: O=NodeOPCUA, CN=NodeOPCUA
        Subject Public Key Info:
            Public Key Algorithm: rsaEncryption
                RSA Public-Key: (2048 bit)
                Modulus:
                    00:f1:61:cf:e4:4d:fc:61:50:0e:9e:31:ac:f4:22:
                    66:60:df:3b:b5:77:b4:bc:55:5d:39:f3:83:06:19:
                    59:2e:cb:cf:38:6f:01:24:a5:eb:59:d1:9d:41:d2:
                    65:9d:62:ff:6e:91:d1:d1:3d:17:a0:39:bd:8d:a5:
                    bf:32:e2:61:db:8c:99:c5:e7:94:8e:6c:15:66:63:
                    c9:ff:ed:20:2d:70:c7:5f:f4:95:1f:76:f8:72:12:
                    5c:e5:b4:ea:5b:c7:89:d2:72:c4:dc:e7:f9:b7:6b:
                    e6:c2:c2:e2:09:07:31:a4:7d:88:75:0b:8a:80:74:
                    8e:e6:2d:fe:20:1b:bc:55:60:1b:8f:64:da:ce:e6:
                    d4:78:f1:d2:31:ba:a0:a9:cc:fe:1b:8a:e5:46:98:
                    f5:ac:65:65:20:1c:4a:00:65:e6:b3:c6:26:c9:9b:
                    99:1a:dc:96:ce:e1:b6:9c:28:10:ad:ad:e1:b7:92:
                    cd:0e:09:33:24:76:43:ec:b4:47:77:5e:e4:ea:67:
                    39:b8:dd:06:29:08:3a:71:8f:34:66:47:f4:fe:7e:
                    b8:78:04:da:a3:b2:2d:5c:b2:55:eb:9d:d8:91:31:
                    7a:7d:8e:7e:aa:15:6d:1e:b8:a2:42:07:b9:3a:b6:
                    b5:7d:d5:6b:06:3d:f2:4e:9e:fb:4c:ff:e8:06:77:
                    42:57
                Exponent: 65537 (0x10001)
        X509v3 extensions:
            X509v3 Basic Constraints: critical
                CA:FALSE
            X509v3 Subject Key Identifier: 
                54:D4:48:79:3C:72:02:C3:D4:ED:A9:6A:B3:90:E3:79:49:57:1A:23
            X509v3 Authority Key Identifier: 
                keyid:54:D4:48:79:3C:72:02:C3:D4:ED:A9:6A:B3:90:E3:79:49:57:1A:23
                DirName:/O=NodeOPCUA/CN=NodeOPCUA
                serial:10:2E

            X509v3 Subject Alternative Name: 
                URI:urn:bc96d73fb3b6:NodeOPCUA-DiscoveryServer, DNS:bc96d73fb3b6
            Netscape Comment: 
                OpenSSL Generated Certificate
            X509v3 Key Usage: critical
                Digital Signature, Non Repudiation, Key Encipherment, Data Encipherment, Key Agreement, Certificate Sign
            X509v3 Extended Key Usage: critical
                TLS Web Server Authentication, TLS Web Client Authentication
    Signature Algorithm: sha256WithRSAEncryption
         33:2c:02:3e:05:e5:78:46:26:00:79:ac:bd:84:79:b3:dd:92:
         2e:6a:00:71:0a:06:7e:1a:e5:8d:e8:6b:0b:ab:de:72:4d:fe:
         e3:c9:76:e5:e7:89:aa:4e:d7:16:63:ba:ae:0c:35:fb:fb:4f:
         05:3e:9e:20:ad:ca:a1:81:ac:cd:11:e7:6a:ff:ac:a2:a7:e4:
         6d:a9:b3:2b:40:5f:44:ba:8c:96:2b:52:e8:18:39:1c:a6:e6:
         75:0b:85:e9:89:f3:13:9b:3c:06:b3:56:8a:b8:7f:b9:7f:b2:
         77:92:54:53:88:8b:2d:f8:e2:17:b4:30:57:c7:09:f2:30:4f:
         58:74:a9:a4:d4:50:21:29:65:48:60:8c:1f:7a:d1:f9:5b:50:
         19:34:98:56:39:54:78:5a:58:d6:31:1d:32:99:6c:1b:89:b1:
         dc:01:37:46:4b:be:f5:65:3e:a9:e8:ca:72:9c:f4:32:b6:af:
         a2:d4:89:cd:97:9d:5c:bb:46:47:5e:69:88:f2:01:b6:44:f2:
         9f:49:e1:b8:7e:1f:49:40:e6:f6:58:c8:2d:0c:3a:b3:02:00:
         6e:be:a9:95:5d:45:3c:8e:53:b6:d4:19:02:23:fd:d2:40:79:
         00:f2:90:68:4e:fc:30:ce:bd:18:d5:2c:4c:bf:5f:04:4a:d6:
         fb:07:2c:fd
-----BEGIN CERTIFICATE-----
MIID9zCCAt+gAwIBAgICEC4wDQYJKoZIhvcNAQELBQAwKDESMBAGA1UEChMJTm9k
ZU9QQ1VBMRIwEAYDVQQDEwlOb2RlT1BDVUEwHhcNMjIxMDA5MDAyNDIwWhcNMjMx
MDA5MDAyNDIwWjAoMRIwEAYDVQQKEwlOb2RlT1BDVUExEjAQBgNVBAMTCU5vZGVP
UENVQTCCASIwDQYJKoZIhvcNAQEBBQADggEPADCCAQoCggEBAPFhz+RN/GFQDp4x
rPQiZmDfO7V3tLxVXTnzgwYZWS7LzzhvASSl61nRnUHSZZ1i/26R0dE9F6A5vY2l
vzLiYduMmcXnlI5sFWZjyf/tIC1wx1/0lR92+HISXOW06lvHidJyxNzn+bdr5sLC
4gkHMaR9iHULioB0juYt/iAbvFVgG49k2s7m1Hjx0jG6oKnM/huK5UaY9axlZSAc
SgBl5rPGJsmbmRrcls7htpwoEK2t4beSzQ4JMyR2Q+y0R3de5OpnObjdBikIOnGP
NGZH9P5+uHgE2qOyLVyyVeud2JExen2OfqoVbR64okIHuTq2tX3VawY98k6e+0z/
6AZ3QlcCAwEAAaOCASkwggElMAwGA1UdEwEB/wQCMAAwHQYDVR0OBBYEFFTUSHk8
cgLD1O2parOQ43lJVxojMFEGA1UdIwRKMEiAFFTUSHk8cgLD1O2parOQ43lJVxoj
oSykKjAoMRIwEAYDVQQKEwlOb2RlT1BDVUExEjAQBgNVBAMTCU5vZGVPUENVQYIC
EC4wQwYDVR0RBDwwOoYqdXJuOmJjOTZkNzNmYjNiNjpOb2RlT1BDVUEtRGlzY292
ZXJ5U2VydmVyggxiYzk2ZDczZmIzYjYwLAYJYIZIAYb4QgENBB8WHU9wZW5TU0wg
R2VuZXJhdGVkIENlcnRpZmljYXRlMA4GA1UdDwEB/wQEAwIC/DAgBgNVHSUBAf8E
FjAUBggrBgEFBQcDAQYIKwYBBQUHAwIwDQYJKoZIhvcNAQELBQADggEBADMsAj4F
5XhGJgB5rL2EebPdki5qAHEKBn4a5Y3oawur3nJN/uPJduXniapO1xZjuq4MNfv7
TwU+niCtyqGBrM0R52r/rKKn5G2psytAX0S6jJYrUugYORym5nULhemJ8xObPAaz
Voq4f7l/sneSVFOIiy344he0MFfHCfIwT1h0qaTUUCEpZUhgjB960flbUBk0mFY5
VHhaWNYxHTKZbBuJsdwBN0ZLvvVlPqnoynKc9DK2r6LUic2XnVy7RkdeaYjyAbZE
8p9J4bh+H0lA5vZYyC0MOrMCAG6+qZVdRTyOU7bUGQIj/dJAeQDykGhO/DDOvRjV
LEy/XwRK1vsHLP0=
-----END CERTIFICATE-----
