Certificate:
    Data:
        Version: 3 (0x2)
        Serial Number: 4144 (0x1030)
        Signature Algorithm: sha256WithRSAEncryption
        Issuer: C=FR, ST=IDF, L=Paris, O=Local NODE-OPCUA Certificate Authority, CN=NodeOPCUA-CA
        Validity
            Not Before: Oct 10 00:24:20 2023 GMT
            Not After : Oct  9 00:24:20 2024 GMT
        Subject: C=FR, O=NodeOPCUA, CN=NodeOPCUA
        Subject Public Key Info:
            Public Key Algorithm: rsaEncryption
                RSA Public-Key: (2048 bit)
                Modulus:
                    00:f1:61:cf:e4:4d:fc:61:50:0e:9e:31:ac:f4:22:
                    66:60:df:3b:b5:77:b4:bc:55:5d:39:f3:83:06:19:
                    59:2e:cb:cf:38:6f:01:24:a5:eb:59:d1:9d:41:d2:
                    65:9d:62:ff:6e:91:d1:d1:3d:17:a0:39:bd:8d:a5:
                    bf:32:e2:61:db:8c:99:c5:e7:94:8e:6c:15:66:63:
                    c9:ff:ed:20:2d:70:c7:5f:f4:95:1f:76:f8:72:12:
                    5c:e5:b4:ea:5b:c7:89:d2:72:c4:dc:e7:f9:b7:6b:
                    e6:c2:c2:e2:09:07:31:a4:7d:88:75:0b:8a:80:74:
                    8e:e6:2d:fe:20:1b:bc:55:60:1b:8f:64:da:ce:e6:
                    d4:78:f1:d2:31:ba:a0:a9:cc:fe:1b:8a:e5:46:98:
                    f5:ac:65:65:20:1c:4a:00:65:e6:b3:c6:26:c9:9b:
                    99:1a:dc:96:ce:e1:b6:9c:28:10:ad:ad:e1:b7:92:
                    cd:0e:09:33:24:76:43:ec:b4:47:77:5e:e4:ea:67:
                    39:b8:dd:06:29:08:3a:71:8f:34:66:47:f4:fe:7e:
                    b8:78:04:da:a3:b2:2d:5c:b2:55:eb:9d:d8:91:31:
                    7a:7d:8e:7e:aa:15:6d:1e:b8:a2:42:07:b9:3a:b6:
                    b5:7d:d5:6b:06:3d:f2:4e:9e:fb:4c:ff:e8:06:77:
                    42:57
                Exponent: 65537 (0x10001)
        X509v3 extensions:
            X509v3 Basic Constraints: critical
                CA:FALSE
            X509v3 Subject Key Identifier: 
                54:D4:48:79:3C:72:02:C3:D4:ED:A9:6A:B3:90:E3:79:49:57:1A:23
            X509v3 Authority Key Identifier: 
                keyid:A7:15:61:9A:B5:81:C7:F7:D0:76:65:0D:DA:7F:EC:DE:F2:4F:C8:EB
                DirName:/C=FR/ST=IDF/L=Paris/O=Local NODE-OPCUA Certificate Authority/CN=NodeOPCUA-CA
                serial:25:A1:CC:A0:A1:DA:94:52:52:1D:E7:E0:B7:E7:30:D9:7D:F8:10:DD

            X509v3 Subject Alternative Name: 
                URI:urn:bc96d73fb3b6:NodeOPCUA-DiscoveryServer, DNS:bc96d73fb3b6, IP Address:127.0.0.1
            Netscape Comment: 
                OpenSSL Generated Certificate
            X509v3 Key Usage: critical
                Digital Signature, Non Repudiation, Key Encipherment, Data Encipherment, Key Agreement, Certificate Sign
            X509v3 Extended Key Usage: critical
                TLS Web Server Authentication, TLS Web Client Authentication
    Signature Algorithm: sha256WithRSAEncryption
         06:07:13:0b:6a:81:d2:6f:96:fd:9e:e5:10:e5:76:c6:f3:44:
         ab:6e:ba:ee:9a:77:1b:90:52:ca:fe:3e:ea:a1:43:61:b7:fc:
         c8:cd:9b:af:59:86:d6:29:08:64:8b:37:25:69:96:34:98:3d:
         86:df:dc:74:43:2a:ee:e2:6e:37:01:99:78:1e:df:be:58:c5:
         bc:27:13:22:db:dc:06:72:13:09:4a:68:7e:9b:d5:78:7d:1a:
         9f:34:5d:31:02:c7:84:32:f8:72:6d:7f:35:0f:f1:67:25:94:
         60:55:f7:2c:5e:9d:4b:70:24:91:be:23:b9:c2:ab:ed:d8:4f:
         6d:76:48:39:28:b2:0d:06:e1:d4:0b:c0:92:ce:9c:87:40:d8:
         9f:4d:f5:13:aa:2e:7e:2d:4c:9f:3e:58:b3:e0:8f:3a:95:0d:
         1b:95:d2:65:29:88:ef:bf:71:f5:c3:52:e4:d1:22:b9:37:6d:
         50:e6:c0:dd:f0:be:d2:09:ad:29:7a:84:f7:c8:22:0c:61:40:
         11:f1:38:92:d9:8d:89:29:aa:61:e6:f0:12:50:0b:4a:c1:1c:
         14:ee:a3:58:5f:ae:fb:a4:dc:cd:09:a4:b6:dc:61:e8:42:09:
         f5:5d:65:b8:01:af:04:57:a1:67:11:39:63:da:f2:6e:93:86:
         dc:30:b2:dc
-----BEGIN CERTIFICATE-----
MIIEtTCCA52gAwIBAgICEDAwDQYJKoZIhvcNAQELBQAwczELMAkGA1UEBhMCRlIx
DDAKBgNVBAgTA0lERjEOMAwGA1UEBxMFUGFyaXMxLzAtBgNVBAoTJkxvY2FsIE5P
REUtT1BDVUEgQ2VydGlmaWNhdGUgQXV0aG9yaXR5MRUwEwYDVQQDEwxOb2RlT1BD
VUEtQ0EwHhcNMjMxMDEwMDAyNDIwWhcNMjQxMDA5MDAyNDIwWjA1MQswCQYDVQQG
EwJGUjESMBAGA1UECgwJTm9kZU9QQ1VBMRIwEAYDVQQDDAlOb2RlT1BDVUEwggEi
MA0GCSqGSIb3DQEBAQUAA4IBDwAwggEKAoIBAQDxYc/kTfxhUA6eMaz0ImZg3zu1
d7S8VV0584MGGVkuy884bwEkpetZ0Z1B0mWdYv9ukdHRPRegOb2Npb8y4mHbjJnF
55SObBVmY8n/7SAtcMdf9JUfdvhyElzltOpbx4nScsTc5/m3a+bCwuIJBzGkfYh1
C4qAdI7mLf4gG7xVYBuPZNrO5tR48dIxuqCpzP4biuVGmPWsZWUgHEoAZeazxibJ
m5ka3JbO4bacKBCtreG3ks0OCTMkdkPstEd3XuTqZzm43QYpCDpxjzRmR/T+frh4
BNqjsi1cslXrndiRMXp9jn6qFW0euKJCB7k6trV91WsGPfJOnvtM/+gGd0JXAgMB
AAGjggGPMIIBizAMBgNVHRMBAf8EAjAAMB0GA1UdDgQWBBRU1Eh5PHICw9TtqWqz
kON5SVcaIzCBsAYDVR0jBIGoMIGlgBSnFWGatYHH99B2ZQ3af+ze8k/I66F3pHUw
czELMAkGA1UEBhMCRlIxDDAKBgNVBAgTA0lERjEOMAwGA1UEBxMFUGFyaXMxLzAt
BgNVBAoTJkxvY2FsIE5PREUtT1BDVUEgQ2VydGlmaWNhdGUgQXV0aG9yaXR5MRUw
EwYDVQQDEwxOb2RlT1BDVUEtQ0GCFCWhzKCh2pRSUh3n4LfnMNl9+BDdMEkGA1Ud
EQRCMECGKnVybjpiYzk2ZDczZmIzYjY6Tm9kZU9QQ1VBLURpc2NvdmVyeVNlcnZl
coIMYmM5NmQ3M2ZiM2I2hwR/AAABMCwGCWCGSAGG+EIBDQQfFh1PcGVuU1NMIEdl
bmVyYXRlZCBDZXJ0aWZpY2F0ZTAOBgNVHQ8BAf8EBAMCAvwwIAYDVR0lAQH/BBYw
FAYIKwYBBQUHAwEGCCsGAQUFBwMCMA0GCSqGSIb3DQEBCwUAA4IBAQAGBxMLaoHS
b5b9nuUQ5XbG80SrbrrumncbkFLK/j7qoUNht/zIzZuvWYbWKQhkizclaZY0mD2G
39x0Qyru4m43AZl4Ht++WMW8JxMi29wGchMJSmh+m9V4fRqfNF0xAseEMvhybX81
D/FnJZRgVfcsXp1LcCSRviO5wqvt2E9tdkg5KLINBuHUC8CSzpyHQNifTfUTqi5+
LUyfPliz4I86lQ0bldJlKYjvv3H1w1Lk0SK5N21Q5sDd8L7SCa0peoT3yCIMYUAR
8TiS2Y2JKaph5vASUAtKwRwU7qNYX677pNzNCaS23GHoQgn1XWW4Aa8EV6FnETlj
2vJuk4bcMLLc
-----END CERTIFICATE-----
