Certificate:
    Data:
        Version: 3 (0x2)
        Serial Number: 4146 (0x1032)
        Signature Algorithm: sha256WithRSAEncryption
        Issuer: C=FR, ST=IDF, L=Paris, O=Local NODE-OPCUA Certificate Authority, CN=NodeOPCUA-CA
        Validity
            Not Before: Oct  9 00:24:20 2022 GMT
            Not After : Oct  9 00:24:20 2023 GMT
        Subject: C=FR, O=NodeOPCUA, CN=NodeOPCUA
        Subject Public Key Info:
            Public Key Algorithm: rsaEncryption
                RSA Public-Key: (3072 bit)
                Modulus:
                    00:c6:6f:33:41:01:74:8b:ed:dd:51:ad:53:aa:08:
                    bb:89:4a:a8:42:75:53:69:be:23:fd:8e:9b:19:79:
                    fe:79:70:95:8b:fd:2b:50:1b:7e:49:29:6b:de:42:
                    d4:5d:8d:1b:25:0f:dc:c6:4d:c7:47:2f:88:7e:da:
                    4d:fd:33:b7:bc:89:d6:52:3f:cd:5b:b9:53:e5:8d:
                    91:d0:54:c2:77:c0:27:a2:78:7a:cf:3c:11:df:28:
                    ad:a2:d0:5e:7d:89:dc:ba:6c:f7:d0:c6:ab:ba:90:
                    b2:c1:c8:15:b5:00:04:cf:10:b8:33:89:a0:67:f8:
                    d1:c7:a3:dc:ba:fd:fb:54:1d:53:32:70:08:8f:af:
                    8e:1e:e8:86:b5:9c:92:02:28:79:4a:3b:37:26:bc:
                    bb:69:12:d9:40:83:e0:dd:72:af:ba:a9:a7:b8:ad:
                    d8:70:34:8c:e0:08:87:86:4b:dd:4b:b5:29:f3:5c:
                    e9:98:ce:e5:48:87:bb:e6:4c:ea:e2:b3:33:dc:49:
                    93:11:dc:79:4c:88:db:78:36:27:90:89:fc:5d:31:
                    60:fd:e9:d1:45:cb:bb:dd:e1:ed:a9:c0:70:b5:61:
                    ef:71:7e:84:b1:1b:43:2c:4b:a4:c1:17:43:64:f9:
                    5c:ab:c7:b9:ec:d7:77:2c:78:49:4e:0a:c9:8b:b8:
                    06:16:a4:8e:e5:2c:74:42:48:40:61:2c:01:e6:8d:
                    f6:89:05:bb:07:0e:6c:7b:ad:3f:09:7c:55:8d:15:
                    77:e2:21:42:c0:cb:83:24:74:d9:31:12:bf:14:5a:
                    e4:f1:97:2b:9e:7d:7d:04:03:44:5f:1c:e1:20:fa:
                    2c:70:20:f8:fe:9b:a1:f0:0e:f3:64:8b:85:8c:10:
                    98:27:05:ee:ae:b5:86:b9:d4:d3:fc:b3:c0:5a:3a:
                    1c:06:36:d7:94:29:22:99:3d:33:8d:4f:05:98:8a:
                    d6:08:85:6f:1b:d0:3f:5f:15:e2:f7:dd:d5:2d:55:
                    49:7c:11:90:57:20:8a:ef:21:6f
                Exponent: 65537 (0x10001)
        X509v3 extensions:
            X509v3 Basic Constraints: critical
                CA:FALSE
            X509v3 Subject Key Identifier: 
                8E:70:0D:51:FC:87:9E:C7:79:A7:82:00:C6:C3:2C:EC:5C:65:F8:49
            X509v3 Authority Key Identifier: 
                keyid:A7:15:61:9A:B5:81:C7:F7:D0:76:65:0D:DA:7F:EC:DE:F2:4F:C8:EB
                DirName:/C=FR/ST=IDF/L=Paris/O=Local NODE-OPCUA Certificate Authority/CN=NodeOPCUA-CA
                serial:25:A1:CC:A0:A1:DA:94:52:52:1D:E7:E0:B7:E7:30:D9:7D:F8:10:DD

            X509v3 Subject Alternative Name: 
                URI:urn:bc96d73fb3b6:NodeOPCUA-DiscoveryServer, DNS:bc96d73fb3b6, IP Address:127.0.0.1
            Netscape Comment: 
                OpenSSL Generated Certificate
            X509v3 Key Usage: critical
                Digital Signature, Non Repudiation, Key Encipherment, Data Encipherment, Key Agreement, Certificate Sign
            X509v3 Extended Key Usage: critical
                TLS Web Server Authentication, TLS Web Client Authentication
    Signature Algorithm: sha256WithRSAEncryption
         a9:aa:e8:01:bd:bb:2a:86:a7:7f:4f:35:95:50:3a:ba:35:7f:
         5f:1c:0e:c4:ba:7e:14:89:91:05:09:08:f3:c1:eb:b8:5b:5a:
         bf:0c:1f:1d:f8:02:40:fd:f1:b0:5b:27:b3:ff:56:b5:2d:1f:
         7c:5c:5a:d1:35:dc:bb:e6:e7:fa:bf:2b:8b:12:18:71:33:77:
         ae:29:af:ca:3c:c6:12:50:e0:3d:e7:44:1b:4f:67:47:01:95:
         1d:c5:1f:ce:85:3d:26:8d:81:5d:94:ef:6e:09:8a:10:77:cf:
         3c:44:02:06:69:31:69:e7:22:65:9e:cb:4a:05:25:85:61:ef:
         63:99:86:c9:50:16:88:79:eb:d7:85:ab:8b:59:6b:ab:fe:f2:
         f3:e0:35:78:04:ea:ca:d9:e3:be:56:fd:67:87:c8:36:53:8e:
         b1:ad:08:bf:ee:3f:00:33:f1:43:bf:e7:e9:e3:93:19:9b:c5:
         45:b3:2d:c0:e6:d7:bb:8f:eb:e6:d5:bd:50:84:bb:cd:a6:90:
         51:c2:26:e1:79:a1:c3:8a:66:df:0f:fa:90:71:cd:48:38:dc:
         33:6e:58:42:ed:da:5c:e3:71:9d:a0:a6:e5:0b:b7:1f:94:2f:
         6b:2e:df:5c:43:f0:26:68:04:39:44:22:f9:66:1f:8b:87:9c:
         5a:62:48:7d
-----BEGIN CERTIFICATE-----
MIIFNTCCBB2gAwIBAgICEDIwDQYJKoZIhvcNAQELBQAwczELMAkGA1UEBhMCRlIx
DDAKBgNVBAgTA0lERjEOMAwGA1UEBxMFUGFyaXMxLzAtBgNVBAoTJkxvY2FsIE5P
REUtT1BDVUEgQ2VydGlmaWNhdGUgQXV0aG9yaXR5MRUwEwYDVQQDEwxOb2RlT1BD
VUEtQ0EwHhcNMjIxMDA5MDAyNDIwWhcNMjMxMDA5MDAyNDIwWjA1MQswCQYDVQQG
EwJGUjESMBAGA1UECgwJTm9kZU9QQ1VBMRIwEAYDVQQDDAlOb2RlT1BDVUEwggGi
MA0GCSqGSIb3DQEBAQUAA4IBjwAwggGKAoIBgQDGbzNBAXSL7d1RrVOqCLuJSqhC
dVNpviP9jpsZef55cJWL/StQG35JKWveQtRdjRslD9zGTcdHL4h+2k39M7e8idZS
P81buVPljZHQVMJ3wCeieHrPPBHfKK2i0F59idy6bPfQxqu6kLLByBW1AATPELgz
iaBn+NHHo9y6/ftUHVMycAiPr44e6Ia1nJICKHlKOzcmvLtpEtlAg+Ddcq+6qae4
rdhwNIzgCIeGS91LtSnzXOmYzuVIh7vmTOriszPcSZMR3HlMiNt4NieQifxdMWD9
6dFFy7vd4e2pwHC1Ye9xfoSxG0MsS6TBF0Nk+Vyrx7ns13cseElOCsmLuAYWpI7l
LHRCSEBhLAHmjfaJBbsHDmx7rT8JfFWNFXfiIULAy4MkdNkxEr8UWuTxlyuefX0E
A0RfHOEg+ixwIPj+m6HwDvNki4WMEJgnBe6utYa51NP8s8BaOhwGNteUKSKZPTON
TwWYitYIhW8b0D9fFeL33dUtVUl8EZBXIIrvIW8CAwEAAaOCAY8wggGLMAwGA1Ud
EwEB/wQCMAAwHQYDVR0OBBYEFI5wDVH8h57HeaeCAMbDLOxcZfhJMIGwBgNVHSME
gagwgaWAFKcVYZq1gcf30HZlDdp/7N7yT8jroXekdTBzMQswCQYDVQQGEwJGUjEM
MAoGA1UECBMDSURGMQ4wDAYDVQQHEwVQYXJpczEvMC0GA1UEChMmTG9jYWwgTk9E
RS1PUENVQSBDZXJ0aWZpY2F0ZSBBdXRob3JpdHkxFTATBgNVBAMTDE5vZGVPUENV
QS1DQYIUJaHMoKHalFJSHefgt+cw2X34EN0wSQYDVR0RBEIwQIYqdXJuOmJjOTZk
NzNmYjNiNjpOb2RlT1BDVUEtRGlzY292ZXJ5U2VydmVyggxiYzk2ZDczZmIzYjaH
BH8AAAEwLAYJYIZIAYb4QgENBB8WHU9wZW5TU0wgR2VuZXJhdGVkIENlcnRpZmlj
YXRlMA4GA1UdDwEB/wQEAwIC/DAgBgNVHSUBAf8EFjAUBggrBgEFBQcDAQYIKwYB
BQUHAwIwDQYJKoZIhvcNAQELBQADggEBAKmq6AG9uyqGp39PNZVQOro1f18cDsS6
fhSJkQUJCPPB67hbWr8MHx34AkD98bBbJ7P/VrUtH3xcWtE13Lvm5/q/K4sSGHEz
d64pr8o8xhJQ4D3nRBtPZ0cBlR3FH86FPSaNgV2U724JihB3zzxEAgZpMWnnImWe
y0oFJYVh72OZhslQFoh569eFq4tZa6v+8vPgNXgE6srZ475W/WeHyDZTjrGtCL/u
PwAz8UO/5+njkxmbxUWzLcDm17uP6+bVvVCEu82mkFHCJuF5ocOKZt8P+pBxzUg4
3DNuWELt2lzjcZ2gpuULtx+UL2su31xD8CZoBDlEIvlmH4uHnFpiSH0=
-----END CERTIFICATE-----
