Certificate:
    Data:
        Version: 3 (0x2)
        Serial Number: 4149 (0x1035)
        Signature Algorithm: sha256WithRSAEncryption
        Issuer: C=FR, ST=IDF, L=Paris, O=Local NODE-OPCUA Certificate Authority, CN=NodeOPCUA-CA
        Validity
            Not Before: Oct 10 00:24:20 2023 GMT
            Not After : Oct  9 00:24:20 2024 GMT
        Subject: C=FR, O=NodeOPCUA, CN=NodeOPCUA
        Subject Public Key Info:
            Public Key Algorithm: rsaEncryption
                RSA Public-Key: (3072 bit)
                Modulus:
                    00:c6:6f:33:41:01:74:8b:ed:dd:51:ad:53:aa:08:
                    bb:89:4a:a8:42:75:53:69:be:23:fd:8e:9b:19:79:
                    fe:79:70:95:8b:fd:2b:50:1b:7e:49:29:6b:de:42:
                    d4:5d:8d:1b:25:0f:dc:c6:4d:c7:47:2f:88:7e:da:
                    4d:fd:33:b7:bc:89:d6:52:3f:cd:5b:b9:53:e5:8d:
                    91:d0:54:c2:77:c0:27:a2:78:7a:cf:3c:11:df:28:
                    ad:a2:d0:5e:7d:89:dc:ba:6c:f7:d0:c6:ab:ba:90:
                    b2:c1:c8:15:b5:00:04:cf:10:b8:33:89:a0:67:f8:
                    d1:c7:a3:dc:ba:fd:fb:54:1d:53:32:70:08:8f:af:
                    8e:1e:e8:86:b5:9c:92:02:28:79:4a:3b:37:26:bc:
                    bb:69:12:d9:40:83:e0:dd:72:af:ba:a9:a7:b8:ad:
                    d8:70:34:8c:e0:08:87:86:4b:dd:4b:b5:29:f3:5c:
                    e9:98:ce:e5:48:87:bb:e6:4c:ea:e2:b3:33:dc:49:
                    93:11:dc:79:4c:88:db:78:36:27:90:89:fc:5d:31:
                    60:fd:e9:d1:45:cb:bb:dd:e1:ed:a9:c0:70:b5:61:
                    ef:71:7e:84:b1:1b:43:2c:4b:a4:c1:17:43:64:f9:
                    5c:ab:c7:b9:ec:d7:77:2c:78:49:4e:0a:c9:8b:b8:
                    06:16:a4:8e:e5:2c:74:42:48:40:61:2c:01:e6:8d:
                    f6:89:05:bb:07:0e:6c:7b:ad:3f:09:7c:55:8d:15:
                    77:e2:21:42:c0:cb:83:24:74:d9:31:12:bf:14:5a:
                    e4:f1:97:2b:9e:7d:7d:04:03:44:5f:1c:e1:20:fa:
                    2c:70:20:f8:fe:9b:a1:f0:0e:f3:64:8b:85:8c:10:
                    98:27:05:ee:ae:b5:86:b9:d4:d3:fc:b3:c0:5a:3a:
                    1c:06:36:d7:94:29:22:99:3d:33:8d:4f:05:98:8a:
                    d6:08:85:6f:1b:d0:3f:5f:15:e2:f7:dd:d5:2d:55:
                    49:7c:11:90:57:20:8a:ef:21:6f
                Exponent: 65537 (0x10001)
        X509v3 extensions:
            X509v3 Basic Constraints: critical
                CA:FALSE
            X509v3 Subject Key Identifier: 
                8E:70:0D:51:FC:87:9E:C7:79:A7:82:00:C6:C3:2C:EC:5C:65:F8:49
            X509v3 Authority Key Identifier: 
                keyid:A7:15:61:9A:B5:81:C7:F7:D0:76:65:0D:DA:7F:EC:DE:F2:4F:C8:EB
                DirName:/C=FR/ST=IDF/L=Paris/O=Local NODE-OPCUA Certificate Authority/CN=NodeOPCUA-CA
                serial:25:A1:CC:A0:A1:DA:94:52:52:1D:E7:E0:B7:E7:30:D9:7D:F8:10:DD

            X509v3 Subject Alternative Name: 
                URI:urn:bc96d73fb3b6:NodeOPCUA-DiscoveryServer, DNS:bc96d73fb3b6, IP Address:127.0.0.1
            Netscape Comment: 
                OpenSSL Generated Certificate
            X509v3 Key Usage: critical
                Digital Signature, Non Repudiation, Key Encipherment, Data Encipherment, Key Agreement, Certificate Sign
            X509v3 Extended Key Usage: critical
                TLS Web Server Authentication, TLS Web Client Authentication
    Signature Algorithm: sha256WithRSAEncryption
         38:a0:47:02:b2:be:fb:08:c1:11:7e:df:8f:f0:56:9b:0b:11:
         67:55:05:7c:2a:cd:a0:72:6d:48:66:02:65:1f:94:1a:b0:04:
         f5:84:3e:89:55:58:fd:e9:25:15:5f:db:d6:5d:f1:a9:f1:58:
         e6:bf:51:72:5b:ae:20:b4:5b:d8:f4:b6:3d:91:b7:6d:d9:87:
         15:84:7a:c1:90:33:6d:d9:a3:d8:e4:41:74:da:68:bc:a0:4a:
         b8:79:95:3e:b5:15:33:5c:26:02:a8:b5:6f:63:ef:36:f6:c1:
         ed:c5:cd:7c:9a:4f:2e:75:f6:22:8e:07:18:69:43:f6:5b:05:
         8c:87:df:87:e1:f1:86:63:ad:37:85:de:80:84:37:2d:78:fd:
         a6:d7:f4:65:96:54:a4:2b:29:e6:a1:be:35:87:90:11:3b:ff:
         1c:c3:0a:68:b3:e7:c3:74:d0:bb:ad:f3:08:08:a2:04:f7:40:
         4f:64:d1:db:6c:96:01:4b:15:c4:40:86:47:7c:b1:50:17:59:
         0f:05:40:54:6a:ec:77:db:3b:bb:92:03:7d:50:f7:ce:42:dd:
         2a:01:d6:0b:dd:2a:a7:ed:a2:0e:5b:04:b4:de:e5:fa:ec:dc:
         f1:46:4f:23:04:b3:72:da:a9:ba:06:d0:8c:68:ae:68:eb:5d:
         d7:85:1a:0d
-----BEGIN CERTIFICATE-----
MIIFNTCCBB2gAwIBAgICEDUwDQYJKoZIhvcNAQELBQAwczELMAkGA1UEBhMCRlIx
DDAKBgNVBAgTA0lERjEOMAwGA1UEBxMFUGFyaXMxLzAtBgNVBAoTJkxvY2FsIE5P
REUtT1BDVUEgQ2VydGlmaWNhdGUgQXV0aG9yaXR5MRUwEwYDVQQDEwxOb2RlT1BD
VUEtQ0EwHhcNMjMxMDEwMDAyNDIwWhcNMjQxMDA5MDAyNDIwWjA1MQswCQYDVQQG
EwJGUjESMBAGA1UECgwJTm9kZU9QQ1VBMRIwEAYDVQQDDAlOb2RlT1BDVUEwggGi
MA0GCSqGSIb3DQEBAQUAA4IBjwAwggGKAoIBgQDGbzNBAXSL7d1RrVOqCLuJSqhC
dVNpviP9jpsZef55cJWL/StQG35JKWveQtRdjRslD9zGTcdHL4h+2k39M7e8idZS
P81buVPljZHQVMJ3wCeieHrPPBHfKK2i0F59idy6bPfQxqu6kLLByBW1AATPELgz
iaBn+NHHo9y6/ftUHVMycAiPr44e6Ia1nJICKHlKOzcmvLtpEtlAg+Ddcq+6qae4
rdhwNIzgCIeGS91LtSnzXOmYzuVIh7vmTOriszPcSZMR3HlMiNt4NieQifxdMWD9
6dFFy7vd4e2pwHC1Ye9xfoSxG0MsS6TBF0Nk+Vyrx7ns13cseElOCsmLuAYWpI7l
LHRCSEBhLAHmjfaJBbsHDmx7rT8JfFWNFXfiIULAy4MkdNkxEr8UWuTxlyuefX0E
A0RfHOEg+ixwIPj+m6HwDvNki4WMEJgnBe6utYa51NP8s8BaOhwGNteUKSKZPTON
TwWYitYIhW8b0D9fFeL33dUtVUl8EZBXIIrvIW8CAwEAAaOCAY8wggGLMAwGA1Ud
EwEB/wQCMAAwHQYDVR0OBBYEFI5wDVH8h57HeaeCAMbDLOxcZfhJMIGwBgNVHSME
gagwgaWAFKcVYZq1gcf30HZlDdp/7N7yT8jroXekdTBzMQswCQYDVQQGEwJGUjEM
MAoGA1UECBMDSURGMQ4wDAYDVQQHEwVQYXJpczEvMC0GA1UEChMmTG9jYWwgTk9E
RS1PUENVQSBDZXJ0aWZpY2F0ZSBBdXRob3JpdHkxFTATBgNVBAMTDE5vZGVPUENV
QS1DQYIUJaHMoKHalFJSHefgt+cw2X34EN0wSQYDVR0RBEIwQIYqdXJuOmJjOTZk
NzNmYjNiNjpOb2RlT1BDVUEtRGlzY292ZXJ5U2VydmVyggxiYzk2ZDczZmIzYjaH
BH8AAAEwLAYJYIZIAYb4QgENBB8WHU9wZW5TU0wgR2VuZXJhdGVkIENlcnRpZmlj
YXRlMA4GA1UdDwEB/wQEAwIC/DAgBgNVHSUBAf8EFjAUBggrBgEFBQcDAQYIKwYB
BQUHAwIwDQYJKoZIhvcNAQELBQADggEBADigRwKyvvsIwRF+34/wVpsLEWdVBXwq
zaBybUhmAmUflBqwBPWEPolVWP3pJRVf29Zd8anxWOa/UXJbriC0W9j0tj2Rt23Z
hxWEesGQM23Zo9jkQXTaaLygSrh5lT61FTNcJgKotW9j7zb2we3FzXyaTy519iKO
BxhpQ/ZbBYyH34fh8YZjrTeF3oCENy14/abX9GWWVKQrKeahvjWHkBE7/xzDCmiz
58N00Lut8wgIogT3QE9k0dtslgFLFcRAhkd8sVAXWQ8FQFRq7HfbO7uSA31Q985C
3SoB1gvdKqftog5bBLTe5frs3PFGTyMEs3LaqboG0IxormjrXdeFGg0=
-----END CERTIFICATE-----
