Certificate:
    Data:
        Version: 3 (0x2)
        Serial Number: 4151 (0x1037)
        Signature Algorithm: sha256WithRSAEncryption
        Issuer: C=FR, ST=IDF, L=Paris, O=Local NODE-OPCUA Certificate Authority, CN=NodeOPCUA-CA
        Validity
            Not Before: Oct  9 00:24:20 2022 GMT
            Not After : Oct  9 00:24:20 2023 GMT
        Subject: C=FR, O=NodeOPCUA, CN=NodeOPCUA
        Subject Public Key Info:
            Public Key Algorithm: rsaEncryption
                RSA Public-Key: (4096 bit)
                Modulus:
                    00:ce:ad:14:98:46:d7:fe:23:95:ac:3d:6c:82:c6:
                    3e:f6:43:33:f6:ec:5c:37:e5:4c:55:43:65:30:f8:
                    ea:4e:39:ad:cc:da:fe:93:19:76:c3:69:7e:df:91:
                    56:0b:08:1a:88:c2:e3:47:c7:5a:96:61:23:f2:4c:
                    87:8c:a2:60:89:d7:6b:a6:c9:ef:95:91:dd:64:cf:
                    d3:76:fd:d5:be:d4:b5:5d:2a:3c:80:2e:9a:84:4f:
                    ca:0f:24:c6:06:0d:d0:58:eb:d9:1c:00:a0:f3:c5:
                    a5:2a:d3:0b:05:7a:a5:56:86:a0:c6:97:ce:0b:c6:
                    ac:26:93:1c:9a:62:ca:d5:a9:ee:c8:ef:f9:7b:aa:
                    06:82:6a:d2:2f:a1:d9:ff:db:26:93:d2:c3:8f:b8:
                    c9:68:f1:e9:c6:02:40:7e:a8:ee:c8:99:b9:e9:a5:
                    ea:48:02:23:44:94:37:de:e4:c1:0e:2a:a6:d6:52:
                    43:5a:c8:9d:2e:35:23:88:b3:a8:1a:00:db:ee:e6:
                    40:56:c2:05:91:cd:55:98:58:e3:3e:2d:34:0e:cd:
                    20:23:cf:f2:fb:ad:ed:af:79:30:d5:b0:e4:81:00:
                    ac:0a:4c:8f:4e:97:2e:8f:af:2b:87:f8:8c:a2:4d:
                    72:5b:87:11:bf:36:74:ec:72:46:3b:88:4c:90:f4:
                    46:fe:b9:c9:e6:f5:60:c0:f1:82:14:15:26:63:e2:
                    ce:a9:e4:ba:a6:62:74:ad:90:33:72:6f:30:37:10:
                    81:62:3b:1b:d5:00:8b:4b:58:51:d1:3f:6a:eb:05:
                    40:21:b7:2d:79:91:32:c8:46:d7:dd:47:d3:c1:f0:
                    c9:42:3f:37:ba:d3:46:a0:55:3c:6b:97:81:ba:a4:
                    21:63:e5:7e:df:0b:29:95:35:05:9c:79:fc:65:8f:
                    c6:96:02:c9:7f:d1:ab:c7:49:82:d6:76:6a:02:49:
                    a6:28:f2:96:d6:8b:c2:f7:77:85:ba:5a:64:9d:cd:
                    4e:af:e7:9c:c1:ca:16:24:a9:fa:52:38:1c:9c:c0:
                    fb:a4:b8:41:7b:21:60:41:51:a5:40:a2:de:be:6f:
                    d9:7c:67:89:c8:6b:c0:cd:00:f9:71:e3:5c:4f:1b:
                    3e:b3:4f:8f:97:ef:23:1e:27:d4:9e:9c:8b:2f:31:
                    04:8c:1a:ff:b2:fa:c0:87:09:bf:35:8e:1e:44:61:
                    0e:ab:14:5a:80:f1:2a:0c:0a:db:de:74:33:f1:d4:
                    4c:c9:54:2c:c1:46:de:45:d6:34:77:77:a3:bd:d1:
                    e1:8c:a0:7e:40:89:83:d9:5e:b9:6b:c1:53:53:6c:
                    f5:89:20:64:42:aa:e1:05:5c:eb:d9:e1:c2:59:df:
                    0b:9b:13
                Exponent: 65537 (0x10001)
        X509v3 extensions:
            X509v3 Basic Constraints: critical
                CA:FALSE
            X509v3 Subject Key Identifier: 
                AF:28:52:E8:58:19:28:3D:91:99:0F:12:32:A6:10:8A:15:14:CB:DB
            X509v3 Authority Key Identifier: 
                keyid:A7:15:61:9A:B5:81:C7:F7:D0:76:65:0D:DA:7F:EC:DE:F2:4F:C8:EB
                DirName:/C=FR/ST=IDF/L=Paris/O=Local NODE-OPCUA Certificate Authority/CN=NodeOPCUA-CA
                serial:25:A1:CC:A0:A1:DA:94:52:52:1D:E7:E0:B7:E7:30:D9:7D:F8:10:DD

            X509v3 Subject Alternative Name: 
                URI:urn:bc96d73fb3b6:NodeOPCUA-DiscoveryServer, DNS:bc96d73fb3b6, IP Address:127.0.0.1
            Netscape Comment: 
                OpenSSL Generated Certificate
            X509v3 Key Usage: critical
                Digital Signature, Non Repudiation, Key Encipherment, Data Encipherment, Key Agreement, Certificate Sign
            X509v3 Extended Key Usage: critical
                TLS Web Server Authentication, TLS Web Client Authentication
    Signature Algorithm: sha256WithRSAEncryption
         56:4d:5a:eb:a3:64:0b:7e:2c:bf:a3:51:5f:f3:aa:2c:00:59:
         10:76:12:8f:32:b5:2e:1f:cd:3d:78:46:c6:b8:fa:01:cd:f4:
         b5:d5:71:f7:1c:23:af:fe:7d:34:0f:ba:23:45:9a:9b:92:52:
         a6:be:43:9a:47:63:bf:6a:8f:4c:db:fc:84:1f:a0:b9:8a:b0:
         e8:10:43:b1:4f:6e:ff:09:28:91:a1:b1:26:b2:bc:6d:1f:4f:
         7c:46:f9:f8:b0:2b:1b:67:36:b5:3c:e1:76:e0:6c:e0:b6:83:
         3d:0e:92:61:c3:01:b9:b6:77:a3:6b:89:30:2e:b9:77:ff:42:
         c3:be:69:09:ab:88:5a:ce:80:d7:b0:73:1d:cd:fa:b8:70:76:
         9a:37:13:4c:f8:e2:05:a6:9f:43:29:34:ba:26:40:df:45:0d:
         a1:65:22:01:5d:5a:ad:55:1a:3e:a9:94:1f:09:ef:d7:34:2d:
         71:e1:e6:9b:b2:52:ab:d0:88:7a:5c:98:fc:ed:c4:49:0e:3d:
         4c:73:0a:ad:07:35:96:f1:b4:75:52:87:0e:99:cd:08:3d:09:
         62:f5:f9:2a:5c:34:d1:dd:de:4a:08:60:dc:80:86:9a:9a:0f:
         27:d2:6d:6f:06:e9:2d:d1:11:0d:c0:fe:af:90:92:e7:6e:cb:
         41:3c:5b:92
-----BEGIN CERTIFICATE-----
MIIFtTCCBJ2gAwIBAgICEDcwDQYJKoZIhvcNAQELBQAwczELMAkGA1UEBhMCRlIx
DDAKBgNVBAgTA0lERjEOMAwGA1UEBxMFUGFyaXMxLzAtBgNVBAoTJkxvY2FsIE5P
REUtT1BDVUEgQ2VydGlmaWNhdGUgQXV0aG9yaXR5MRUwEwYDVQQDEwxOb2RlT1BD
VUEtQ0EwHhcNMjIxMDA5MDAyNDIwWhcNMjMxMDA5MDAyNDIwWjA1MQswCQYDVQQG
EwJGUjESMBAGA1UECgwJTm9kZU9QQ1VBMRIwEAYDVQQDDAlOb2RlT1BDVUEwggIi
MA0GCSqGSIb3DQEBAQUAA4ICDwAwggIKAoICAQDOrRSYRtf+I5WsPWyCxj72QzP2
7Fw35UxVQ2Uw+OpOOa3M2v6TGXbDaX7fkVYLCBqIwuNHx1qWYSPyTIeMomCJ12um
ye+Vkd1kz9N2/dW+1LVdKjyALpqET8oPJMYGDdBY69kcAKDzxaUq0wsFeqVWhqDG
l84LxqwmkxyaYsrVqe7I7/l7qgaCatIvodn/2yaT0sOPuMlo8enGAkB+qO7Imbnp
pepIAiNElDfe5MEOKqbWUkNayJ0uNSOIs6gaANvu5kBWwgWRzVWYWOM+LTQOzSAj
z/L7re2veTDVsOSBAKwKTI9Oly6PryuH+IyiTXJbhxG/NnTsckY7iEyQ9Eb+ucnm
9WDA8YIUFSZj4s6p5LqmYnStkDNybzA3EIFiOxvVAItLWFHRP2rrBUAhty15kTLI
RtfdR9PB8MlCPze600agVTxrl4G6pCFj5X7fCymVNQWcefxlj8aWAsl/0avHSYLW
dmoCSaYo8pbWi8L3d4W6WmSdzU6v55zByhYkqfpSOBycwPukuEF7IWBBUaVAot6+
b9l8Z4nIa8DNAPlx41xPGz6zT4+X7yMeJ9SenIsvMQSMGv+y+sCHCb81jh5EYQ6r
FFqA8SoMCtvedDPx1EzJVCzBRt5F1jR3d6O90eGMoH5AiYPZXrlrwVNTbPWJIGRC
quEFXOvZ4cJZ3wubEwIDAQABo4IBjzCCAYswDAYDVR0TAQH/BAIwADAdBgNVHQ4E
FgQUryhS6FgZKD2RmQ8SMqYQihUUy9swgbAGA1UdIwSBqDCBpYAUpxVhmrWBx/fQ
dmUN2n/s3vJPyOuhd6R1MHMxCzAJBgNVBAYTAkZSMQwwCgYDVQQIEwNJREYxDjAM
BgNVBAcTBVBhcmlzMS8wLQYDVQQKEyZMb2NhbCBOT0RFLU9QQ1VBIENlcnRpZmlj
YXRlIEF1dGhvcml0eTEVMBMGA1UEAxMMTm9kZU9QQ1VBLUNBghQlocygodqUUlId
5+C35zDZffgQ3TBJBgNVHREEQjBAhip1cm46YmM5NmQ3M2ZiM2I2Ok5vZGVPUENV
QS1EaXNjb3ZlcnlTZXJ2ZXKCDGJjOTZkNzNmYjNiNocEfwAAATAsBglghkgBhvhC
AQ0EHxYdT3BlblNTTCBHZW5lcmF0ZWQgQ2VydGlmaWNhdGUwDgYDVR0PAQH/BAQD
AgL8MCAGA1UdJQEB/wQWMBQGCCsGAQUFBwMBBggrBgEFBQcDAjANBgkqhkiG9w0B
AQsFAAOCAQEAVk1a66NkC34sv6NRX/OqLABZEHYSjzK1Lh/NPXhGxrj6Ac30tdVx
9xwjr/59NA+6I0Wam5JSpr5Dmkdjv2qPTNv8hB+guYqw6BBDsU9u/wkokaGxJrK8
bR9PfEb5+LArG2c2tTzhduBs4LaDPQ6SYcMBubZ3o2uJMC65d/9Cw75pCauIWs6A
17BzHc36uHB2mjcTTPjiBaafQyk0uiZA30UNoWUiAV1arVUaPqmUHwnv1zQtceHm
m7JSq9CIelyY/O3ESQ49THMKrQc1lvG0dVKHDpnNCD0JYvX5Klw00d3eSghg3ICG
mpoPJ9JtbwbpLdERDcD+r5CS527LQTxbkg==
-----END CERTIFICATE-----
