Certificate:
    Data:
        Version: 3 (0x2)
        Serial Number: 4152 (0x1038)
        Signature Algorithm: sha256WithRSAEncryption
        Issuer: O=NodeOPCUA, CN=NodeOPCUA
        Validity
            Not Before: Oct  9 00:24:20 2022 GMT
            Not After : Oct  9 00:24:20 2023 GMT
        Subject: O=NodeOPCUA, CN=NodeOPCUA
        Subject Public Key Info:
            Public Key Algorithm: rsaEncryption
                RSA Public-Key: (4096 bit)
                Modulus:
                    00:ce:ad:14:98:46:d7:fe:23:95:ac:3d:6c:82:c6:
                    3e:f6:43:33:f6:ec:5c:37:e5:4c:55:43:65:30:f8:
                    ea:4e:39:ad:cc:da:fe:93:19:76:c3:69:7e:df:91:
                    56:0b:08:1a:88:c2:e3:47:c7:5a:96:61:23:f2:4c:
                    87:8c:a2:60:89:d7:6b:a6:c9:ef:95:91:dd:64:cf:
                    d3:76:fd:d5:be:d4:b5:5d:2a:3c:80:2e:9a:84:4f:
                    ca:0f:24:c6:06:0d:d0:58:eb:d9:1c:00:a0:f3:c5:
                    a5:2a:d3:0b:05:7a:a5:56:86:a0:c6:97:ce:0b:c6:
                    ac:26:93:1c:9a:62:ca:d5:a9:ee:c8:ef:f9:7b:aa:
                    06:82:6a:d2:2f:a1:d9:ff:db:26:93:d2:c3:8f:b8:
                    c9:68:f1:e9:c6:02:40:7e:a8:ee:c8:99:b9:e9:a5:
                    ea:48:02:23:44:94:37:de:e4:c1:0e:2a:a6:d6:52:
                    43:5a:c8:9d:2e:35:23:88:b3:a8:1a:00:db:ee:e6:
                    40:56:c2:05:91:cd:55:98:58:e3:3e:2d:34:0e:cd:
                    20:23:cf:f2:fb:ad:ed:af:79:30:d5:b0:e4:81:00:
                    ac:0a:4c:8f:4e:97:2e:8f:af:2b:87:f8:8c:a2:4d:
                    72:5b:87:11:bf:36:74:ec:72:46:3b:88:4c:90:f4:
                    46:fe:b9:c9:e6:f5:60:c0:f1:82:14:15:26:63:e2:
                    ce:a9:e4:ba:a6:62:74:ad:90:33:72:6f:30:37:10:
                    81:62:3b:1b:d5:00:8b:4b:58:51:d1:3f:6a:eb:05:
                    40:21:b7:2d:79:91:32:c8:46:d7:dd:47:d3:c1:f0:
                    c9:42:3f:37:ba:d3:46:a0:55:3c:6b:97:81:ba:a4:
                    21:63:e5:7e:df:0b:29:95:35:05:9c:79:fc:65:8f:
                    c6:96:02:c9:7f:d1:ab:c7:49:82:d6:76:6a:02:49:
                    a6:28:f2:96:d6:8b:c2:f7:77:85:ba:5a:64:9d:cd:
                    4e:af:e7:9c:c1:ca:16:24:a9:fa:52:38:1c:9c:c0:
                    fb:a4:b8:41:7b:21:60:41:51:a5:40:a2:de:be:6f:
                    d9:7c:67:89:c8:6b:c0:cd:00:f9:71:e3:5c:4f:1b:
                    3e:b3:4f:8f:97:ef:23:1e:27:d4:9e:9c:8b:2f:31:
                    04:8c:1a:ff:b2:fa:c0:87:09:bf:35:8e:1e:44:61:
                    0e:ab:14:5a:80:f1:2a:0c:0a:db:de:74:33:f1:d4:
                    4c:c9:54:2c:c1:46:de:45:d6:34:77:77:a3:bd:d1:
                    e1:8c:a0:7e:40:89:83:d9:5e:b9:6b:c1:53:53:6c:
                    f5:89:20:64:42:aa:e1:05:5c:eb:d9:e1:c2:59:df:
                    0b:9b:13
                Exponent: 65537 (0x10001)
        X509v3 extensions:
            X509v3 Basic Constraints: critical
                CA:FALSE
            X509v3 Subject Key Identifier: 
                AF:28:52:E8:58:19:28:3D:91:99:0F:12:32:A6:10:8A:15:14:CB:DB
            X509v3 Authority Key Identifier: 
                keyid:AF:28:52:E8:58:19:28:3D:91:99:0F:12:32:A6:10:8A:15:14:CB:DB
                DirName:/O=NodeOPCUA/CN=NodeOPCUA
                serial:10:38

            X509v3 Subject Alternative Name: 
                URI:urn:bc96d73fb3b6:NodeOPCUA-DiscoveryServer, DNS:bc96d73fb3b6
            Netscape Comment: 
                OpenSSL Generated Certificate
            X509v3 Key Usage: critical
                Digital Signature, Non Repudiation, Key Encipherment, Data Encipherment, Key Agreement, Certificate Sign
            X509v3 Extended Key Usage: critical
                TLS Web Server Authentication, TLS Web Client Authentication
    Signature Algorithm: sha256WithRSAEncryption
         1d:4c:29:76:16:e7:04:4c:51:5e:3b:cc:f2:fa:6e:82:e7:a2:
         0d:8d:48:0b:a4:f6:cf:e7:c8:c8:20:b8:5a:31:36:43:8d:c0:
         40:5e:b8:4e:07:c6:7a:94:d8:e7:41:6c:ca:fb:9f:95:86:c2:
         2e:33:c0:48:50:0a:bb:72:7e:42:a4:cc:f9:6e:d1:92:64:ab:
         21:e7:6e:38:ce:e4:54:e7:9d:97:7d:78:e7:6e:23:c9:e4:13:
         cf:0c:63:15:c6:64:d5:62:2f:49:05:63:e2:c5:02:96:d5:24:
         cc:ba:87:f3:4f:e3:7a:20:02:d6:fb:7e:46:80:ad:6d:f5:df:
         f6:18:82:e1:c5:b9:32:9f:de:7c:1f:cb:39:59:74:9c:3a:68:
         da:39:6b:cf:f5:43:85:4e:73:bc:7d:57:c2:43:87:45:ea:6c:
         d0:d7:bf:9f:ce:19:ce:41:b5:04:8c:c2:d0:c9:8f:c6:1f:85:
         02:54:0f:61:1a:c7:db:70:57:50:4d:1a:76:b9:cc:67:f9:36:
         5e:76:30:d1:ba:86:59:d5:c5:5a:66:13:85:b8:fe:f0:c0:de:
         96:f6:07:db:54:d9:ba:25:3d:dc:58:6d:02:8d:39:92:a5:7a:
         04:dd:86:56:7a:7c:5e:58:57:0f:9b:94:e6:00:83:3f:79:a6:
         d3:1b:c9:84:64:8a:ae:3c:04:49:20:1e:19:57:35:51:11:3f:
         56:e4:0e:44:9d:18:94:05:3e:63:0b:5f:38:57:89:f9:2e:22:
         42:aa:99:72:38:e1:d1:90:e8:d7:27:f2:43:fb:84:04:0b:ce:
         0a:ca:36:eb:99:9b:81:b6:2c:75:c2:da:8d:39:b9:bd:48:9c:
         8e:ee:7b:b2:cf:a2:20:95:46:81:a9:8b:4a:43:da:e2:44:c2:
         1a:ac:df:3e:0d:4b:96:57:f6:3b:9a:0f:4b:d3:57:c4:ba:c6:
         1e:b0:e8:6d:94:ec:56:e6:83:8e:79:2c:f4:3f:76:11:eb:fa:
         4a:7a:fa:df:c7:f2:4d:2e:1e:0f:d8:27:aa:fc:cf:62:6c:ff:
         20:29:95:12:e7:d7:07:1c:10:d0:56:08:ed:3a:a9:6d:9c:48:
         13:a5:a1:4f:ba:2c:d6:55:70:a9:93:89:7b:76:07:20:ca:32:
         37:63:df:5e:5a:77:e9:dc:4f:f6:e6:59:15:03:91:23:9d:2b:
         8e:93:66:c0:d6:a3:f1:1a:aa:c3:5e:3b:cb:8b:20:e3:d9:62:
         34:8c:68:7b:8d:15:76:93:fe:e5:0e:3f:c7:69:27:b6:3f:2b:
         3b:4e:af:16:e9:93:3c:64:7b:b7:7e:93:6b:1b:60:a9:c6:83:
         f8:0b:2d:8a:93:de:12:1b
-----BEGIN CERTIFICATE-----
MIIF9zCCA9+gAwIBAgICEDgwDQYJKoZIhvcNAQELBQAwKDESMBAGA1UEChMJTm9k
ZU9QQ1VBMRIwEAYDVQQDEwlOb2RlT1BDVUEwHhcNMjIxMDA5MDAyNDIwWhcNMjMx
MDA5MDAyNDIwWjAoMRIwEAYDVQQKEwlOb2RlT1BDVUExEjAQBgNVBAMTCU5vZGVP
UENVQTCCAiIwDQYJKoZIhvcNAQEBBQADggIPADCCAgoCggIBAM6tFJhG1/4jlaw9
bILGPvZDM/bsXDflTFVDZTD46k45rcza/pMZdsNpft+RVgsIGojC40fHWpZhI/JM
h4yiYInXa6bJ75WR3WTP03b91b7UtV0qPIAumoRPyg8kxgYN0Fjr2RwAoPPFpSrT
CwV6pVaGoMaXzgvGrCaTHJpiytWp7sjv+XuqBoJq0i+h2f/bJpPSw4+4yWjx6cYC
QH6o7siZueml6kgCI0SUN97kwQ4qptZSQ1rInS41I4izqBoA2+7mQFbCBZHNVZhY
4z4tNA7NICPP8vut7a95MNWw5IEArApMj06XLo+vK4f4jKJNcluHEb82dOxyRjuI
TJD0Rv65yeb1YMDxghQVJmPizqnkuqZidK2QM3JvMDcQgWI7G9UAi0tYUdE/ausF
QCG3LXmRMshG191H08HwyUI/N7rTRqBVPGuXgbqkIWPlft8LKZU1BZx5/GWPxpYC
yX/Rq8dJgtZ2agJJpijyltaLwvd3hbpaZJ3NTq/nnMHKFiSp+lI4HJzA+6S4QXsh
YEFRpUCi3r5v2XxnichrwM0A+XHjXE8bPrNPj5fvIx4n1J6ciy8xBIwa/7L6wIcJ
vzWOHkRhDqsUWoDxKgwK2950M/HUTMlULMFG3kXWNHd3o73R4YygfkCJg9leuWvB
U1Ns9YkgZEKq4QVc69nhwlnfC5sTAgMBAAGjggEpMIIBJTAMBgNVHRMBAf8EAjAA
MB0GA1UdDgQWBBSvKFLoWBkoPZGZDxIyphCKFRTL2zBRBgNVHSMESjBIgBSvKFLo
WBkoPZGZDxIyphCKFRTL26EspCowKDESMBAGA1UEChMJTm9kZU9QQ1VBMRIwEAYD
VQQDEwlOb2RlT1BDVUGCAhA4MEMGA1UdEQQ8MDqGKnVybjpiYzk2ZDczZmIzYjY6
Tm9kZU9QQ1VBLURpc2NvdmVyeVNlcnZlcoIMYmM5NmQ3M2ZiM2I2MCwGCWCGSAGG
+EIBDQQfFh1PcGVuU1NMIEdlbmVyYXRlZCBDZXJ0aWZpY2F0ZTAOBgNVHQ8BAf8E
BAMCAvwwIAYDVR0lAQH/BBYwFAYIKwYBBQUHAwEGCCsGAQUFBwMCMA0GCSqGSIb3
DQEBCwUAA4ICAQAdTCl2FucETFFeO8zy+m6C56INjUgLpPbP58jIILhaMTZDjcBA
XrhOB8Z6lNjnQWzK+5+VhsIuM8BIUAq7cn5CpMz5btGSZKsh5244zuRU552XfXjn
biPJ5BPPDGMVxmTVYi9JBWPixQKW1STMuofzT+N6IALW+35GgK1t9d/2GILhxbky
n958H8s5WXScOmjaOWvP9UOFTnO8fVfCQ4dF6mzQ17+fzhnOQbUEjMLQyY/GH4UC
VA9hGsfbcFdQTRp2ucxn+TZedjDRuoZZ1cVaZhOFuP7wwN6W9gfbVNm6JT3cWG0C
jTmSpXoE3YZWenxeWFcPm5TmAIM/eabTG8mEZIquPARJIB4ZVzVRET9W5A5EnRiU
BT5jC184V4n5LiJCqplyOOHRkOjXJ/JD+4QEC84KyjbrmZuBtix1wtqNObm9SJyO
7nuyz6IglUaBqYtKQ9riRMIarN8+DUuWV/Y7mg9L01fEusYesOhtlOxW5oOOeSz0
P3YR6/pKevrfx/JNLh4P2Ceq/M9ibP8gKZUS59cHHBDQVgjtOqltnEgTpaFPuizW
VXCpk4l7dgcgyjI3Y99eWnfp3E/25lkVA5EjnSuOk2bA1qPxGqrDXjvLiyDj2WI0
jGh7jRV2k/7lDj/HaSe2Pys7Tq8W6ZM8ZHu3fpNrG2CpxoP4Cy2Kk94SGw==
-----END CERTIFICATE-----
